---
triple:          'arm64-apple-darwin'
binary-path:     '/Users/anthonylui/QwenCoderLocal/turboquant-mlx/turboquant_storage/target/debug/deps/libturboquant_storage.dylib'
relocations:
  - { offset: 0x1E, size: 0x8, addend: 0x0, symName: __ZN4core3fmt9Formatter9write_fmt17h153bb7753597e950E, symObjAddr: 0x0, symBinAddr: 0x838, symSize: 0x1AC }
  - { offset: 0x671, size: 0x8, addend: 0x0, symName: __ZN4core3fmt9Formatter9write_fmt17h153bb7753597e950E, symObjAddr: 0x0, symBinAddr: 0x838, symSize: 0x1AC }
  - { offset: 0x744, size: 0x8, addend: 0x0, symName: __ZN4pyo36marker6Python19assume_gil_acquired17h1785e74632db7c89E, symObjAddr: 0x0, symBinAddr: 0x9E4, symSize: 0x4 }
  - { offset: 0x91A, size: 0x8, addend: 0x0, symName: __ZN4pyo36marker6Python19assume_gil_acquired17h1785e74632db7c89E, symObjAddr: 0x0, symBinAddr: 0x9E4, symSize: 0x4 }
  - { offset: 0x94B, size: 0x8, addend: 0x0, symName: '__ZN4core3ptr8non_null16NonNull$LT$T$GT$13new_unchecked17h46ce3722a5452d3eE', symObjAddr: 0x0, symBinAddr: 0x9E8, symSize: 0x34 }
  - { offset: 0x9C7, size: 0x8, addend: 0x0, symName: '__ZN4core3ptr8non_null16NonNull$LT$T$GT$13new_unchecked17h46ce3722a5452d3eE', symObjAddr: 0x0, symBinAddr: 0x9E8, symSize: 0x34 }
  - { offset: 0xA10, size: 0x8, addend: 0x0, symName: '__ZN5numpy6borrow28PyReadonlyArray$LT$T$C$D$GT$7try_new17h00fc4f85069e8ce6E', symObjAddr: 0x0, symBinAddr: 0xA1C, symSize: 0x9C }
  - { offset: 0x1ED7, size: 0x8, addend: 0x0, symName: '__ZN94_$LT$numpy..borrow..PyReadonlyArray$LT$T$C$D$GT$$u20$as$u20$pyo3..conversion..FromPyObject$GT$7extract17h2e58b9ea1c6bbcdbE', symObjAddr: 0xC4, symBinAddr: 0xAE0, symSize: 0x90 }
  - { offset: 0x205A, size: 0x8, addend: 0x0, symName: '__ZN71_$LT$T$u20$as$u20$pyo3..impl_..extract_argument..PyFunctionArgument$GT$7extract17hd49c3043a87082a4E', symObjAddr: 0x9C, symBinAddr: 0xAB8, symSize: 0x28 }
  - { offset: 0x2688, size: 0x8, addend: 0x0, symName: '__ZN5numpy6borrow28PyReadonlyArray$LT$T$C$D$GT$7try_new17h00fc4f85069e8ce6E', symObjAddr: 0x0, symBinAddr: 0xA1C, symSize: 0x9C }
  - { offset: 0x276C, size: 0x8, addend: 0x0, symName: '__ZN62_$LT$numpy..error..BorrowError$u20$as$u20$core..fmt..Debug$GT$3fmt17ha60d5ec1a6c6822dE', symObjAddr: 0x0, symBinAddr: 0xB70, symSize: 0x74 }
  - { offset: 0x27A0, size: 0x8, addend: 0x0, symName: '__ZN62_$LT$numpy..error..BorrowError$u20$as$u20$core..fmt..Debug$GT$3fmt17ha60d5ec1a6c6822dE', symObjAddr: 0x0, symBinAddr: 0xB70, symSize: 0x74 }
  - { offset: 0x2A0B, size: 0x8, addend: 0x0, symName: '__ZN50_$LT$T$u20$as$u20$core..convert..Into$LT$U$GT$$GT$4into17h3f0207ec22a2e404E', symObjAddr: 0x0, symBinAddr: 0xBE4, symSize: 0x24 }
  - { offset: 0x319F, size: 0x8, addend: 0x0, symName: '__ZN50_$LT$T$u20$as$u20$core..convert..Into$LT$U$GT$$GT$4into17h3f0207ec22a2e404E', symObjAddr: 0x0, symBinAddr: 0xBE4, symSize: 0x24 }
  - { offset: 0x31DF, size: 0x8, addend: 0x0, symName: '__ZN50_$LT$T$u20$as$u20$core..convert..Into$LT$U$GT$$GT$4into17h86713a9ce2b115c0E', symObjAddr: 0x24, symBinAddr: 0xC08, symSize: 0x2C }
  - { offset: 0x4402, size: 0x8, addend: 0x0, symName: '__ZN102_$LT$core..iter..adapters..zip..Zip$LT$A$C$B$GT$$u20$as$u20$core..iter..traits..iterator..Iterator$GT$4fold17haed92ccf71b4932fE', symObjAddr: 0x0, symBinAddr: 0xC34, symSize: 0x20 }
  - { offset: 0x4BA0, size: 0x8, addend: 0x0, symName: '__ZN102_$LT$core..iter..adapters..zip..Zip$LT$A$C$B$GT$$u20$as$u20$core..iter..traits..iterator..Iterator$GT$4fold17haed92ccf71b4932fE', symObjAddr: 0x0, symBinAddr: 0xC34, symSize: 0x20 }
  - { offset: 0x4C0D, size: 0x8, addend: 0x0, symName: '__ZN102_$LT$core..iter..adapters..zip..Zip$LT$A$C$B$GT$$u20$as$u20$core..iter..traits..iterator..Iterator$GT$4fold17he2dc8a955a0d5c39E', symObjAddr: 0x20, symBinAddr: 0xC54, symSize: 0x20 }
  - { offset: 0x4C7A, size: 0x8, addend: 0x0, symName: '__ZN102_$LT$core..iter..adapters..zip..Zip$LT$A$C$B$GT$$u20$as$u20$core..iter..traits..iterator..Iterator$GT$4next17h2d3597a9b6e50261E', symObjAddr: 0x40, symBinAddr: 0xC74, symSize: 0x24 }
  - { offset: 0x4CB8, size: 0x8, addend: 0x0, symName: '__ZN102_$LT$core..iter..adapters..zip..Zip$LT$A$C$B$GT$$u20$as$u20$core..iter..traits..iterator..Iterator$GT$4next17h8f49bbfba68590b1E', symObjAddr: 0x64, symBinAddr: 0xC98, symSize: 0x24 }
  - { offset: 0x4CF6, size: 0x8, addend: 0x0, symName: '__ZN102_$LT$core..iter..adapters..zip..Zip$LT$A$C$B$GT$$u20$as$u20$core..iter..traits..iterator..Iterator$GT$4next17hf123d8aa8b724c58E', symObjAddr: 0x88, symBinAddr: 0xCBC, symSize: 0x24 }
  - { offset: 0x4D3A, size: 0x8, addend: 0x0, symName: '__ZN111_$LT$core..iter..adapters..zip..Zip$LT$A$C$B$GT$$u20$as$u20$core..iter..adapters..zip..ZipImpl$LT$A$C$B$GT$$GT$3new17h1f3e12fe5c38b072E', symObjAddr: 0xAC, symBinAddr: 0xCE0, symSize: 0x40 }
  - { offset: 0x4D86, size: 0x8, addend: 0x0, symName: '__ZN111_$LT$core..iter..adapters..zip..Zip$LT$A$C$B$GT$$u20$as$u20$core..iter..adapters..zip..ZipImpl$LT$A$C$B$GT$$GT$3new17h34b60aea841829a9E', symObjAddr: 0xEC, symBinAddr: 0xD20, symSize: 0x48 }
  - { offset: 0x4DD2, size: 0x8, addend: 0x0, symName: '__ZN111_$LT$core..iter..adapters..zip..Zip$LT$A$C$B$GT$$u20$as$u20$core..iter..adapters..zip..ZipImpl$LT$A$C$B$GT$$GT$4next17h9518bc6fa2d1f44bE', symObjAddr: 0x660, symBinAddr: 0x1294, symSize: 0xE0 }
  - { offset: 0x4F2B, size: 0x8, addend: 0x0, symName: '__ZN111_$LT$core..iter..adapters..zip..Zip$LT$A$C$B$GT$$u20$as$u20$core..iter..adapters..zip..ZipImpl$LT$A$C$B$GT$$GT$4next17hcd9f75b50990d582E', symObjAddr: 0x740, symBinAddr: 0x1374, symSize: 0xE0 }
  - { offset: 0x508A, size: 0x8, addend: 0x0, symName: '__ZN111_$LT$core..iter..adapters..zip..Zip$LT$A$C$B$GT$$u20$as$u20$core..iter..adapters..zip..ZipImpl$LT$A$C$B$GT$$GT$3new17h5eed0c877071b4b6E', symObjAddr: 0x134, symBinAddr: 0xD68, symSize: 0xC4 }
  - { offset: 0x5161, size: 0x8, addend: 0x0, symName: '__ZN111_$LT$core..iter..adapters..zip..Zip$LT$A$C$B$GT$$u20$as$u20$core..iter..adapters..zip..ZipImpl$LT$A$C$B$GT$$GT$4next17h6333a835276e6bb9E', symObjAddr: 0x5A8, symBinAddr: 0x11DC, symSize: 0xB8 }
  - { offset: 0x51BD, size: 0x8, addend: 0x0, symName: '__ZN111_$LT$core..iter..adapters..zip..Zip$LT$A$C$B$GT$$u20$as$u20$core..iter..adapters..zip..ZipImpl$LT$A$C$B$GT$$GT$4fold17h16c64846c5a6d638E', symObjAddr: 0x1F8, symBinAddr: 0xE2C, symSize: 0x1D8 }
  - { offset: 0x52EC, size: 0x8, addend: 0x0, symName: '__ZN111_$LT$core..iter..adapters..zip..Zip$LT$A$C$B$GT$$u20$as$u20$core..iter..adapters..zip..ZipImpl$LT$A$C$B$GT$$GT$4fold17hbe341cc21a88c1d2E', symObjAddr: 0x3D0, symBinAddr: 0x1004, symSize: 0x1D8 }
  - { offset: 0x56F4, size: 0x8, addend: 0x0, symName: __ZN4core4iter6traits8iterator8Iterator8try_fold17h2967f3b1fdac20c5E, symObjAddr: 0x820, symBinAddr: 0x1454, symSize: 0x1C0 }
  - { offset: 0x57BD, size: 0x8, addend: 0x0, symName: '__ZN63_$LT$I$u20$as$u20$core..iter..traits..collect..IntoIterator$GT$9into_iter17h50b6cac8c3aea2a8E', symObjAddr: 0x9E0, symBinAddr: 0x1614, symSize: 0x30 }
  - { offset: 0x57F5, size: 0x8, addend: 0x0, symName: '__ZN63_$LT$I$u20$as$u20$core..iter..traits..collect..IntoIterator$GT$9into_iter17h5365aea76b513224E', symObjAddr: 0xA10, symBinAddr: 0x1644, symSize: 0x30 }
  - { offset: 0x582D, size: 0x8, addend: 0x0, symName: '__ZN63_$LT$I$u20$as$u20$core..iter..traits..collect..IntoIterator$GT$9into_iter17h90f20ae9b5fefc07E', symObjAddr: 0xA40, symBinAddr: 0x1674, symSize: 0x30 }
  - { offset: 0x5865, size: 0x8, addend: 0x0, symName: '__ZN63_$LT$I$u20$as$u20$core..iter..traits..collect..IntoIterator$GT$9into_iter17hfeffaa7be9719420E', symObjAddr: 0xA70, symBinAddr: 0x16A4, symSize: 0x30 }
  - { offset: 0x6FC6, size: 0x8, addend: 0x0, symName: '__ZN7ndarray12impl_methods49_$LT$impl$u20$ndarray..ArrayBase$LT$S$C$D$GT$$GT$10slice_move28_$u7b$$u7b$closure$u7d$$u7d$17h46def65b38a7b639E', symObjAddr: 0x0, symBinAddr: 0x16D4, symSize: 0x428 }
  - { offset: 0x7071, size: 0x8, addend: 0x0, symName: '__ZN7ndarray12impl_methods49_$LT$impl$u20$ndarray..ArrayBase$LT$S$C$D$GT$$GT$10slice_move28_$u7b$$u7b$closure$u7d$$u7d$17h46def65b38a7b639E', symObjAddr: 0x0, symBinAddr: 0x16D4, symSize: 0x428 }
  - { offset: 0x754D, size: 0x8, addend: 0x0, symName: __ZN4core3ops8function5FnMut8call_mut17hda3350422500c7e7E, symObjAddr: 0x0, symBinAddr: 0x1AFC, symSize: 0x24 }
  - { offset: 0x7D34, size: 0x8, addend: 0x0, symName: __ZN4core3ops8function5FnMut8call_mut17hda3350422500c7e7E, symObjAddr: 0x0, symBinAddr: 0x1AFC, symSize: 0x24 }
  - { offset: 0x7D9B, size: 0x8, addend: 0x0, symName: __ZN4core3ops8function6FnOnce9call_once17h36d9edac5587f3f4E, symObjAddr: 0x24, symBinAddr: 0x1B20, symSize: 0x3C }
  - { offset: 0x7DDF, size: 0x8, addend: 0x0, symName: __ZN4core3ops8function6FnOnce9call_once17h95ddbf44120ea4baE, symObjAddr: 0x60, symBinAddr: 0x1B5C, symSize: 0x4C }
  - { offset: 0x7E23, size: 0x8, addend: 0x0, symName: __ZN4core3ops8function6FnOnce9call_once17ha7d8d169cb91426cE, symObjAddr: 0xAC, symBinAddr: 0x1BA8, symSize: 0x3C }
  - { offset: 0x7E67, size: 0x8, addend: 0x0, symName: __ZN4core3ops8function6FnOnce9call_once17hd490a02959e3f223E, symObjAddr: 0xE8, symBinAddr: 0x1BE4, symSize: 0x4C }
  - { offset: 0x7EAB, size: 0x8, addend: 0x0, symName: __ZN4core3ops8function6FnOnce9call_once17hf3a3165d15d1148fE, symObjAddr: 0x134, symBinAddr: 0x1C30, symSize: 0x24 }
  - { offset: 0x7EF7, size: 0x8, addend: 0x0, symName: '__ZN4core3ptr100drop_in_place$LT$ndarray..dimension..dim..Dim$LT$ndarray..dimension..dynindeximpl..IxDynImpl$GT$$GT$17h2c43b9980fc310c7E', symObjAddr: 0x158, symBinAddr: 0x1C54, symSize: 0x24 }
  - { offset: 0x7F26, size: 0x8, addend: 0x0, symName: '__ZN4core3ptr126drop_in_place$LT$numpy..borrow..PyReadonlyArray$LT$u8$C$ndarray..dimension..dim..Dim$LT$$u5b$usize$u3b$$u20$1$u5d$$GT$$GT$$GT$17h72b1fab123c1f634E', symObjAddr: 0x1A0, symBinAddr: 0x1C78, symSize: 0x24 }
  - { offset: 0x7F55, size: 0x8, addend: 0x0, symName: '__ZN4core3ptr151drop_in_place$LT$ndarray..ArrayBase$LT$ndarray..data_repr..OwnedRepr$LT$u8$GT$$C$ndarray..dimension..dim..Dim$LT$$u5b$usize$u3b$$u20$1$u5d$$GT$$GT$$GT$17hf872f9ac7f8d6c95E', symObjAddr: 0x1E8, symBinAddr: 0x1C9C, symSize: 0x24 }
  - { offset: 0x7F84, size: 0x8, addend: 0x0, symName: '__ZN4core3ptr60drop_in_place$LT$ndarray..data_repr..OwnedRepr$LT$u8$GT$$GT$17ha32a686e179ec0a5E', symObjAddr: 0x260, symBinAddr: 0x1CC0, symSize: 0x24 }
  - { offset: 0x7FB3, size: 0x8, addend: 0x0, symName: '__ZN4core3ptr64drop_in_place$LT$ndarray..dimension..dynindeximpl..IxDynImpl$GT$17h284017a9c7fdd18eE', symObjAddr: 0x284, symBinAddr: 0x1CE4, symSize: 0x24 }
  - { offset: 0x8E6B, size: 0x8, addend: 0x0, symName: '__ZN85_$LT$numpy..borrow..PyReadonlyArray$LT$T$C$D$GT$$u20$as$u20$core..ops..drop..Drop$GT$4drop17he833a903ed284203E', symObjAddr: 0x310, symBinAddr: 0x1D70, symSize: 0x48 }
  - { offset: 0x8F25, size: 0x8, addend: 0x0, symName: '__ZN80_$LT$ndarray..data_repr..OwnedRepr$LT$A$GT$$u20$as$u20$core..ops..drop..Drop$GT$4drop17h217f7e23e40415b8E', symObjAddr: 0x2A8, symBinAddr: 0x1D08, symSize: 0x68 }
  - { offset: 0x9B49, size: 0x8, addend: 0x0, symName: __ZN4core9ub_checks23maybe_is_nonoverlapping7runtime17h1bb6efaea28a083aE, symObjAddr: 0x0, symBinAddr: 0x1DB8, symSize: 0xDC }
  - { offset: 0x9CE8, size: 0x8, addend: 0x0, symName: __ZN4core9ub_checks23maybe_is_nonoverlapping7runtime17h1bb6efaea28a083aE, symObjAddr: 0x0, symBinAddr: 0x1DB8, symSize: 0xDC }
  - { offset: 0x9F17, size: 0x8, addend: 0x0, symName: '__ZN104_$LT$core..iter..adapters..copied..Copied$LT$I$GT$$u20$as$u20$core..iter..traits..iterator..Iterator$GT$4next17he366416f141f1224E', symObjAddr: 0x0, symBinAddr: 0x1E94, symSize: 0x5C }
  - { offset: 0xB077, size: 0x8, addend: 0x0, symName: '__ZN104_$LT$core..iter..adapters..copied..Copied$LT$I$GT$$u20$as$u20$core..iter..traits..iterator..Iterator$GT$4next17he366416f141f1224E', symObjAddr: 0x0, symBinAddr: 0x1E94, symSize: 0x5C }
  - { offset: 0xB118, size: 0x8, addend: 0x0, symName: '__ZN63_$LT$I$u20$as$u20$core..iter..traits..collect..IntoIterator$GT$9into_iter17h41611a9fdef6639bE', symObjAddr: 0x5C, symBinAddr: 0x1EF0, symSize: 0x1C }
  - { offset: 0xB6C7, size: 0x8, addend: 0x0, symName: '__ZN4core5slice29_$LT$impl$u20$$u5b$T$u5d$$GT$8iter_mut17hc7df3d022342b955E', symObjAddr: 0x0, symBinAddr: 0x1F0C, symSize: 0x28 }
  - { offset: 0xB6E3, size: 0x8, addend: 0x0, symName: '__ZN4core5slice29_$LT$impl$u20$$u5b$T$u5d$$GT$8iter_mut17hc7df3d022342b955E', symObjAddr: 0x0, symBinAddr: 0x1F0C, symSize: 0x28 }
  - { offset: 0xB80E, size: 0x8, addend: 0x0, symName: __ZN7ndarray9dimension11is_layout_c17h52e78753d3b6b71bE, symObjAddr: 0x0, symBinAddr: 0x1F34, symSize: 0x280 }
  - { offset: 0xBEFA, size: 0x8, addend: 0x0, symName: __ZN7ndarray9dimension11is_layout_c17h52e78753d3b6b71bE, symObjAddr: 0x0, symBinAddr: 0x1F34, symSize: 0x280 }
  - { offset: 0xBFDC, size: 0x8, addend: 0x0, symName: __ZN7ndarray9dimension15can_index_slice17h6dfcd3f33fd31d7eE, symObjAddr: 0x280, symBinAddr: 0x21B4, symSize: 0xB0 }
  - { offset: 0xC0D8, size: 0x8, addend: 0x0, symName: __ZN7ndarray9dimension16do_collapse_axis17h659f9ddce05506e4E, symObjAddr: 0x330, symBinAddr: 0x2264, symSize: 0x240 }
  - { offset: 0xC348, size: 0x8, addend: 0x0, symName: __ZN7ndarray9dimension18dim_stride_overlap17hb1dab24d60387614E, symObjAddr: 0x570, symBinAddr: 0x24A4, symSize: 0x2DC }
  - { offset: 0xC495, size: 0x8, addend: 0x0, symName: __ZN7ndarray9dimension20can_index_slice_impl17hc860248de9d1ecbdE, symObjAddr: 0x84C, symBinAddr: 0x2780, symSize: 0x118 }
  - { offset: 0xC511, size: 0x8, addend: 0x0, symName: '__ZN7ndarray9dimension20can_index_slice_impl28_$u7b$$u7b$closure$u7d$$u7d$17h48a6d4de66eb7dcfE', symObjAddr: 0x964, symBinAddr: 0x2898, symSize: 0x28 }
  - { offset: 0xC575, size: 0x8, addend: 0x0, symName: __ZN7ndarray9dimension20strides_non_negative17h46a015515da8bf79E, symObjAddr: 0x98C, symBinAddr: 0x28C0, symSize: 0x8C }
  - { offset: 0xC5D8, size: 0x8, addend: 0x0, symName: __ZN7ndarray9dimension21size_of_shape_checked17h295298c7b2322277E, symObjAddr: 0xA18, symBinAddr: 0x294C, symSize: 0xE4 }
  - { offset: 0xC643, size: 0x8, addend: 0x0, symName: '__ZN7ndarray9dimension21size_of_shape_checked28_$u7b$$u7b$closure$u7d$$u7d$17h0b9cdbcc3df1e779E', symObjAddr: 0xAFC, symBinAddr: 0x2A30, symSize: 0x3C }
  - { offset: 0xC6A9, size: 0x8, addend: 0x0, symName: '__ZN7ndarray9dimension21size_of_shape_checked28_$u7b$$u7b$closure$u7d$$u7d$17hc0929e971ab38c13E', symObjAddr: 0xB38, symBinAddr: 0x2A6C, symSize: 0x1C }
  - { offset: 0xC6DA, size: 0x8, addend: 0x0, symName: '__ZN7ndarray9dimension21size_of_shape_checked28_$u7b$$u7b$closure$u7d$$u7d$17hc8339bcfff641935E', symObjAddr: 0xB54, symBinAddr: 0x2A88, symSize: 0x2C }
  - { offset: 0xC748, size: 0x8, addend: 0x0, symName: __ZN7ndarray9dimension29max_abs_offset_check_overflow17h16fcfe5add0ca920E, symObjAddr: 0xB80, symBinAddr: 0x2AB4, symSize: 0x40 }
  - { offset: 0xC794, size: 0x8, addend: 0x0, symName: __ZN7ndarray9dimension34max_abs_offset_check_overflow_impl17hd5c82f1bc001c8baE, symObjAddr: 0xBC0, symBinAddr: 0x2AF4, symSize: 0x260 }
  - { offset: 0xC869, size: 0x8, addend: 0x0, symName: '__ZN7ndarray9dimension34max_abs_offset_check_overflow_impl28_$u7b$$u7b$closure$u7d$$u7d$17h4468d404cc0106f2E', symObjAddr: 0xE20, symBinAddr: 0x2D54, symSize: 0x1C }
  - { offset: 0xC89A, size: 0x8, addend: 0x0, symName: '__ZN7ndarray9dimension34max_abs_offset_check_overflow_impl28_$u7b$$u7b$closure$u7d$$u7d$17hd4d0848347e0e3caE', symObjAddr: 0xE3C, symBinAddr: 0x2D70, symSize: 0x1C }
  - { offset: 0xC8CB, size: 0x8, addend: 0x0, symName: '__ZN7ndarray9dimension34max_abs_offset_check_overflow_impl28_$u7b$$u7b$closure$u7d$$u7d$17hdf18b2a983aca93bE', symObjAddr: 0xE58, symBinAddr: 0x2D8C, symSize: 0xD0 }
  - { offset: 0xC9CB, size: 0x8, addend: 0x0, symName: __ZN7ndarray9dimension39offset_from_low_addr_ptr_to_logical_ptr17h7f8c1f496b9f0301E, symObjAddr: 0xF28, symBinAddr: 0x2E5C, symSize: 0x9C }
  - { offset: 0xCA34, size: 0x8, addend: 0x0, symName: '__ZN7ndarray9dimension39offset_from_low_addr_ptr_to_logical_ptr28_$u7b$$u7b$closure$u7d$$u7d$17hd088b276738a5c1eE', symObjAddr: 0xFC4, symBinAddr: 0x2EF8, symSize: 0xFC }
  - { offset: 0xCDA4, size: 0x8, addend: 0x0, symName: __ZN18turboquant_storage9pack_3bit17h0f6fb1cd951d7eaaE, symObjAddr: 0x0, symBinAddr: 0x2FF4, symSize: 0x5DC }
  - { offset: 0xEC4E, size: 0x8, addend: 0x0, symName: __ZN18turboquant_storage9pack_3bit17h0f6fb1cd951d7eaaE, symObjAddr: 0x0, symBinAddr: 0x2FF4, symSize: 0x5DC }
  - { offset: 0xEDAD, size: 0x8, addend: 0x0, symName: '__ZN18turboquant_storage1_56_$LT$impl$u20$turboquant_storage..pack_3bit..MakeDef$GT$3DEF10trampoline17he2805879ccdbbb0fE', symObjAddr: 0x5DC, symBinAddr: 0x35D0, symSize: 0x50 }
  - { offset: 0xEE03, size: 0x8, addend: 0x0, symName: '__ZN18turboquant_storage1_58_$LT$impl$u20$turboquant_storage..unpack_3bit..MakeDef$GT$3DEF10trampoline17h23138fba63c1946dE', symObjAddr: 0x1004, symBinAddr: 0x3FF8, symSize: 0x50 }
  - { offset: 0xEE5B, size: 0x8, addend: 0x0, symName: __ZN18turboquant_storage1_22__pyfunction_pack_3bit17h71ef6c387e3d2a60E, symObjAddr: 0x62C, symBinAddr: 0x3620, symSize: 0x19C }
  - { offset: 0xEF62, size: 0x8, addend: 0x0, symName: __ZN18turboquant_storage1_24__pyfunction_unpack_3bit17h337292d6b50e3184E, symObjAddr: 0x1054, symBinAddr: 0x4048, symSize: 0x2C0 }
  - { offset: 0xF098, size: 0x8, addend: 0x0, symName: __ZN18turboquant_storage11unpack_3bit17h28f8771ab61d05ffE, symObjAddr: 0x7C8, symBinAddr: 0x37BC, symSize: 0x83C }
  - { offset: 0xF239, size: 0x8, addend: 0x0, symName: __ZN18turboquant_storage18turboquant_storage17he258d947ba1c80f0E, symObjAddr: 0x1314, symBinAddr: 0x4308, symSize: 0x1AC }
  - { offset: 0xF428, size: 0x8, addend: 0x0, symName: '__ZN49_$LT$T$u20$as$u20$core..array..SpecArrayClone$GT$5clone17h8c1baa91f666114bE', symObjAddr: 0x0, symBinAddr: 0x44B4, symSize: 0x20 }
  - { offset: 0xF506, size: 0x8, addend: 0x0, symName: '__ZN49_$LT$T$u20$as$u20$core..array..SpecArrayClone$GT$5clone17h8c1baa91f666114bE', symObjAddr: 0x0, symBinAddr: 0x44B4, symSize: 0x20 }
  - { offset: 0xF585, size: 0x8, addend: 0x0, symName: '__ZN4core5array69_$LT$impl$u20$core..fmt..Debug$u20$for$u20$$u5b$T$u3b$$u20$N$u5d$$GT$3fmt17h2a608ca9e2fe71d3E', symObjAddr: 0x20, symBinAddr: 0x44D4, symSize: 0x58 }
  - { offset: 0xF61D, size: 0x8, addend: 0x0, symName: '__ZN4core5array71_$LT$impl$u20$core..clone..Clone$u20$for$u20$$u5b$T$u3b$$u20$N$u5d$$GT$5clone17h60e13eb53f8e308eE', symObjAddr: 0x78, symBinAddr: 0x452C, symSize: 0x34 }
  - { offset: 0xF65A, size: 0x8, addend: 0x0, symName: '__ZN4core5array75_$LT$impl$u20$core..default..Default$u20$for$u20$$u5b$T$u3b$$u20$_$u5d$$GT$7default17h3622980a395d52cfE', symObjAddr: 0xAC, symBinAddr: 0x4560, symSize: 0x14 }
  - { offset: 0xF879, size: 0x8, addend: 0x0, symName: '__ZN132_$LT$usize$u20$as$u20$ndarray..dimension..ndindex..NdIndex$LT$ndarray..dimension..dim..Dim$LT$$u5b$usize$u3b$$u20$1$u5d$$GT$$GT$$GT$13index_checked17ha8e13754d3bb3342E', symObjAddr: 0x0, symBinAddr: 0x4574, symSize: 0x7C }
  - { offset: 0xF8E0, size: 0x8, addend: 0x0, symName: '__ZN132_$LT$usize$u20$as$u20$ndarray..dimension..ndindex..NdIndex$LT$ndarray..dimension..dim..Dim$LT$$u5b$usize$u3b$$u20$1$u5d$$GT$$GT$$GT$13index_checked17ha8e13754d3bb3342E', symObjAddr: 0x0, symBinAddr: 0x4574, symSize: 0x7C }
  - { offset: 0xFA18, size: 0x8, addend: 0x0, symName: _PyInit_turboquant_storage, symObjAddr: 0x0, symBinAddr: 0x45F0, symSize: 0x34 }
  - { offset: 0xFA3C, size: 0x8, addend: 0x0, symName: __ZN18turboquant_storage18turboquant_storage3DEF17h547ca572faabef08E, symObjAddr: 0x58, symBinAddr: 0xE43A8, symSize: 0x0 }
  - { offset: 0xFA49, size: 0x8, addend: 0x0, symName: _PyInit_turboquant_storage, symObjAddr: 0x0, symBinAddr: 0x45F0, symSize: 0x34 }
  - { offset: 0x11925, size: 0x8, addend: 0x0, symName: __ZN5numpy13untyped_array14PyUntypedArray12as_array_ptr17h77386dad59d2a816E, symObjAddr: 0x0, symBinAddr: 0x4624, symSize: 0x24 }
  - { offset: 0x13489, size: 0x8, addend: 0x0, symName: '__ZN80_$LT$numpy..untyped_array..PyUntypedArray$u20$as$u20$core..ops..deref..Deref$GT$5deref17ha40b24f9824555d0E', symObjAddr: 0x1D4, symBinAddr: 0x47F8, symSize: 0x14 }
  - { offset: 0x134BB, size: 0x8, addend: 0x0, symName: '__ZN86_$LT$numpy..untyped_array..PyUntypedArray$u20$as$u20$pyo3..conversion..AsPyPointer$GT$6as_ptr17hd83668e9f60aeceaE', symObjAddr: 0x1E8, symBinAddr: 0x480C, symSize: 0x24 }
  - { offset: 0x13D16, size: 0x8, addend: 0x0, symName: __ZN5numpy13untyped_array14PyUntypedArray12as_array_ptr17h77386dad59d2a816E, symObjAddr: 0x0, symBinAddr: 0x4624, symSize: 0x24 }
  - { offset: 0x13D38, size: 0x8, addend: 0x0, symName: __ZN5numpy13untyped_array14PyUntypedArray4ndim17h1123fe30f469821aE, symObjAddr: 0x24, symBinAddr: 0x4648, symSize: 0x58 }
  - { offset: 0x13D81, size: 0x8, addend: 0x0, symName: __ZN5numpy13untyped_array14PyUntypedArray5shape17h95f6287768bc03c8E, symObjAddr: 0x7C, symBinAddr: 0x46A0, symSize: 0xAC }
  - { offset: 0x13E11, size: 0x8, addend: 0x0, symName: __ZN5numpy13untyped_array14PyUntypedArray7strides17h17eb59bebba83cdeE, symObjAddr: 0x128, symBinAddr: 0x474C, symSize: 0xAC }
  - { offset: 0x13EB2, size: 0x8, addend: 0x0, symName: __ZN4pyo33gil7GILPool3new17h800067e3e469ba2eE, symObjAddr: 0x0, symBinAddr: 0x4830, symSize: 0x3C }
  - { offset: 0x140AB, size: 0x8, addend: 0x0, symName: __ZN4pyo33gil7GILPool3new17h800067e3e469ba2eE, symObjAddr: 0x0, symBinAddr: 0x4830, symSize: 0x3C }
  - { offset: 0x140E1, size: 0x8, addend: 0x0, symName: __ZN4pyo33gil7GILPool6python17h28dd542ed44356a8E, symObjAddr: 0x3C, symBinAddr: 0x486C, symSize: 0x20 }
  - { offset: 0x14122, size: 0x8, addend: 0x0, symName: __ZN4pyo35impl_5panic9PanicTrap3new17h01ce2f1dd0fae021E, symObjAddr: 0x0, symBinAddr: 0x488C, symSize: 0x18 }
  - { offset: 0x141B1, size: 0x8, addend: 0x0, symName: __ZN4pyo35impl_5panic9PanicTrap3new17h01ce2f1dd0fae021E, symObjAddr: 0x0, symBinAddr: 0x488C, symSize: 0x18 }
  - { offset: 0x141D3, size: 0x8, addend: 0x0, symName: __ZN4pyo35impl_5panic9PanicTrap6disarm17h4936fa25c363d559E, symObjAddr: 0x18, symBinAddr: 0x48A4, symSize: 0x28 }
  - { offset: 0x14213, size: 0x8, addend: 0x0, symName: __ZN4core4iter6traits8iterator8Iterator3zip17h1336732c042ed170E, symObjAddr: 0x0, symBinAddr: 0x48CC, symSize: 0xCC }
  - { offset: 0x142E0, size: 0x8, addend: 0x0, symName: '__ZN98_$LT$core..iter..adapters..rev..Rev$LT$I$GT$$u20$as$u20$core..iter..traits..iterator..Iterator$GT$4next17h3a1745dd843c07d0E', symObjAddr: 0xE8, symBinAddr: 0x49B4, symSize: 0x24 }
  - { offset: 0x14327, size: 0x8, addend: 0x0, symName: __ZN4core4iter6traits8iterator8Iterator3zip17h1336732c042ed170E, symObjAddr: 0x0, symBinAddr: 0x48CC, symSize: 0xCC }
  - { offset: 0x143A9, size: 0x8, addend: 0x0, symName: '__ZN63_$LT$I$u20$as$u20$core..iter..traits..collect..IntoIterator$GT$9into_iter17hde3879fb0ee8d945E', symObjAddr: 0xCC, symBinAddr: 0x4998, symSize: 0x1C }
  - { offset: 0x14552, size: 0x8, addend: 0x0, symName: '__ZN5alloc3vec12Vec$LT$T$GT$14from_raw_parts17h5c28472010a3bbf2E', symObjAddr: 0x0, symBinAddr: 0x49D8, symSize: 0x54 }
  - { offset: 0x146EA, size: 0x8, addend: 0x0, symName: __ZN5alloc3vec9from_elem17he3cd11dbb68a8ef0E, symObjAddr: 0x124, symBinAddr: 0x4AFC, symSize: 0x24 }
  - { offset: 0x14AA5, size: 0x8, addend: 0x0, symName: '__ZN5alloc3vec12Vec$LT$T$GT$14from_raw_parts17h5c28472010a3bbf2E', symObjAddr: 0x0, symBinAddr: 0x49D8, symSize: 0x54 }
  - { offset: 0x14BB7, size: 0x8, addend: 0x0, symName: '__ZN5alloc3vec12Vec$LT$T$GT$3new17h4164308964d6b4e1E', symObjAddr: 0x54, symBinAddr: 0x4A2C, symSize: 0x28 }
  - { offset: 0x14D20, size: 0x8, addend: 0x0, symName: '__ZN5alloc3vec16Vec$LT$T$C$A$GT$10as_mut_ptr17h5315c7ef5365c41bE', symObjAddr: 0x7C, symBinAddr: 0x4A54, symSize: 0x30 }
  - { offset: 0x14DF7, size: 0x8, addend: 0x0, symName: '__ZN5alloc3vec16Vec$LT$T$C$A$GT$3len17hc5b827c369e2fd79E', symObjAddr: 0xAC, symBinAddr: 0x4A84, symSize: 0x18 }
  - { offset: 0x14E2C, size: 0x8, addend: 0x0, symName: '__ZN5alloc3vec16Vec$LT$T$C$A$GT$7set_len17h11dff7eafac01a4dE', symObjAddr: 0xC4, symBinAddr: 0x4A9C, symSize: 0x1C }
  - { offset: 0x14EBD, size: 0x8, addend: 0x0, symName: '__ZN5alloc3vec16Vec$LT$T$C$A$GT$8capacity17h4224e4cdad172237E', symObjAddr: 0xE0, symBinAddr: 0x4AB8, symSize: 0x44 }
  - { offset: 0x14F69, size: 0x8, addend: 0x0, symName: '__ZN106_$LT$numpy..array..PyArray$LT$T$C$D$GT$$u20$as$u20$core..convert..AsRef$LT$pyo3..types..any..PyAny$GT$$GT$6as_ref17h9aeecd4f29e1c3f5E', symObjAddr: 0x0, symBinAddr: 0x4B20, symSize: 0x14 }
  - { offset: 0x14FB1, size: 0x8, addend: 0x0, symName: '__ZN106_$LT$numpy..array..PyArray$LT$T$C$D$GT$$u20$as$u20$core..convert..AsRef$LT$pyo3..types..any..PyAny$GT$$GT$6as_ref17h9aeecd4f29e1c3f5E', symObjAddr: 0x0, symBinAddr: 0x4B20, symSize: 0x14 }
  - { offset: 0x15228, size: 0x8, addend: 0x0, symName: '__ZN5numpy5array20PyArray$LT$T$C$D$GT$8as_array28_$u7b$$u7b$closure$u7d$$u7d$17h4d6e2f5c64d8357aE', symObjAddr: 0x1050, symBinAddr: 0x5B58, symSize: 0x24 }
  - { offset: 0x15289, size: 0x8, addend: 0x0, symName: '__ZN5numpy5array20PyArray$LT$T$C$D$GT$7as_view5inner17h2a6e17370c41a907E', symObjAddr: 0x844, symBinAddr: 0x5364, symSize: 0x600 }
  - { offset: 0x1545C, size: 0x8, addend: 0x0, symName: '__ZN5numpy5array20PyArray$LT$T$C$D$GT$7as_view5inner18panic_cold_display17h310989b61994bb9fE', symObjAddr: 0xE44, symBinAddr: 0x91110, symSize: 0x18 }
  - { offset: 0x15495, size: 0x8, addend: 0x0, symName: '__ZN78_$LT$numpy..array..PyArray$LT$T$C$D$GT$$u20$as$u20$core..ops..deref..Deref$GT$5deref17h747c429f103c8007E', symObjAddr: 0x1100, symBinAddr: 0x5C08, symSize: 0x1C }
  - { offset: 0x154D9, size: 0x8, addend: 0x0, symName: '__ZN89_$LT$$RF$numpy..array..PyArray$LT$T$C$D$GT$$u20$as$u20$pyo3..conversion..FromPyObject$GT$7extract17h52584661a5c23e0dE', symObjAddr: 0x111C, symBinAddr: 0x5C24, symSize: 0x24 }
  - { offset: 0x16D81, size: 0x8, addend: 0x0, symName: '__ZN107_$LT$$RF$T$u20$as$u20$pyo3..conversion..IntoPy$LT$pyo3..instance..Py$LT$pyo3..types..any..PyAny$GT$$GT$$GT$7into_py17hf64d8cfdaf5cfc54E', symObjAddr: 0x14, symBinAddr: 0x4B34, symSize: 0x2C }
  - { offset: 0x16DD8, size: 0x8, addend: 0x0, symName: __ZN4pyo310conversion13FromPyPointer14from_owned_ptr17h473b3aa2df704c22E, symObjAddr: 0x40, symBinAddr: 0x4B60, symSize: 0x24 }
  - { offset: 0x16E29, size: 0x8, addend: 0x0, symName: __ZN4pyo310conversion13FromPyPointer23from_owned_ptr_or_panic17h9bf685c6d716dedaE, symObjAddr: 0x64, symBinAddr: 0x4B84, symSize: 0x34 }
  - { offset: 0x16E80, size: 0x8, addend: 0x0, symName: '__ZN53_$LT$T$u20$as$u20$pyo3..conversion..FromPyPointer$GT$21from_owned_ptr_or_opt17h713492504f024b60E', symObjAddr: 0x98, symBinAddr: 0x4BB8, symSize: 0x70 }
  - { offset: 0x16EFF, size: 0x8, addend: 0x0, symName: '__ZN56_$LT$T$u20$as$u20$pyo3..impl_..wrap..OkWrap$LT$T$GT$$GT$4wrap17h3bfeeb2f7945eca0E', symObjAddr: 0x108, symBinAddr: 0x4C28, symSize: 0x34 }
  - { offset: 0x179D7, size: 0x8, addend: 0x0, symName: '__ZN5numpy5array20PyArray$LT$T$C$D$GT$12try_readonly17h2517399f472e1a27E', symObjAddr: 0x13C, symBinAddr: 0x4C5C, symSize: 0x24 }
  - { offset: 0x17A78, size: 0x8, addend: 0x0, symName: '__ZN5numpy5array20PyArray$LT$T$C$D$GT$13new_with_data17ha9369b037f89546dE', symObjAddr: 0x160, symBinAddr: 0x4C80, symSize: 0x160 }
  - { offset: 0x17BA8, size: 0x8, addend: 0x0, symName: '__ZN5numpy5array20PyArray$LT$T$C$D$GT$14from_owned_ptr17h07fccf9a12ea74a8E', symObjAddr: 0x2C0, symBinAddr: 0x4DE0, symSize: 0x24 }
  - { offset: 0x17C1F, size: 0x8, addend: 0x0, symName: '__ZN5numpy5array20PyArray$LT$T$C$D$GT$14from_raw_parts17h4137f8de4f44022eE', symObjAddr: 0x2E4, symBinAddr: 0x4E04, symSize: 0xF0 }
  - { offset: 0x17D1C, size: 0x8, addend: 0x0, symName: '__ZN5numpy5array20PyArray$LT$T$C$D$GT$16from_owned_array17h77d402ce02061ae7E', symObjAddr: 0x3D4, symBinAddr: 0x4EF4, symSize: 0x1D4 }
  - { offset: 0x17E19, size: 0x8, addend: 0x0, symName: '__ZN5numpy5array20PyArray$LT$T$C$D$GT$7as_view17h539f43b98c731ae2E', symObjAddr: 0x5A8, symBinAddr: 0x50C8, symSize: 0x29C }
  - { offset: 0x18014, size: 0x8, addend: 0x0, symName: '__ZN5numpy5array20PyArray$LT$T$C$D$GT$7extract17h4fc999dd3ce386daE', symObjAddr: 0xE5C, symBinAddr: 0x5964, symSize: 0x1D0 }
  - { offset: 0x180BF, size: 0x8, addend: 0x0, symName: '__ZN5numpy5array20PyArray$LT$T$C$D$GT$8as_array17h8a2c8348f8ade51bE', symObjAddr: 0x102C, symBinAddr: 0x5B34, symSize: 0x24 }
  - { offset: 0x1816A, size: 0x8, addend: 0x0, symName: '__ZN5numpy5array20PyArray$LT$T$C$D$GT$8readonly17hd0d29f1d0f095b89E', symObjAddr: 0x1074, symBinAddr: 0x5B7C, symSize: 0x8C }
  - { offset: 0x18282, size: 0x8, addend: 0x0, symName: '__ZN4core3fmt3num52_$LT$impl$u20$core..fmt..Debug$u20$for$u20$usize$GT$3fmt17hcba3250f7da1b112E', symObjAddr: 0x0, symBinAddr: 0x5C48, symSize: 0x90 }
  - { offset: 0x1834A, size: 0x8, addend: 0x0, symName: '__ZN4core3fmt3num52_$LT$impl$u20$core..fmt..Debug$u20$for$u20$usize$GT$3fmt17hcba3250f7da1b112E', symObjAddr: 0x0, symBinAddr: 0x5C48, symSize: 0x90 }
  - { offset: 0x185A3, size: 0x8, addend: 0x0, symName: '__ZN106_$LT$core..ops..range..Range$LT$usize$GT$$u20$as$u20$core..slice..index..SliceIndex$LT$$u5b$T$u5d$$GT$$GT$13get_unchecked18precondition_check17h410266c8f9dd2abcE', symObjAddr: 0x0, symBinAddr: 0x5CD8, symSize: 0x60 }
  - { offset: 0x185C9, size: 0x8, addend: 0x0, symName: '__ZN106_$LT$core..ops..range..Range$LT$usize$GT$$u20$as$u20$core..slice..index..SliceIndex$LT$$u5b$T$u5d$$GT$$GT$13get_unchecked18precondition_check17h410266c8f9dd2abcE', symObjAddr: 0x0, symBinAddr: 0x5CD8, symSize: 0x60 }
  - { offset: 0x18637, size: 0x8, addend: 0x0, symName: '__ZN7ndarray9dimension15dimension_trait9Dimension15fortran_strides28_$u7b$$u7b$closure$u7d$$u7d$17h3cbf8dc3e62c3daeE', symObjAddr: 0x0, symBinAddr: 0x5D38, symSize: 0x28 }
  - { offset: 0x1865D, size: 0x8, addend: 0x0, symName: '__ZN7ndarray9dimension15dimension_trait9Dimension15fortran_strides28_$u7b$$u7b$closure$u7d$$u7d$17h3cbf8dc3e62c3daeE', symObjAddr: 0x0, symBinAddr: 0x5D38, symSize: 0x28 }
  - { offset: 0x1873F, size: 0x8, addend: 0x0, symName: __ZN4pyo35impl_10trampoline10trampoline17hd3e53ffc4dd30d52E, symObjAddr: 0x0, symBinAddr: 0x5D60, symSize: 0x158 }
  - { offset: 0x19B67, size: 0x8, addend: 0x0, symName: __ZN4pyo35impl_10trampoline10trampoline17hd3e53ffc4dd30d52E, symObjAddr: 0x0, symBinAddr: 0x5D60, symSize: 0x158 }
  - { offset: 0x19C09, size: 0x8, addend: 0x0, symName: __ZN4pyo35impl_10trampoline10trampoline17hff1aa2e917967ae2E, symObjAddr: 0x158, symBinAddr: 0x5EB8, symSize: 0x16C }
  - { offset: 0x19CB2, size: 0x8, addend: 0x0, symName: '__ZN4pyo35impl_10trampoline10trampoline28_$u7b$$u7b$closure$u7d$$u7d$17hc89ffce07585ac89E', symObjAddr: 0x2C4, symBinAddr: 0x6024, symSize: 0x24 }
  - { offset: 0x19CFF, size: 0x8, addend: 0x0, symName: '__ZN4pyo35impl_10trampoline10trampoline28_$u7b$$u7b$closure$u7d$$u7d$17hf7038ae5759424d8E', symObjAddr: 0x2E8, symBinAddr: 0x6048, symSize: 0x40 }
  - { offset: 0x19D53, size: 0x8, addend: 0x0, symName: '__ZN4pyo35impl_10trampoline11module_init28_$u7b$$u7b$closure$u7d$$u7d$17h795358fd03a676ecE', symObjAddr: 0x328, symBinAddr: 0x6088, symSize: 0x40 }
  - { offset: 0x19D9E, size: 0x8, addend: 0x0, symName: '__ZN4pyo35impl_10trampoline11module_init28_$u7b$$u7b$closure$u7d$$u7d$28_$u7b$$u7b$closure$u7d$$u7d$17hc467e2960e8e9bf4E', symObjAddr: 0x368, symBinAddr: 0x60C8, symSize: 0x24 }
  - { offset: 0x19DF5, size: 0x8, addend: 0x0, symName: '__ZN4pyo35impl_10trampoline22fastcall_with_keywords28_$u7b$$u7b$closure$u7d$$u7d$17hd216dc2fb41486e9E', symObjAddr: 0x38C, symBinAddr: 0x60EC, symSize: 0x48 }
  - { offset: 0x1A73C, size: 0x8, addend: 0x0, symName: '__ZN42_$LT$$RF$T$u20$as$u20$core..fmt..Debug$GT$3fmt17h309a459a32dd56f6E', symObjAddr: 0x0, symBinAddr: 0x6134, symSize: 0x3C }
  - { offset: 0x1A782, size: 0x8, addend: 0x0, symName: '__ZN42_$LT$$RF$T$u20$as$u20$core..fmt..Debug$GT$3fmt17h309a459a32dd56f6E', symObjAddr: 0x0, symBinAddr: 0x6134, symSize: 0x3C }
  - { offset: 0x1A7CE, size: 0x8, addend: 0x0, symName: '__ZN48_$LT$$u5b$T$u5d$$u20$as$u20$core..fmt..Debug$GT$3fmt17hbfedad3476d5b7eeE', symObjAddr: 0x3C, symBinAddr: 0x6170, symSize: 0x88 }
  - { offset: 0x1ADF2, size: 0x8, addend: 0x0, symName: '__ZN50_$LT$T$u20$as$u20$core..convert..Into$LT$U$GT$$GT$4into17h9d99fe395ece85c2E', symObjAddr: 0x0, symBinAddr: 0x61F8, symSize: 0x18 }
  - { offset: 0x1AFB1, size: 0x8, addend: 0x0, symName: '__ZN50_$LT$T$u20$as$u20$core..convert..Into$LT$U$GT$$GT$4into17h9d99fe395ece85c2E', symObjAddr: 0x0, symBinAddr: 0x61F8, symSize: 0x18 }
  - { offset: 0x1B00F, size: 0x8, addend: 0x0, symName: '__ZN50_$LT$T$u20$as$u20$core..convert..Into$LT$U$GT$$GT$4into17haea44cd35e6d7071E', symObjAddr: 0x18, symBinAddr: 0x6210, symSize: 0x14 }
  - { offset: 0x1B2D1, size: 0x8, addend: 0x0, symName: '__ZN58_$LT$T$u20$as$u20$ndarray..shape_builder..ShapeBuilder$GT$10into_shape17hce7a1ac177d5cbafE', symObjAddr: 0x2C, symBinAddr: 0x6224, symSize: 0x84 }
  - { offset: 0x1B41A, size: 0x8, addend: 0x0, symName: '__ZN93_$LT$ndarray..shape_builder..StrideShape$LT$D$GT$$u20$as$u20$core..convert..From$LT$T$GT$$GT$4from17h88093f3d941127efE', symObjAddr: 0x310, symBinAddr: 0x6508, symSize: 0xAC }
  - { offset: 0x1B48B, size: 0x8, addend: 0x0, symName: '__ZN93_$LT$ndarray..shape_builder..StrideShape$LT$D$GT$$u20$as$u20$core..convert..From$LT$T$GT$$GT$4from17hce2b73ff2b71ab5bE', symObjAddr: 0x3BC, symBinAddr: 0x65B4, symSize: 0x94 }
  - { offset: 0x1B502, size: 0x8, addend: 0x0, symName: '__ZN95_$LT$ndarray..shape_builder..Shape$LT$D$GT$$u20$as$u20$ndarray..shape_builder..ShapeBuilder$GT$10into_shape17h1a903ecd2f40cf07E', symObjAddr: 0x450, symBinAddr: 0x6648, symSize: 0xC }
  - { offset: 0x1B537, size: 0x8, addend: 0x0, symName: '__ZN95_$LT$ndarray..shape_builder..Shape$LT$D$GT$$u20$as$u20$ndarray..shape_builder..ShapeBuilder$GT$7strides17h094834b0a509d71eE', symObjAddr: 0x45C, symBinAddr: 0x6654, symSize: 0x40 }
  - { offset: 0x1B627, size: 0x8, addend: 0x0, symName: '__ZN7ndarray13shape_builder14Shape$LT$D$GT$4is_c17h2f03cc2afb43d08aE', symObjAddr: 0xB0, symBinAddr: 0x62A8, symSize: 0x3C }
  - { offset: 0x1B793, size: 0x8, addend: 0x0, symName: '__ZN7ndarray13shape_builder16Strides$LT$D$GT$15strides_for_dim17h3f605a8b681ba267E', symObjAddr: 0xEC, symBinAddr: 0x62E4, symSize: 0x224 }
  - { offset: 0x1B93C, size: 0x8, addend: 0x0, symName: '__ZN112_$LT$numpy..slice_container..PySliceContainer$u20$as$u20$core..convert..From$LT$alloc..vec..Vec$LT$T$GT$$GT$$GT$4from17hb5d4b39bb2ec0ba0E', symObjAddr: 0x0, symBinAddr: 0x6694, symSize: 0xA4 }
  - { offset: 0x1BB1F, size: 0x8, addend: 0x0, symName: '__ZN112_$LT$numpy..slice_container..PySliceContainer$u20$as$u20$core..convert..From$LT$alloc..vec..Vec$LT$T$GT$$GT$$GT$4from17hb5d4b39bb2ec0ba0E', symObjAddr: 0x0, symBinAddr: 0x6694, symSize: 0xA4 }
  - { offset: 0x1BC08, size: 0x8, addend: 0x0, symName: '__ZN112_$LT$numpy..slice_container..PySliceContainer$u20$as$u20$core..convert..From$LT$alloc..vec..Vec$LT$T$GT$$GT$$GT$4from8drop_vec17h84876a047ef4daa8E', symObjAddr: 0xA4, symBinAddr: 0x6738, symSize: 0x3C }
  - { offset: 0x1BC5C, size: 0x8, addend: 0x0, symName: '__ZN156_$LT$numpy..slice_container..PySliceContainer$u20$as$u20$core..convert..From$LT$ndarray..ArrayBase$LT$ndarray..data_repr..OwnedRepr$LT$A$GT$$C$D$GT$$GT$$GT$4from17h7e3be262d3a78b38E', symObjAddr: 0xE0, symBinAddr: 0x6774, symSize: 0x34 }
  - { offset: 0x1BDF8, size: 0x8, addend: 0x0, symName: '__ZN18turboquant_storage18turboquant_storage4init28_$u7b$$u7b$closure$u7d$$u7d$17hf7bf49ebba6eab75E', symObjAddr: 0x0, symBinAddr: 0x67A8, symSize: 0x28 }
  - { offset: 0x1D1A0, size: 0x8, addend: 0x0, symName: '__ZN18turboquant_storage18turboquant_storage4init28_$u7b$$u7b$closure$u7d$$u7d$17hf7bf49ebba6eab75E', symObjAddr: 0x0, symBinAddr: 0x67A8, symSize: 0x28 }
  - { offset: 0x1D9BA, size: 0x8, addend: 0x0, symName: '__ZN4core5slice29_$LT$impl$u20$$u5b$T$u5d$$GT$18split_at_unchecked18precondition_check17hb273b8df40257db6E', symObjAddr: 0x0, symBinAddr: 0x67D0, symSize: 0x40 }
  - { offset: 0x1D9DB, size: 0x8, addend: 0x0, symName: '__ZN4core5slice29_$LT$impl$u20$$u5b$T$u5d$$GT$18split_at_unchecked18precondition_check17hb273b8df40257db6E', symObjAddr: 0x0, symBinAddr: 0x67D0, symSize: 0x40 }
  - { offset: 0x1DA3A, size: 0x8, addend: 0x0, symName: '__ZN87_$LT$ndarray..dimension..dynindeximpl..IxDynImpl$u20$as$u20$core..ops..deref..Deref$GT$5deref17hef5f5f55ca4cd83eE', symObjAddr: 0x0, symBinAddr: 0x6810, symSize: 0x24 }
  - { offset: 0x1DA5B, size: 0x8, addend: 0x0, symName: '__ZN87_$LT$ndarray..dimension..dynindeximpl..IxDynImpl$u20$as$u20$core..ops..deref..Deref$GT$5deref17hef5f5f55ca4cd83eE', symObjAddr: 0x0, symBinAddr: 0x6810, symSize: 0x24 }
  - { offset: 0x1DBAC, size: 0x8, addend: 0x0, symName: '__ZN135_$LT$ndarray..slice..SliceInfo$LT$T$C$Din$C$Dout$GT$$u20$as$u20$core..convert..AsRef$LT$$u5b$ndarray..slice..SliceInfoElem$u5d$$GT$$GT$6as_ref17h13256d6942f8b71eE', symObjAddr: 0x0, symBinAddr: 0x6834, symSize: 0x24 }
  - { offset: 0x1DC13, size: 0x8, addend: 0x0, symName: '__ZN135_$LT$ndarray..slice..SliceInfo$LT$T$C$Din$C$Dout$GT$$u20$as$u20$core..convert..AsRef$LT$$u5b$ndarray..slice..SliceInfoElem$u5d$$GT$$GT$6as_ref17h13256d6942f8b71eE', symObjAddr: 0x0, symBinAddr: 0x6834, symSize: 0x24 }
  - { offset: 0x1DC62, size: 0x8, addend: 0x0, symName: '__ZN221_$LT$ndarray..slice..SliceInfo$LT$T$C$ndarray..dimension..dim..Dim$LT$$u5b$usize$u3b$$u20$1$u5d$$GT$$C$Dout$GT$$u20$as$u20$ndarray..slice..SliceArg$LT$ndarray..dimension..dim..Dim$LT$$u5b$usize$u3b$$u20$1$u5d$$GT$$GT$$GT$7in_ndim17ha0d31bc18d43fb0bE', symObjAddr: 0x24, symBinAddr: 0x6858, symSize: 0x24 }
  - { offset: 0x1DCA2, size: 0x8, addend: 0x0, symName: '__ZN221_$LT$ndarray..slice..SliceInfo$LT$T$C$ndarray..dimension..dim..Dim$LT$$u5b$usize$u3b$$u20$1$u5d$$GT$$C$Dout$GT$$u20$as$u20$ndarray..slice..SliceArg$LT$ndarray..dimension..dim..Dim$LT$$u5b$usize$u3b$$u20$1$u5d$$GT$$GT$$GT$8out_ndim17h183ecf7ab690e984E', symObjAddr: 0x48, symBinAddr: 0x687C, symSize: 0x24 }
  - { offset: 0x1DD6C, size: 0x8, addend: 0x0, symName: __ZN7ndarray5slice24check_dims_for_sliceinfo17he2d9a646a76f89cdE, symObjAddr: 0x94, symBinAddr: 0x68C8, symSize: 0x10C }
  - { offset: 0x1DF41, size: 0x8, addend: 0x0, symName: '__ZN4core5array92_$LT$impl$u20$core..convert..AsRef$LT$$u5b$T$u5d$$GT$$u20$for$u20$$u5b$T$u3b$$u20$N$u5d$$GT$6as_ref17hdb06f59d3edb11d5E', symObjAddr: 0x6C, symBinAddr: 0x68A0, symSize: 0x28 }
  - { offset: 0x1E121, size: 0x8, addend: 0x0, symName: '__ZN7ndarray5slice31SliceInfo$LT$T$C$Din$C$Dout$GT$13new_unchecked17h1244c89153c9a2ddE', symObjAddr: 0x1A0, symBinAddr: 0x69D4, symSize: 0xA8 }
  - { offset: 0x1E1A1, size: 0x8, addend: 0x0, symName: '__ZN7ndarray5slice31SliceInfo$LT$T$C$Din$C$Dout$GT$7in_ndim17h9d2955991bf533c3E', symObjAddr: 0x248, symBinAddr: 0x6A7C, symSize: 0x74 }
  - { offset: 0x1E1FD, size: 0x8, addend: 0x0, symName: '__ZN7ndarray5slice31SliceInfo$LT$T$C$Din$C$Dout$GT$8out_ndim17h679c704f72d8b3efE', symObjAddr: 0x2BC, symBinAddr: 0x6AF0, symSize: 0x74 }
  - { offset: 0x1E27E, size: 0x8, addend: 0x0, symName: '__ZN50_$LT$T$u20$as$u20$core..convert..Into$LT$U$GT$$GT$4into17h3525e1a079ba6d32E', symObjAddr: 0x0, symBinAddr: 0x6B64, symSize: 0x14 }
  - { offset: 0x1EA3F, size: 0x8, addend: 0x0, symName: '__ZN50_$LT$T$u20$as$u20$core..convert..Into$LT$U$GT$$GT$4into17h3525e1a079ba6d32E', symObjAddr: 0x0, symBinAddr: 0x6B64, symSize: 0x14 }
  - { offset: 0x1EA70, size: 0x8, addend: 0x0, symName: '__ZN50_$LT$T$u20$as$u20$core..convert..Into$LT$U$GT$$GT$4into17h3525e1a079ba6d32E', symObjAddr: 0x0, symBinAddr: 0x6B64, symSize: 0x14 }
  - { offset: 0x1FC0A, size: 0x8, addend: 0x0, symName: '__ZN115_$LT$ndarray..slice..SliceInfoElem$u20$as$u20$core..convert..From$LT$core..ops..range..RangeTo$LT$usize$GT$$GT$$GT$4from17h49b0b035c081193bE', symObjAddr: 0x0, symBinAddr: 0x6B78, symSize: 0x38 }
  - { offset: 0x1FC26, size: 0x8, addend: 0x0, symName: '__ZN115_$LT$ndarray..slice..SliceInfoElem$u20$as$u20$core..convert..From$LT$core..ops..range..RangeTo$LT$usize$GT$$GT$$GT$4from17h49b0b035c081193bE', symObjAddr: 0x0, symBinAddr: 0x6B78, symSize: 0x38 }
  - { offset: 0x1FDA9, size: 0x8, addend: 0x0, symName: '__ZN5alloc7raw_vec19RawVec$LT$T$C$A$GT$17from_raw_parts_in17h7f60e94c7e035b51E', symObjAddr: 0x0, symBinAddr: 0x6BB0, symSize: 0x64 }
  - { offset: 0x20062, size: 0x8, addend: 0x0, symName: '__ZN5alloc7raw_vec19RawVec$LT$T$C$A$GT$17from_raw_parts_in17h7f60e94c7e035b51E', symObjAddr: 0x0, symBinAddr: 0x6BB0, symSize: 0x64 }
  - { offset: 0x201B4, size: 0x8, addend: 0x0, symName: __ZN4core5slice3raw14from_raw_parts18precondition_check17hefcd882a62892ce5E, symObjAddr: 0x0, symBinAddr: 0x6C14, symSize: 0x16C }
  - { offset: 0x206DE, size: 0x8, addend: 0x0, symName: __ZN4core5slice3raw14from_raw_parts18precondition_check17hefcd882a62892ce5E, symObjAddr: 0x0, symBinAddr: 0x6C14, symSize: 0x16C }
  - { offset: 0x20A06, size: 0x8, addend: 0x0, symName: __ZN4core5slice3raw14from_raw_parts17hd821901e96549116E, symObjAddr: 0x0, symBinAddr: 0x6D80, symSize: 0x50 }
  - { offset: 0x2119A, size: 0x8, addend: 0x0, symName: __ZN4core5slice3raw14from_raw_parts17hd821901e96549116E, symObjAddr: 0x0, symBinAddr: 0x6D80, symSize: 0x50 }
  - { offset: 0x211DD, size: 0x8, addend: 0x0, symName: __ZN4core5slice3raw14from_raw_parts17he562e02321c6bf9dE, symObjAddr: 0x50, symBinAddr: 0x6DD0, symSize: 0x50 }
  - { offset: 0x2206A, size: 0x8, addend: 0x0, symName: '__ZN4core3num23_$LT$impl$u20$isize$GT$13unchecked_neg18precondition_check17h51566fe9f83fb4f4E', symObjAddr: 0x0, symBinAddr: 0x6E20, symSize: 0x4C }
  - { offset: 0x220A9, size: 0x8, addend: 0x0, symName: '__ZN4core3num23_$LT$impl$u20$isize$GT$13unchecked_neg18precondition_check17h51566fe9f83fb4f4E', symObjAddr: 0x0, symBinAddr: 0x6E20, symSize: 0x4C }
  - { offset: 0x2210E, size: 0x8, addend: 0x0, symName: '__ZN4core3num23_$LT$impl$u20$isize$GT$3abs17h3546a563c62b37a7E', symObjAddr: 0x4C, symBinAddr: 0x6E6C, symSize: 0x6C }
  - { offset: 0x22142, size: 0x8, addend: 0x0, symName: '__ZN4core3num23_$LT$impl$u20$usize$GT$11checked_add17h4b9a57bf9c80d29fE', symObjAddr: 0xB8, symBinAddr: 0x6ED8, symSize: 0x74 }
  - { offset: 0x221E2, size: 0x8, addend: 0x0, symName: '__ZN4core3num23_$LT$impl$u20$usize$GT$11checked_mul17h7266f66d6f43bb87E', symObjAddr: 0x12C, symBinAddr: 0x6F4C, symSize: 0x78 }
  - { offset: 0x222F8, size: 0x8, addend: 0x0, symName: '__ZN4core3num23_$LT$impl$u20$usize$GT$13unchecked_add18precondition_check17hb513b1bd6ddc0a17E', symObjAddr: 0x1A4, symBinAddr: 0x6FC4, symSize: 0x4C }
  - { offset: 0x22496, size: 0x8, addend: 0x0, symName: __ZN4core4hint16assert_unchecked18precondition_check17h2bec024480f76348E, symObjAddr: 0x0, symBinAddr: 0x7010, symSize: 0x38 }
  - { offset: 0x224B2, size: 0x8, addend: 0x0, symName: __ZN4core4hint16assert_unchecked18precondition_check17h2bec024480f76348E, symObjAddr: 0x0, symBinAddr: 0x7010, symSize: 0x38 }
  - { offset: 0x22502, size: 0x8, addend: 0x0, symName: __ZN4core4iter6traits8iterator8Iterator3zip17h1837ebc8bc930c6cE, symObjAddr: 0x0, symBinAddr: 0x7048, symSize: 0xB4 }
  - { offset: 0x22D53, size: 0x8, addend: 0x0, symName: __ZN4core4iter6traits8iterator8Iterator3zip17h1837ebc8bc930c6cE, symObjAddr: 0x0, symBinAddr: 0x7048, symSize: 0xB4 }
  - { offset: 0x23C6E, size: 0x8, addend: 0x0, symName: '__ZN63_$LT$u8$u20$as$u20$alloc..vec..spec_from_elem..SpecFromElem$GT$9from_elem17h296d987c29d167c5E', symObjAddr: 0x0, symBinAddr: 0x70FC, symSize: 0x168 }
  - { offset: 0x24394, size: 0x8, addend: 0x0, symName: '__ZN63_$LT$u8$u20$as$u20$alloc..vec..spec_from_elem..SpecFromElem$GT$9from_elem17h296d987c29d167c5E', symObjAddr: 0x0, symBinAddr: 0x70FC, symSize: 0x168 }
  - { offset: 0x24887, size: 0x8, addend: 0x0, symName: __ZN4core3fmt8builders9DebugList7entries17h141fe1c7e44e16f0E, symObjAddr: 0x0, symBinAddr: 0x7264, symSize: 0xD0 }
  - { offset: 0x24BBE, size: 0x8, addend: 0x0, symName: __ZN4core3fmt8builders9DebugList7entries17h141fe1c7e44e16f0E, symObjAddr: 0x0, symBinAddr: 0x7264, symSize: 0xD0 }
  - { offset: 0x24C54, size: 0x8, addend: 0x0, symName: __ZN4pyo36marker6Python14from_owned_ptr17hffca4a3530b9a71aE, symObjAddr: 0x0, symBinAddr: 0x7334, symSize: 0x24 }
  - { offset: 0x26446, size: 0x8, addend: 0x0, symName: __ZN4pyo36marker6Python14from_owned_ptr17hffca4a3530b9a71aE, symObjAddr: 0x0, symBinAddr: 0x7334, symSize: 0x24 }
  - { offset: 0x26499, size: 0x8, addend: 0x0, symName: __ZN4pyo36marker6Python24from_borrowed_ptr_or_opt17h04c30e05ce818795E, symObjAddr: 0x24, symBinAddr: 0x7358, symSize: 0x24 }
  - { offset: 0x264FD, size: 0x8, addend: 0x0, symName: '__ZN129_$LT$ndarray..dimension..dim..Dim$LT$$u5b$usize$u3b$$u20$1$u5d$$GT$$u20$as$u20$ndarray..dimension..dimension_trait..Dimension$GT$11first_index17hbbe705043b56435bE', symObjAddr: 0x0, symBinAddr: 0x737C, symSize: 0x90 }
  - { offset: 0x2667D, size: 0x8, addend: 0x0, symName: '__ZN129_$LT$ndarray..dimension..dim..Dim$LT$$u5b$usize$u3b$$u20$1$u5d$$GT$$u20$as$u20$ndarray..dimension..dimension_trait..Dimension$GT$11first_index17hbbe705043b56435bE', symObjAddr: 0x0, symBinAddr: 0x737C, symSize: 0x90 }
  - { offset: 0x266C9, size: 0x8, addend: 0x0, symName: '__ZN129_$LT$ndarray..dimension..dim..Dim$LT$$u5b$usize$u3b$$u20$1$u5d$$GT$$u20$as$u20$ndarray..dimension..dimension_trait..Dimension$GT$15default_strides17h126fee06ae49b72eE', symObjAddr: 0x90, symBinAddr: 0x740C, symSize: 0xAC }
  - { offset: 0x26733, size: 0x8, addend: 0x0, symName: '__ZN129_$LT$ndarray..dimension..dim..Dim$LT$$u5b$usize$u3b$$u20$1$u5d$$GT$$u20$as$u20$ndarray..dimension..dimension_trait..Dimension$GT$21stride_offset_checked17h7f8c7fc0d6656c26E', symObjAddr: 0x13C, symBinAddr: 0x74B8, symSize: 0xCC }
  - { offset: 0x267A5, size: 0x8, addend: 0x0, symName: '__ZN129_$LT$ndarray..dimension..dim..Dim$LT$$u5b$usize$u3b$$u20$1$u5d$$GT$$u20$as$u20$ndarray..dimension..dimension_trait..Dimension$GT$29_fastest_varying_stride_order17he91f86c04abb7674E', symObjAddr: 0x208, symBinAddr: 0x7584, symSize: 0x54 }
  - { offset: 0x267F1, size: 0x8, addend: 0x0, symName: '__ZN129_$LT$ndarray..dimension..dim..Dim$LT$$u5b$usize$u3b$$u20$1$u5d$$GT$$u20$as$u20$ndarray..dimension..dimension_trait..Dimension$GT$4ndim17h3111bca5059262c5E', symObjAddr: 0x25C, symBinAddr: 0x75D8, symSize: 0x18 }
  - { offset: 0x2681F, size: 0x8, addend: 0x0, symName: '__ZN129_$LT$ndarray..dimension..dim..Dim$LT$$u5b$usize$u3b$$u20$1$u5d$$GT$$u20$as$u20$ndarray..dimension..dimension_trait..Dimension$GT$4size17h90536d4730322b6bE', symObjAddr: 0x274, symBinAddr: 0x75F0, symSize: 0x20 }
  - { offset: 0x2684D, size: 0x8, addend: 0x0, symName: '__ZN129_$LT$ndarray..dimension..dim..Dim$LT$$u5b$usize$u3b$$u20$1$u5d$$GT$$u20$as$u20$ndarray..dimension..dimension_trait..Dimension$GT$5equal17heec944c3ae8f2403E', symObjAddr: 0x294, symBinAddr: 0x7610, symSize: 0x3C }
  - { offset: 0x2688A, size: 0x8, addend: 0x0, symName: '__ZN129_$LT$ndarray..dimension..dim..Dim$LT$$u5b$usize$u3b$$u20$1$u5d$$GT$$u20$as$u20$ndarray..dimension..dimension_trait..Dimension$GT$5slice17h78092f0565a3d0acE', symObjAddr: 0x2D0, symBinAddr: 0x764C, symSize: 0x24 }
  - { offset: 0x268B8, size: 0x8, addend: 0x0, symName: '__ZN129_$LT$ndarray..dimension..dim..Dim$LT$$u5b$usize$u3b$$u20$1$u5d$$GT$$u20$as$u20$ndarray..dimension..dimension_trait..Dimension$GT$5zeros17h116a782b6111b30bE', symObjAddr: 0x2F4, symBinAddr: 0x7670, symSize: 0x84 }
  - { offset: 0x26931, size: 0x8, addend: 0x0, symName: '__ZN129_$LT$ndarray..dimension..dim..Dim$LT$$u5b$usize$u3b$$u20$1$u5d$$GT$$u20$as$u20$ndarray..dimension..dimension_trait..Dimension$GT$8next_for17h3d5bd3374c00e35dE', symObjAddr: 0x378, symBinAddr: 0x76F4, symSize: 0xB8 }
  - { offset: 0x2696E, size: 0x8, addend: 0x0, symName: '__ZN129_$LT$ndarray..dimension..dim..Dim$LT$$u5b$usize$u3b$$u20$1$u5d$$GT$$u20$as$u20$ndarray..dimension..dimension_trait..Dimension$GT$9slice_mut17h938f9e10b04494c1E', symObjAddr: 0x430, symBinAddr: 0x77AC, symSize: 0x24 }
  - { offset: 0x269A2, size: 0x8, addend: 0x0, symName: '__ZN146_$LT$ndarray..dimension..dim..Dim$LT$ndarray..dimension..dynindeximpl..IxDynImpl$GT$$u20$as$u20$ndarray..dimension..dimension_trait..Dimension$GT$4ndim17hc1c6345a7fb05787E', symObjAddr: 0x454, symBinAddr: 0x77D0, symSize: 0x30 }
  - { offset: 0x26B89, size: 0x8, addend: 0x0, symName: '__ZN116_$LT$ndarray..ArrayBase$LT$ndarray..data_repr..OwnedRepr$LT$A$GT$$C$D$GT$$u20$as$u20$numpy..convert..IntoPyArray$GT$12into_pyarray17h37ca0837383f2e56E', symObjAddr: 0x0, symBinAddr: 0x7800, symSize: 0x1C }
  - { offset: 0x27494, size: 0x8, addend: 0x0, symName: __ZN7ndarray10is_aligned17he1a5ced40bddeb14E, symObjAddr: 0x31C, symBinAddr: 0x7B1C, symSize: 0x58 }
  - { offset: 0x274D5, size: 0x8, addend: 0x0, symName: '__ZN7ndarray11arraytraits94_$LT$impl$u20$core..ops..index..Index$LT$I$GT$$u20$for$u20$ndarray..ArrayBase$LT$S$C$D$GT$$GT$5index17h80b7b8fe84b7ab26E', symObjAddr: 0x374, symBinAddr: 0x7B74, symSize: 0x1E8 }
  - { offset: 0x27673, size: 0x8, addend: 0x0, symName: '__ZN7ndarray11arraytraits97_$LT$impl$u20$core..ops..index..IndexMut$LT$I$GT$$u20$for$u20$ndarray..ArrayBase$LT$S$C$D$GT$$GT$9index_mut17h566ac3bbfdca1a3aE', symObjAddr: 0x55C, symBinAddr: 0x7D5C, symSize: 0x1FC }
  - { offset: 0x299EE, size: 0x8, addend: 0x0, symName: '__ZN116_$LT$ndarray..ArrayBase$LT$ndarray..data_repr..OwnedRepr$LT$A$GT$$C$D$GT$$u20$as$u20$numpy..convert..IntoPyArray$GT$12into_pyarray17h37ca0837383f2e56E', symObjAddr: 0x0, symBinAddr: 0x7800, symSize: 0x1C }
  - { offset: 0x29A4B, size: 0x8, addend: 0x0, symName: '__ZN76_$LT$ndarray..ArrayBase$LT$S$C$D$GT$$u20$as$u20$numpy..convert..ArrayExt$GT$11npy_strides17h569124a4e50e227eE', symObjAddr: 0x1C, symBinAddr: 0x781C, symSize: 0x170 }
  - { offset: 0x29B86, size: 0x8, addend: 0x0, symName: '__ZN7ndarray10impl_views11conversions78_$LT$impl$u20$ndarray..ArrayBase$LT$ndarray..ViewRepr$LT$$RF$A$GT$$C$D$GT$$GT$10into_iter_17h77608866e86f3780E', symObjAddr: 0x18C, symBinAddr: 0x798C, symSize: 0x14 }
  - { offset: 0x29BD7, size: 0x8, addend: 0x0, symName: '__ZN7ndarray10impl_views11conversions78_$LT$impl$u20$ndarray..ArrayBase$LT$ndarray..ViewRepr$LT$$RF$A$GT$$C$D$GT$$GT$14into_base_iter17h6a9a01e29b560b79E', symObjAddr: 0x1A0, symBinAddr: 0x79A0, symSize: 0xC0 }
  - { offset: 0x29C29, size: 0x8, addend: 0x0, symName: '__ZN7ndarray10impl_views11conversions78_$LT$impl$u20$ndarray..ArrayBase$LT$ndarray..ViewRepr$LT$$RF$A$GT$$C$D$GT$$GT$18into_elements_base17h3ddfe64a484d6ca7E', symObjAddr: 0x260, symBinAddr: 0x7A60, symSize: 0x14 }
  - { offset: 0x29C92, size: 0x8, addend: 0x0, symName: '__ZN7ndarray10impl_views11conversions78_$LT$impl$u20$ndarray..ArrayBase$LT$ndarray..ViewRepr$LT$$RF$A$GT$$C$D$GT$$GT$8to_slice17h7102ae73f2f03566E', symObjAddr: 0x274, symBinAddr: 0x7A74, symSize: 0x6C }
  - { offset: 0x29CC6, size: 0x8, addend: 0x0, symName: '__ZN7ndarray10impl_views12constructors78_$LT$impl$u20$ndarray..ArrayBase$LT$ndarray..ViewRepr$LT$$RF$A$GT$$C$D$GT$$GT$14from_shape_ptr17h8a839087e2600af3E', symObjAddr: 0x2E0, symBinAddr: 0x7AE0, symSize: 0x3C }
  - { offset: 0x29F34, size: 0x8, addend: 0x0, symName: '__ZN7ndarray12impl_methods49_$LT$impl$u20$ndarray..ArrayBase$LT$S$C$D$GT$$GT$10slice_move17ha19ce9a319b20cc4E', symObjAddr: 0x758, symBinAddr: 0x7F58, symSize: 0x340 }
  - { offset: 0x2A10A, size: 0x8, addend: 0x0, symName: '__ZN7ndarray12impl_methods49_$LT$impl$u20$ndarray..ArrayBase$LT$S$C$D$GT$$GT$11invert_axis17h0d8fc59eae7c754aE', symObjAddr: 0xA98, symBinAddr: 0x8298, symSize: 0x12C }
  - { offset: 0x2A1D0, size: 0x8, addend: 0x0, symName: '__ZN7ndarray12impl_methods49_$LT$impl$u20$ndarray..ArrayBase$LT$S$C$D$GT$$GT$13collapse_axis17h29a2cc2474d4d5e7E', symObjAddr: 0xBC4, symBinAddr: 0x83C4, symSize: 0x94 }
  - { offset: 0x2A277, size: 0x8, addend: 0x0, symName: '__ZN7ndarray12impl_methods49_$LT$impl$u20$ndarray..ArrayBase$LT$S$C$D$GT$$GT$13is_contiguous17h1524d1cb1117ebbeE', symObjAddr: 0xC58, symBinAddr: 0x8458, symSize: 0x30 }
  - { offset: 0x2A2B5, size: 0x8, addend: 0x0, symName: '__ZN7ndarray12impl_methods49_$LT$impl$u20$ndarray..ArrayBase$LT$S$C$D$GT$$GT$17try_ensure_unique17h06c93c5cd9b49124E', symObjAddr: 0xC88, symBinAddr: 0x8488, symSize: 0x80 }
  - { offset: 0x2A2F3, size: 0x8, addend: 0x0, symName: '__ZN7ndarray12impl_methods49_$LT$impl$u20$ndarray..ArrayBase$LT$S$C$D$GT$$GT$18is_standard_layout17h2b99271a8fc12dc3E', symObjAddr: 0xD08, symBinAddr: 0x8508, symSize: 0x30 }
  - { offset: 0x2A331, size: 0x8, addend: 0x0, symName: '__ZN7ndarray12impl_methods49_$LT$impl$u20$ndarray..ArrayBase$LT$S$C$D$GT$$GT$18slice_axis_inplace17h6e9f1d7b0fa2a764E', symObjAddr: 0xD38, symBinAddr: 0x8538, symSize: 0x12C }
  - { offset: 0x2A407, size: 0x8, addend: 0x0, symName: '__ZN7ndarray12impl_methods49_$LT$impl$u20$ndarray..ArrayBase$LT$S$C$D$GT$$GT$19pointer_is_inbounds17h122824159822b405E', symObjAddr: 0xE64, symBinAddr: 0x8664, symSize: 0x38 }
  - { offset: 0x2A491, size: 0x8, addend: 0x0, symName: '__ZN7ndarray12impl_methods49_$LT$impl$u20$ndarray..ArrayBase$LT$S$C$D$GT$$GT$19pointer_is_inbounds17h20080368416577e1E', symObjAddr: 0xE9C, symBinAddr: 0x869C, symSize: 0x38 }
  - { offset: 0x2A528, size: 0x8, addend: 0x0, symName: '__ZN7ndarray12impl_methods49_$LT$impl$u20$ndarray..ArrayBase$LT$S$C$D$GT$$GT$19pointer_is_inbounds17hb449faba1e3718f0E', symObjAddr: 0xED4, symBinAddr: 0x86D4, symSize: 0x34 }
  - { offset: 0x2A5D4, size: 0x8, addend: 0x0, symName: '__ZN7ndarray12impl_methods49_$LT$impl$u20$ndarray..ArrayBase$LT$S$C$D$GT$$GT$21as_slice_memory_order17haca2f6648162628cE', symObjAddr: 0xF08, symBinAddr: 0x8708, symSize: 0xBC }
  - { offset: 0x2A69A, size: 0x8, addend: 0x0, symName: '__ZN7ndarray12impl_methods49_$LT$impl$u20$ndarray..ArrayBase$LT$S$C$D$GT$$GT$3len17h66dfa272fa920646E', symObjAddr: 0xFC4, symBinAddr: 0x87C4, symSize: 0x24 }
  - { offset: 0x2A6EF, size: 0x8, addend: 0x0, symName: '__ZN7ndarray12impl_methods49_$LT$impl$u20$ndarray..ArrayBase$LT$S$C$D$GT$$GT$3map17h6fbd1f01c54f1d2eE', symObjAddr: 0xFE8, symBinAddr: 0x87E8, symSize: 0x248 }
  - { offset: 0x2A767, size: 0x8, addend: 0x0, symName: '__ZN7ndarray12impl_methods49_$LT$impl$u20$ndarray..ArrayBase$LT$S$C$D$GT$$GT$4iter17h7ede23686d8278c4E', symObjAddr: 0x1230, symBinAddr: 0x8A30, symSize: 0x6C }
  - { offset: 0x2A7A5, size: 0x8, addend: 0x0, symName: '__ZN7ndarray12impl_methods49_$LT$impl$u20$ndarray..ArrayBase$LT$S$C$D$GT$$GT$4ndim17h025e1ec647b39d20E', symObjAddr: 0x129C, symBinAddr: 0x8A9C, symSize: 0x24 }
  - { offset: 0x2A899, size: 0x8, addend: 0x0, symName: '__ZN7ndarray12impl_methods49_$LT$impl$u20$ndarray..ArrayBase$LT$S$C$D$GT$$GT$4view17h4792f3283b16fefeE', symObjAddr: 0x12C0, symBinAddr: 0x8AC0, symSize: 0x2A4 }
  - { offset: 0x2A94F, size: 0x8, addend: 0x0, symName: '__ZN7ndarray12impl_methods49_$LT$impl$u20$ndarray..ArrayBase$LT$S$C$D$GT$$GT$4view17hd51b0108f3bb087dE', symObjAddr: 0x1564, symBinAddr: 0x8D64, symSize: 0x2A4 }
  - { offset: 0x2AA05, size: 0x8, addend: 0x0, symName: '__ZN7ndarray12impl_methods49_$LT$impl$u20$ndarray..ArrayBase$LT$S$C$D$GT$$GT$5shape17h019aeed58a8ee67aE', symObjAddr: 0x1808, symBinAddr: 0x9008, symSize: 0x24 }
  - { offset: 0x2AA42, size: 0x8, addend: 0x0, symName: '__ZN7ndarray12impl_methods49_$LT$impl$u20$ndarray..ArrayBase$LT$S$C$D$GT$$GT$5shape17h1492ea924500d8fcE', symObjAddr: 0x182C, symBinAddr: 0x902C, symSize: 0x24 }
  - { offset: 0x2AA7F, size: 0x8, addend: 0x0, symName: '__ZN7ndarray12impl_methods49_$LT$impl$u20$ndarray..ArrayBase$LT$S$C$D$GT$$GT$5slice17h4b6a1e3ad10629f3E', symObjAddr: 0x1850, symBinAddr: 0x9050, symSize: 0x94 }
  - { offset: 0x2AAE3, size: 0x8, addend: 0x0, symName: '__ZN7ndarray12impl_methods49_$LT$impl$u20$ndarray..ArrayBase$LT$S$C$D$GT$$GT$6len_of17hdf2bdd607b2b58d4E', symObjAddr: 0x18E4, symBinAddr: 0x90E4, symSize: 0x74 }
  - { offset: 0x2AB53, size: 0x8, addend: 0x0, symName: '__ZN7ndarray12impl_methods49_$LT$impl$u20$ndarray..ArrayBase$LT$S$C$D$GT$$GT$7raw_dim17h1ae5a843b0d3b5eeE', symObjAddr: 0x1958, symBinAddr: 0x9158, symSize: 0x34 }
  - { offset: 0x2ABB7, size: 0x8, addend: 0x0, symName: '__ZN7ndarray12impl_methods49_$LT$impl$u20$ndarray..ArrayBase$LT$S$C$D$GT$$GT$7strides17hace405248bcfa556E', symObjAddr: 0x198C, symBinAddr: 0x918C, symSize: 0x40 }
  - { offset: 0x2AC11, size: 0x8, addend: 0x0, symName: '__ZN7ndarray12impl_methods49_$LT$impl$u20$ndarray..ArrayBase$LT$S$C$D$GT$$GT$8to_owned17h448fc86335cf3babE', symObjAddr: 0x19CC, symBinAddr: 0x91CC, symSize: 0x16C }
  - { offset: 0x2ACA5, size: 0x8, addend: 0x0, symName: '__ZN7ndarray14impl_raw_views91_$LT$impl$u20$ndarray..ArrayBase$LT$ndarray..RawViewRepr$LT$$BP$const$u20$A$GT$$C$D$GT$$GT$14from_shape_ptr17h0046f1678fd01e7fE', symObjAddr: 0x1B38, symBinAddr: 0x9338, symSize: 0x324 }
  - { offset: 0x2ADF0, size: 0x8, addend: 0x0, symName: '__ZN7ndarray14impl_raw_views91_$LT$impl$u20$ndarray..ArrayBase$LT$ndarray..RawViewRepr$LT$$BP$const$u20$A$GT$$C$D$GT$$GT$15deref_into_view17h477b600bb0cee107E', symObjAddr: 0x1E5C, symBinAddr: 0x965C, symSize: 0x2B0 }
  - { offset: 0x2AECB, size: 0x8, addend: 0x0, symName: '__ZN7ndarray14impl_raw_views91_$LT$impl$u20$ndarray..ArrayBase$LT$ndarray..RawViewRepr$LT$$BP$const$u20$A$GT$$C$D$GT$$GT$3new17hfb8bad0351216362E', symObjAddr: 0x210C, symBinAddr: 0x990C, symSize: 0xDC }
  - { offset: 0x2AF2F, size: 0x8, addend: 0x0, symName: '__ZN7ndarray14impl_raw_views91_$LT$impl$u20$ndarray..ArrayBase$LT$ndarray..RawViewRepr$LT$$BP$const$u20$A$GT$$C$D$GT$$GT$4new_17h16e50ef4a1b88cdcE', symObjAddr: 0x21E8, symBinAddr: 0x99E8, symSize: 0xD4 }
  - { offset: 0x2B050, size: 0x8, addend: 0x0, symName: '__ZN7ndarray16impl_owned_array86_$LT$impl$u20$ndarray..ArrayBase$LT$ndarray..data_repr..OwnedRepr$LT$A$GT$$C$D$GT$$GT$12into_raw_vec17hbc640545ce6747e1E', symObjAddr: 0x22BC, symBinAddr: 0x9ABC, symSize: 0x58 }
  - { offset: 0x2B085, size: 0x8, addend: 0x0, symName: '__ZN7ndarray17impl_constructors49_$LT$impl$u20$ndarray..ArrayBase$LT$S$C$D$GT$$GT$24from_shape_vec_unchecked17h1cf7f15d2862f82bE', symObjAddr: 0x2314, symBinAddr: 0x9B14, symSize: 0x124 }
  - { offset: 0x2B127, size: 0x8, addend: 0x0, symName: '__ZN7ndarray17impl_constructors49_$LT$impl$u20$ndarray..ArrayBase$LT$S$C$D$GT$$GT$24from_shape_vec_unchecked17h685c678e3a34eecbE', symObjAddr: 0x2438, symBinAddr: 0x9C38, symSize: 0x124 }
  - { offset: 0x2B1F1, size: 0x8, addend: 0x0, symName: '__ZN7ndarray17impl_constructors49_$LT$impl$u20$ndarray..ArrayBase$LT$S$C$D$GT$$GT$29from_vec_dim_stride_unchecked17h56df096fa624cc44E', symObjAddr: 0x255C, symBinAddr: 0x9D5C, symSize: 0x1F0 }
  - { offset: 0x2B294, size: 0x8, addend: 0x0, symName: '__ZN7ndarray17impl_constructors49_$LT$impl$u20$ndarray..ArrayBase$LT$S$C$D$GT$$GT$33from_shape_trusted_iter_unchecked17h7aaf04fb6b52613fE', symObjAddr: 0x274C, symBinAddr: 0x9F4C, symSize: 0x1A4 }
  - { offset: 0x2B370, size: 0x8, addend: 0x0, symName: '__ZN7ndarray17impl_constructors49_$LT$impl$u20$ndarray..ArrayBase$LT$S$C$D$GT$$GT$33from_shape_trusted_iter_unchecked17he77b0b607c407e67E', symObjAddr: 0x28F0, symBinAddr: 0xA0F0, symSize: 0x17C }
  - { offset: 0x2B44B, size: 0x8, addend: 0x0, symName: '__ZN7ndarray17impl_constructors49_$LT$impl$u20$ndarray..ArrayBase$LT$S$C$D$GT$$GT$5zeros17hec3eabc7c34f492eE', symObjAddr: 0x2A6C, symBinAddr: 0xA26C, symSize: 0x80 }
  - { offset: 0x2B525, size: 0x8, addend: 0x0, symName: '__ZN7ndarray17impl_constructors49_$LT$impl$u20$ndarray..ArrayBase$LT$S$C$D$GT$$GT$9from_elem17h07a5a3ed00e4e455E', symObjAddr: 0x2AEC, symBinAddr: 0xA2EC, symSize: 0x178 }
  - { offset: 0x2B646, size: 0x8, addend: 0x0, symName: '__ZN7ndarray26impl_internal_constructors110_$LT$impl$u20$ndarray..ArrayBase$LT$S$C$ndarray..dimension..dim..Dim$LT$$u5b$usize$u3b$$u20$1$u5d$$GT$$GT$$GT$13from_data_ptr17h414b5208db1170b5E', symObjAddr: 0x2C64, symBinAddr: 0xA464, symSize: 0x198 }
  - { offset: 0x2B6DB, size: 0x8, addend: 0x0, symName: '__ZN7ndarray26impl_internal_constructors110_$LT$impl$u20$ndarray..ArrayBase$LT$S$C$ndarray..dimension..dim..Dim$LT$$u5b$usize$u3b$$u20$1$u5d$$GT$$GT$$GT$13from_data_ptr17h9d1c2c80aa20d4f4E', symObjAddr: 0x2DFC, symBinAddr: 0xA5FC, symSize: 0x15C }
  - { offset: 0x2B76E, size: 0x8, addend: 0x0, symName: '__ZN7ndarray26impl_internal_constructors110_$LT$impl$u20$ndarray..ArrayBase$LT$S$C$ndarray..dimension..dim..Dim$LT$$u5b$usize$u3b$$u20$1$u5d$$GT$$GT$$GT$13from_data_ptr17ha92f76748471499bE', symObjAddr: 0x2F58, symBinAddr: 0xA758, symSize: 0x15C }
  - { offset: 0x2B801, size: 0x8, addend: 0x0, symName: '__ZN7ndarray26impl_internal_constructors49_$LT$impl$u20$ndarray..ArrayBase$LT$S$C$D$GT$$GT$16with_strides_dim17h04964ca79e366ce7E', symObjAddr: 0x30B4, symBinAddr: 0xA8B4, symSize: 0x108 }
  - { offset: 0x2B8AD, size: 0x8, addend: 0x0, symName: '__ZN7ndarray26impl_internal_constructors49_$LT$impl$u20$ndarray..ArrayBase$LT$S$C$D$GT$$GT$16with_strides_dim17h6616e55da7011431E', symObjAddr: 0x31BC, symBinAddr: 0xA9BC, symSize: 0x134 }
  - { offset: 0x2B959, size: 0x8, addend: 0x0, symName: '__ZN7ndarray26impl_internal_constructors49_$LT$impl$u20$ndarray..ArrayBase$LT$S$C$D$GT$$GT$16with_strides_dim17hbd5d10341f732790E', symObjAddr: 0x32F0, symBinAddr: 0xAAF0, symSize: 0x108 }
  - { offset: 0x2BF55, size: 0x8, addend: 0x0, symName: __ZN4core3str8converts19from_utf8_unchecked17h6aff4e407565a856E, symObjAddr: 0x0, symBinAddr: 0xABF8, symSize: 0x18 }
  - { offset: 0x2BF71, size: 0x8, addend: 0x0, symName: __ZN4core3str8converts19from_utf8_unchecked17h6aff4e407565a856E, symObjAddr: 0x0, symBinAddr: 0xABF8, symSize: 0x18 }
  - { offset: 0x2C011, size: 0x8, addend: 0x0, symName: '__ZN4pyo38instance11Py$LT$T$GT$8into_ptr17hdcb3a951724fb607E', symObjAddr: 0x0, symBinAddr: 0xAC10, symSize: 0x88 }
  - { offset: 0x2D5E3, size: 0x8, addend: 0x0, symName: '__ZN4pyo38instance11Py$LT$T$GT$8into_ptr17hdcb3a951724fb607E', symObjAddr: 0x0, symBinAddr: 0xAC10, symSize: 0x88 }
  - { offset: 0x2D669, size: 0x8, addend: 0x0, symName: '__ZN50_$LT$T$u20$as$u20$core..convert..Into$LT$U$GT$$GT$4into17h2117146c69bfe8c5E', symObjAddr: 0x0, symBinAddr: 0xAC98, symSize: 0x24 }
  - { offset: 0x2DE22, size: 0x8, addend: 0x0, symName: '__ZN50_$LT$T$u20$as$u20$core..convert..Into$LT$U$GT$$GT$4into17h2117146c69bfe8c5E', symObjAddr: 0x0, symBinAddr: 0xAC98, symSize: 0x24 }
  - { offset: 0x2EDCA, size: 0x8, addend: 0x0, symName: __ZN4pyo35types6string8PyString6to_str17he0f26b9df8c79690E, symObjAddr: 0x0, symBinAddr: 0xACBC, symSize: 0xC8 }
  - { offset: 0x300BA, size: 0x8, addend: 0x0, symName: '__ZN73_$LT$pyo3..types..string..PyString$u20$as$u20$core..ops..deref..Deref$GT$5deref17h00c343dfcddde60fE', symObjAddr: 0xC8, symBinAddr: 0xAD84, symSize: 0x14 }
  - { offset: 0x307BD, size: 0x8, addend: 0x0, symName: __ZN4pyo35types6string8PyString6to_str17he0f26b9df8c79690E, symObjAddr: 0x0, symBinAddr: 0xACBC, symSize: 0xC8 }
  - { offset: 0x3087C, size: 0x8, addend: 0x0, symName: '__ZN7ndarray9data_repr18OwnedRepr$LT$A$GT$11take_as_vec17h13ea5ce35fad939cE', symObjAddr: 0x0, symBinAddr: 0xAD98, symSize: 0x44 }
  - { offset: 0x3094C, size: 0x8, addend: 0x0, symName: '__ZN88_$LT$ndarray..data_repr..OwnedRepr$LT$A$GT$$u20$as$u20$ndarray..data_traits..RawData$GT$20_is_pointer_inbounds17h14bbd69900298bc2E', symObjAddr: 0x154, symBinAddr: 0xAEEC, symSize: 0x9C }
  - { offset: 0x30A08, size: 0x8, addend: 0x0, symName: '__ZN90_$LT$ndarray..data_repr..OwnedRepr$LT$A$GT$$u20$as$u20$ndarray..data_traits..DataOwned$GT$3new17h1a833bbf2ce0f63eE', symObjAddr: 0x1F0, symBinAddr: 0xAF88, symSize: 0x14 }
  - { offset: 0x30A46, size: 0x8, addend: 0x0, symName: '__ZN91_$LT$ndarray..data_repr..OwnedRepr$LT$A$GT$$u20$as$u20$ndarray..data_traits..RawDataMut$GT$17try_ensure_unique17hba5ca7a639b47326E', symObjAddr: 0x204, symBinAddr: 0xAF9C, symSize: 0x10 }
  - { offset: 0x30D2A, size: 0x8, addend: 0x0, symName: '__ZN7ndarray9data_repr18OwnedRepr$LT$A$GT$11take_as_vec17h13ea5ce35fad939cE', symObjAddr: 0x0, symBinAddr: 0xAD98, symSize: 0x44 }
  - { offset: 0x30DAA, size: 0x8, addend: 0x0, symName: '__ZN7ndarray9data_repr18OwnedRepr$LT$A$GT$4from17he7fbc2a1014fcc0bE', symObjAddr: 0x44, symBinAddr: 0xADDC, symSize: 0xA0 }
  - { offset: 0x30E9C, size: 0x8, addend: 0x0, symName: '__ZN7ndarray9data_repr18OwnedRepr$LT$A$GT$8as_slice17hbfe8b0126fc4a7e8E', symObjAddr: 0xE4, symBinAddr: 0xAE7C, symSize: 0x34 }
  - { offset: 0x30EE2, size: 0x8, addend: 0x0, symName: '__ZN7ndarray9data_repr18OwnedRepr$LT$A$GT$8into_vec17hfbd1bf02081adaf8E', symObjAddr: 0x118, symBinAddr: 0xAEB0, symSize: 0x3C }
  - { offset: 0x30F7F, size: 0x8, addend: 0x0, symName: '__ZN106_$LT$core..slice..iter..Iter$LT$T$GT$$u20$as$u20$core..iter..traits..double_ended..DoubleEndedIterator$GT$9next_back17he2b4768e128709abE', symObjAddr: 0x0, symBinAddr: 0xAFAC, symSize: 0x114 }
  - { offset: 0x3178F, size: 0x8, addend: 0x0, symName: '__ZN106_$LT$core..slice..iter..Iter$LT$T$GT$$u20$as$u20$core..iter..traits..double_ended..DoubleEndedIterator$GT$9next_back17he2b4768e128709abE', symObjAddr: 0x0, symBinAddr: 0xAFAC, symSize: 0x114 }
  - { offset: 0x31A09, size: 0x8, addend: 0x0, symName: '__ZN91_$LT$core..slice..iter..Iter$LT$T$GT$$u20$as$u20$core..iter..traits..iterator..Iterator$GT$3all17h3f5570c5465c5cadE', symObjAddr: 0x564, symBinAddr: 0xB510, symSize: 0xB0 }
  - { offset: 0x31A6E, size: 0x8, addend: 0x0, symName: '__ZN91_$LT$core..slice..iter..Iter$LT$T$GT$$u20$as$u20$core..iter..traits..iterator..Iterator$GT$3any17ha2acf1bc9948acd6E', symObjAddr: 0x614, symBinAddr: 0xB5C0, symSize: 0xB0 }
  - { offset: 0x31AD3, size: 0x8, addend: 0x0, symName: '__ZN91_$LT$core..slice..iter..Iter$LT$T$GT$$u20$as$u20$core..iter..traits..iterator..Iterator$GT$4fold17h7d2255eb537094aaE', symObjAddr: 0x6C4, symBinAddr: 0xB670, symSize: 0x1CC }
  - { offset: 0x31CB5, size: 0x8, addend: 0x0, symName: '__ZN91_$LT$core..slice..iter..Iter$LT$T$GT$$u20$as$u20$core..iter..traits..iterator..Iterator$GT$4fold17hc5e68796c796ba14E', symObjAddr: 0x890, symBinAddr: 0xB83C, symSize: 0x1CC }
  - { offset: 0x31E97, size: 0x8, addend: 0x0, symName: '__ZN91_$LT$core..slice..iter..Iter$LT$T$GT$$u20$as$u20$core..iter..traits..iterator..Iterator$GT$4next17h1f7074093b758a9cE', symObjAddr: 0xA5C, symBinAddr: 0xBA08, symSize: 0xCC }
  - { offset: 0x31FF8, size: 0x8, addend: 0x0, symName: '__ZN91_$LT$core..slice..iter..Iter$LT$T$GT$$u20$as$u20$core..iter..traits..iterator..Iterator$GT$4next17h5088de1323b77571E', symObjAddr: 0xB28, symBinAddr: 0xBAD4, symSize: 0xCC }
  - { offset: 0x32159, size: 0x8, addend: 0x0, symName: '__ZN91_$LT$core..slice..iter..Iter$LT$T$GT$$u20$as$u20$core..iter..traits..iterator..Iterator$GT$4next17hd48c3658e6fef624E', symObjAddr: 0xBF4, symBinAddr: 0xBBA0, symSize: 0xCC }
  - { offset: 0x322BA, size: 0x8, addend: 0x0, symName: '__ZN91_$LT$core..slice..iter..Iter$LT$T$GT$$u20$as$u20$core..iter..traits..iterator..Iterator$GT$8for_each17h5eff186f94be6e73E', symObjAddr: 0xCC0, symBinAddr: 0xBC6C, symSize: 0x88 }
  - { offset: 0x32318, size: 0x8, addend: 0x0, symName: '__ZN91_$LT$core..slice..iter..Iter$LT$T$GT$$u20$as$u20$core..iter..traits..iterator..Iterator$GT$8position17h2eeb1e2bb6822b02E', symObjAddr: 0xD48, symBinAddr: 0xBCF4, symSize: 0x1C8 }
  - { offset: 0x32458, size: 0x8, addend: 0x0, symName: '__ZN91_$LT$core..slice..iter..Iter$LT$T$GT$$u20$as$u20$core..iter..traits..iterator..Iterator$GT$8position17hd2b09d4a5900f349E', symObjAddr: 0xF10, symBinAddr: 0xBEBC, symSize: 0x1C8 }
  - { offset: 0x326CB, size: 0x8, addend: 0x0, symName: '__ZN94_$LT$core..slice..iter..IterMut$LT$T$GT$$u20$as$u20$core..iter..traits..iterator..Iterator$GT$24__iterator_get_unchecked17hd9b44feeff2033b8E', symObjAddr: 0x10D8, symBinAddr: 0xC084, symSize: 0x28 }
  - { offset: 0x32755, size: 0x8, addend: 0x0, symName: '__ZN94_$LT$core..slice..iter..IterMut$LT$T$GT$$u20$as$u20$core..iter..traits..iterator..Iterator$GT$4next17h8d39755000b9e6baE', symObjAddr: 0x1100, symBinAddr: 0xC0AC, symSize: 0xCC }
  - { offset: 0x32898, size: 0x8, addend: 0x0, symName: '__ZN94_$LT$core..slice..iter..IterMut$LT$T$GT$$u20$as$u20$core..iter..traits..iterator..Iterator$GT$9size_hint17ha3e3087b4faf3980E', symObjAddr: 0x11CC, symBinAddr: 0xC178, symSize: 0xC0 }
  - { offset: 0x3346A, size: 0x8, addend: 0x0, symName: __ZN4core4iter6traits8iterator8Iterator3rev17hfdbca2838972f000E, symObjAddr: 0x114, symBinAddr: 0xB0C0, symSize: 0x1C }
  - { offset: 0x334A1, size: 0x8, addend: 0x0, symName: __ZN4core4iter6traits8iterator8Iterator3zip17h25da5c0b8c1b6bc0E, symObjAddr: 0x130, symBinAddr: 0xB0DC, symSize: 0xC8 }
  - { offset: 0x33517, size: 0x8, addend: 0x0, symName: __ZN4core4iter6traits8iterator8Iterator3zip17h866dc123219562a9E, symObjAddr: 0x1F8, symBinAddr: 0xB1A4, symSize: 0xCC }
  - { offset: 0x3358D, size: 0x8, addend: 0x0, symName: __ZN4core4iter6traits8iterator8Iterator6copied17h3838d6256d8c0f9cE, symObjAddr: 0x2C4, symBinAddr: 0xB270, symSize: 0x1C }
  - { offset: 0x335CD, size: 0x8, addend: 0x0, symName: __ZN4core4iter6traits8iterator8Iterator6filter17hee87561eff1bcb73E, symObjAddr: 0x2E0, symBinAddr: 0xB28C, symSize: 0x1C }
  - { offset: 0x3361C, size: 0x8, addend: 0x0, symName: __ZN4core4iter6traits8iterator8Iterator8try_fold17hf4044949dfa9c2a9E, symObjAddr: 0x2FC, symBinAddr: 0xB2A8, symSize: 0x180 }
  - { offset: 0x336E3, size: 0x8, addend: 0x0, symName: '__ZN63_$LT$I$u20$as$u20$core..iter..traits..collect..IntoIterator$GT$9into_iter17hc5a64252b26e25a8E', symObjAddr: 0x548, symBinAddr: 0xB4F4, symSize: 0x1C }
  - { offset: 0x33832, size: 0x8, addend: 0x0, symName: __ZN4core4iter8adapters3zip27TrustedRandomAccessNoCoerce4size17h82a6d07dafac70fcE, symObjAddr: 0x47C, symBinAddr: 0xB428, symSize: 0x2C }
  - { offset: 0x34D26, size: 0x8, addend: 0x0, symName: '__ZN4core5slice4iter13Iter$LT$T$GT$3new17h6d061d3e560c35a4E', symObjAddr: 0x4A8, symBinAddr: 0xB454, symSize: 0x50 }
  - { offset: 0x34EE6, size: 0x8, addend: 0x0, symName: '__ZN4core5slice4iter16IterMut$LT$T$GT$3new17hcfbe8f4bbb655bb7E', symObjAddr: 0x4F8, symBinAddr: 0xB4A4, symSize: 0x50 }
  - { offset: 0x359AC, size: 0x8, addend: 0x0, symName: '__ZN4core5slice29_$LT$impl$u20$$u5b$T$u5d$$GT$4iter17h5c0fa126971ceb02E', symObjAddr: 0x0, symBinAddr: 0xC238, symSize: 0x28 }
  - { offset: 0x36140, size: 0x8, addend: 0x0, symName: '__ZN4core5slice29_$LT$impl$u20$$u5b$T$u5d$$GT$4iter17h5c0fa126971ceb02E', symObjAddr: 0x0, symBinAddr: 0xC238, symSize: 0x28 }
  - { offset: 0x37569, size: 0x8, addend: 0x0, symName: __ZN4pyo35types3any5PyAny7extract17h5690c04e091d2d6eE, symObjAddr: 0x28, symBinAddr: 0xC260, symSize: 0x24 }
  - { offset: 0x37595, size: 0x8, addend: 0x0, symName: __ZN4pyo35types3any5PyAny7extract17hd55bfb059a173bfbE, symObjAddr: 0x4C, symBinAddr: 0xC284, symSize: 0x24 }
  - { offset: 0x37620, size: 0x8, addend: 0x0, symName: '__ZN7ndarray11arraytraits94_$LT$impl$u20$core..ops..index..Index$LT$I$GT$$u20$for$u20$ndarray..ArrayBase$LT$S$C$D$GT$$GT$5index28_$u7b$$u7b$closure$u7d$$u7d$17h44fd028f5ba761c5E', symObjAddr: 0x0, symBinAddr: 0xC2A8, symSize: 0x10 }
  - { offset: 0x37641, size: 0x8, addend: 0x0, symName: '__ZN7ndarray11arraytraits94_$LT$impl$u20$core..ops..index..Index$LT$I$GT$$u20$for$u20$ndarray..ArrayBase$LT$S$C$D$GT$$GT$5index28_$u7b$$u7b$closure$u7d$$u7d$17h44fd028f5ba761c5E', symObjAddr: 0x0, symBinAddr: 0xC2A8, symSize: 0x10 }
  - { offset: 0x37697, size: 0x8, addend: 0x0, symName: '__ZN7ndarray11arraytraits97_$LT$impl$u20$core..ops..index..IndexMut$LT$I$GT$$u20$for$u20$ndarray..ArrayBase$LT$S$C$D$GT$$GT$9index_mut28_$u7b$$u7b$closure$u7d$$u7d$17h8dd4ab4d426e1a46E', symObjAddr: 0x10, symBinAddr: 0xC2B8, symSize: 0x10 }
  - { offset: 0x37812, size: 0x8, addend: 0x0, symName: '__ZN106_$LT$core..ops..range..Range$LT$usize$GT$$u20$as$u20$core..slice..index..SliceIndex$LT$$u5b$T$u5d$$GT$$GT$9index_mut17h595b1a83b88c5805E', symObjAddr: 0x0, symBinAddr: 0xC2C8, symSize: 0xC8 }
  - { offset: 0x389E8, size: 0x8, addend: 0x0, symName: '__ZN106_$LT$core..ops..range..Range$LT$usize$GT$$u20$as$u20$core..slice..index..SliceIndex$LT$$u5b$T$u5d$$GT$$GT$9index_mut17h595b1a83b88c5805E', symObjAddr: 0x0, symBinAddr: 0xC2C8, symSize: 0xC8 }
  - { offset: 0x38B1E, size: 0x8, addend: 0x0, symName: '__ZN108_$LT$core..ops..range..RangeTo$LT$usize$GT$$u20$as$u20$core..slice..index..SliceIndex$LT$$u5b$T$u5d$$GT$$GT$9index_mut17hfc70a5bb8660a289E', symObjAddr: 0xC8, symBinAddr: 0xC390, symSize: 0x54 }
  - { offset: 0x38B9E, size: 0x8, addend: 0x0, symName: '__ZN110_$LT$core..ops..range..RangeFrom$LT$usize$GT$$u20$as$u20$core..slice..index..SliceIndex$LT$$u5b$T$u5d$$GT$$GT$5index17h3b214de85f26b8a1E', symObjAddr: 0x11C, symBinAddr: 0xC3E4, symSize: 0x90 }
  - { offset: 0x392E9, size: 0x8, addend: 0x0, symName: __ZN7ndarray5slice12SliceNextDim11next_in_dim17h2fff85be31dc6721E, symObjAddr: 0x1AC, symBinAddr: 0xC474, symSize: 0x10 }
  - { offset: 0x39330, size: 0x8, addend: 0x0, symName: __ZN7ndarray5slice12SliceNextDim12next_out_dim17h780bd5d62cb8b2bfE, symObjAddr: 0x1BC, symBinAddr: 0xC484, symSize: 0x10 }
  - { offset: 0x39401, size: 0x8, addend: 0x0, symName: '__ZN129_$LT$ndarray..dimension..dim..Dim$LT$$u5b$usize$u3b$$u20$1$u5d$$GT$$u20$as$u20$ndarray..dimension..dimension_trait..Dimension$GT$14from_dimension17h2fdbe706ec53048cE', symObjAddr: 0x0, symBinAddr: 0xC494, symSize: 0xA8 }
  - { offset: 0x39510, size: 0x8, addend: 0x0, symName: '__ZN42_$LT$$RF$T$u20$as$u20$core..fmt..Debug$GT$3fmt17hb73b62088276bbc2E', symObjAddr: 0xA8, symBinAddr: 0xC53C, symSize: 0x30 }
  - { offset: 0x395BB, size: 0x8, addend: 0x0, symName: '__ZN50_$LT$T$u20$as$u20$core..convert..Into$LT$U$GT$$GT$4into17ha41b1387471378a4E', symObjAddr: 0xD8, symBinAddr: 0xC56C, symSize: 0x34 }
  - { offset: 0x399B3, size: 0x8, addend: 0x0, symName: '__ZN74_$LT$ndarray..dimension..dim..Dim$LT$I$GT$$u20$as$u20$core..fmt..Debug$GT$3fmt17he6eaea995a054a4fE', symObjAddr: 0x3C8, symBinAddr: 0xC85C, symSize: 0x84 }
  - { offset: 0x39A79, size: 0x8, addend: 0x0, symName: '__ZN76_$LT$ndarray..dimension..dim..Dim$LT$I$GT$$u20$as$u20$core..clone..Clone$GT$5clone17he221f4449beedaa1E', symObjAddr: 0x44C, symBinAddr: 0xC8E0, symSize: 0x3C }
  - { offset: 0x39AAF, size: 0x8, addend: 0x0, symName: __ZN7ndarray9dimension3dim3Dim17h7d492f028b4bc42cE, symObjAddr: 0xBCC, symBinAddr: 0xD060, symSize: 0x28 }
  - { offset: 0x39AE9, size: 0x8, addend: 0x0, symName: '__ZN80_$LT$ndarray..dimension..dim..Dim$LT$I$GT$$u20$as$u20$core..default..Default$GT$7default17hd57a519951b72d69E', symObjAddr: 0xBF4, symBinAddr: 0xD088, symSize: 0x34 }
  - { offset: 0x39B3A, size: 0x8, addend: 0x0, symName: '__ZN129_$LT$ndarray..dimension..dim..Dim$LT$$u5b$usize$u3b$$u20$1$u5d$$GT$$u20$as$u20$ndarray..dimension..dimension_trait..Dimension$GT$14from_dimension17h2fdbe706ec53048cE', symObjAddr: 0x0, symBinAddr: 0xC494, symSize: 0xA8 }
  - { offset: 0x39B95, size: 0x8, addend: 0x0, symName: __ZN7ndarray9dimension15dimension_trait9Dimension13is_contiguous17haeb5380542345618E, symObjAddr: 0x488, symBinAddr: 0xC91C, symSize: 0x34C }
  - { offset: 0x39CBF, size: 0x8, addend: 0x0, symName: __ZN7ndarray9dimension15dimension_trait9Dimension13set_last_elem17h8f9fe8eac5b6b5abE, symObjAddr: 0x7D4, symBinAddr: 0xCC68, symSize: 0xAC }
  - { offset: 0x39D17, size: 0x8, addend: 0x0, symName: __ZN7ndarray9dimension15dimension_trait9Dimension15fortran_strides17h81fca4b1d466af41E, symObjAddr: 0x880, symBinAddr: 0xCD14, symSize: 0x274 }
  - { offset: 0x39DFE, size: 0x8, addend: 0x0, symName: __ZN7ndarray9dimension15dimension_trait9Dimension9last_elem17h0db92566da299737E, symObjAddr: 0xAF4, symBinAddr: 0xCF88, symSize: 0xB4 }
  - { offset: 0x39EC7, size: 0x8, addend: 0x0, symName: '__ZN54_$LT$D$u20$as$u20$ndarray..dimension..DimensionExt$GT$4axis17h427475d83829c4afE', symObjAddr: 0x10C, symBinAddr: 0xC5A0, symSize: 0x70 }
  - { offset: 0x39F33, size: 0x8, addend: 0x0, symName: '__ZN54_$LT$D$u20$as$u20$ndarray..dimension..DimensionExt$GT$8set_axis17h68645ad2bfab11c4E', symObjAddr: 0x17C, symBinAddr: 0xC610, symSize: 0x7C }
  - { offset: 0x3A066, size: 0x8, addend: 0x0, symName: '__ZN58_$LT$T$u20$as$u20$ndarray..shape_builder..ShapeBuilder$GT$10into_shape17hc972824502df2b6cE', symObjAddr: 0x1F8, symBinAddr: 0xC68C, symSize: 0x64 }
  - { offset: 0x3A0B8, size: 0x8, addend: 0x0, symName: '__ZN58_$LT$T$u20$as$u20$ndarray..shape_builder..ShapeBuilder$GT$7strides17h3cde414d9dc6ed9bE', symObjAddr: 0x25C, symBinAddr: 0xC6F0, symSize: 0x118 }
  - { offset: 0x3A2DB, size: 0x8, addend: 0x0, symName: __ZN5numpy7convert9ToNpyDims11as_dims_ptr17h6587fc8263131a66E, symObjAddr: 0x374, symBinAddr: 0xC808, symSize: 0x30 }
  - { offset: 0x3A312, size: 0x8, addend: 0x0, symName: __ZN5numpy7convert9ToNpyDims9ndim_cint17hf1324b620f88f8c4E, symObjAddr: 0x3A4, symBinAddr: 0xC838, symSize: 0x24 }
  - { offset: 0x3A4A2, size: 0x8, addend: 0x0, symName: '__ZN7ndarray9dimension3dim12Dim$LT$I$GT$3new17h9ae2d1b77612fcc9E', symObjAddr: 0xBA8, symBinAddr: 0xD03C, symSize: 0x24 }
  - { offset: 0x3A593, size: 0x8, addend: 0x0, symName: __ZN3std9panicking3try7do_call17hbac74580fc8fb6eeE, symObjAddr: 0x0, symBinAddr: 0xD0BC, symSize: 0x8C }
  - { offset: 0x3C3D6, size: 0x8, addend: 0x0, symName: __ZN3std9panicking3try7do_call17hbac74580fc8fb6eeE, symObjAddr: 0x0, symBinAddr: 0xD0BC, symSize: 0x8C }
  - { offset: 0x3C4C6, size: 0x8, addend: 0x0, symName: __ZN3std9panicking3try7do_call17he06c8d50cc457514E, symObjAddr: 0x8C, symBinAddr: 0xD148, symSize: 0x7C }
  - { offset: 0x3C5B6, size: 0x8, addend: 0x0, symName: __ZN3std9panicking3try8do_catch17haadcde23bf894380E, symObjAddr: 0x108, symBinAddr: 0xD1C4, symSize: 0x70 }
  - { offset: 0x3C64B, size: 0x8, addend: 0x0, symName: __ZN3std9panicking3try8do_catch17hca4556923af6f676E, symObjAddr: 0x178, symBinAddr: 0xD234, symSize: 0x70 }
  - { offset: 0x3C841, size: 0x8, addend: 0x0, symName: '__ZN100_$LT$ndarray..iterators..Baseiter$LT$A$C$D$GT$$u20$as$u20$core..iter..traits..iterator..Iterator$GT$4fold17h4b67bd3a903fcedfE', symObjAddr: 0x0, symBinAddr: 0xD2A4, symSize: 0x494 }
  - { offset: 0x3CB02, size: 0x8, addend: 0x0, symName: '__ZN100_$LT$ndarray..iterators..Baseiter$LT$A$C$D$GT$$u20$as$u20$core..iter..traits..iterator..Iterator$GT$4fold17h4b67bd3a903fcedfE', symObjAddr: 0x0, symBinAddr: 0xD2A4, symSize: 0x494 }
  - { offset: 0x3CD5E, size: 0x8, addend: 0x0, symName: '__ZN100_$LT$ndarray..iterators..Baseiter$LT$A$C$D$GT$$u20$as$u20$core..iter..traits..iterator..Iterator$GT$9size_hint17h2937feded5341bfeE', symObjAddr: 0x494, symBinAddr: 0xD738, symSize: 0x50 }
  - { offset: 0x3CDBF, size: 0x8, addend: 0x0, symName: '__ZN104_$LT$ndarray..iterators..ElementsBase$LT$A$C$D$GT$$u20$as$u20$core..iter..traits..iterator..Iterator$GT$4fold17h2b5429fef21e4ab1E', symObjAddr: 0x4E4, symBinAddr: 0xD788, symSize: 0x5C }
  - { offset: 0x3CE2E, size: 0x8, addend: 0x0, symName: '__ZN104_$LT$ndarray..iterators..ElementsBase$LT$A$C$D$GT$$u20$as$u20$core..iter..traits..iterator..Iterator$GT$4fold28_$u7b$$u7b$closure$u7d$$u7d$17h8f76e80b3e149b18E', symObjAddr: 0x540, symBinAddr: 0xD7E4, symSize: 0x2C }
  - { offset: 0x3CEAC, size: 0x8, addend: 0x0, symName: '__ZN104_$LT$ndarray..iterators..ElementsBase$LT$A$C$D$GT$$u20$as$u20$core..iter..traits..iterator..Iterator$GT$9size_hint17hc62073f19e0a5e59E', symObjAddr: 0x56C, symBinAddr: 0xD810, symSize: 0x24 }
  - { offset: 0x3CEF0, size: 0x8, addend: 0x0, symName: '__ZN111_$LT$ndarray..iterators..Baseiter$LT$A$C$D$GT$$u20$as$u20$core..iter..traits..exact_size..ExactSizeIterator$GT$3len17h76f4798b4b53e1f3E', symObjAddr: 0x590, symBinAddr: 0xD834, symSize: 0x144 }
  - { offset: 0x3CF5D, size: 0x8, addend: 0x0, symName: '__ZN111_$LT$ndarray..iterators..Baseiter$LT$A$C$D$GT$$u20$as$u20$core..iter..traits..exact_size..ExactSizeIterator$GT$3len28_$u7b$$u7b$closure$u7d$$u7d$17h83b697ceb2555c4fE', symObjAddr: 0x6D4, symBinAddr: 0xD978, symSize: 0x90 }
  - { offset: 0x3CFDC, size: 0x8, addend: 0x0, symName: __ZN7ndarray9iterators13to_vec_mapped17hcb340787a7ebe185E, symObjAddr: 0x764, symBinAddr: 0xDA08, symSize: 0x18C }
  - { offset: 0x3D0F3, size: 0x8, addend: 0x0, symName: __ZN7ndarray9iterators13to_vec_mapped17hdbeecf3ab2c14415E, symObjAddr: 0x8F0, symBinAddr: 0xDB94, symSize: 0x1C4 }
  - { offset: 0x3D212, size: 0x8, addend: 0x0, symName: '__ZN7ndarray9iterators13to_vec_mapped28_$u7b$$u7b$closure$u7d$$u7d$17h7dd5caef0c865644E', symObjAddr: 0xAB4, symBinAddr: 0xDD58, symSize: 0xD4 }
  - { offset: 0x3D2D5, size: 0x8, addend: 0x0, symName: '__ZN7ndarray9iterators13to_vec_mapped28_$u7b$$u7b$closure$u7d$$u7d$17hd2b8400ba6e010b0E', symObjAddr: 0xB88, symBinAddr: 0xDE2C, symSize: 0xD4 }
  - { offset: 0x3D576, size: 0x8, addend: 0x0, symName: '__ZN96_$LT$ndarray..iterators..Iter$LT$A$C$D$GT$$u20$as$u20$core..iter..traits..iterator..Iterator$GT$4fold17h0fe647407ca57c04E', symObjAddr: 0xE60, symBinAddr: 0xE104, symSize: 0x7C }
  - { offset: 0x3D620, size: 0x8, addend: 0x0, symName: '__ZN96_$LT$ndarray..iterators..Iter$LT$A$C$D$GT$$u20$as$u20$core..iter..traits..iterator..Iterator$GT$9size_hint17hf48c5f21c1a1d46eE', symObjAddr: 0xEDC, symBinAddr: 0xE180, symSize: 0x70 }
  - { offset: 0x3D78D, size: 0x8, addend: 0x0, symName: '__ZN7ndarray9iterators17Iter$LT$A$C$D$GT$3new17hb5d13232d40ded07E', symObjAddr: 0xC5C, symBinAddr: 0xDF00, symSize: 0x12C }
  - { offset: 0x3D7D9, size: 0x8, addend: 0x0, symName: '__ZN7ndarray9iterators21Baseiter$LT$A$C$D$GT$3new17hccf2378400b7b072E', symObjAddr: 0xD88, symBinAddr: 0xE02C, symSize: 0x9C }
  - { offset: 0x3D829, size: 0x8, addend: 0x0, symName: '__ZN7ndarray9iterators25ElementsBase$LT$A$C$D$GT$3new17he132307070ebaa54E', symObjAddr: 0xE24, symBinAddr: 0xE0C8, symSize: 0x3C }
  - { offset: 0x3DA51, size: 0x8, addend: 0x0, symName: '__ZN4core3ptr7mut_ptr31_$LT$impl$u20$$BP$mut$u20$T$GT$6offset18precondition_check17hbe7797f18449d8d8E', symObjAddr: 0x0, symBinAddr: 0xE1F0, symSize: 0xB4 }
  - { offset: 0x3DB06, size: 0x8, addend: 0x0, symName: '__ZN4core3ptr7mut_ptr31_$LT$impl$u20$$BP$mut$u20$T$GT$6offset18precondition_check17hbe7797f18449d8d8E', symObjAddr: 0x0, symBinAddr: 0xE1F0, symSize: 0xB4 }
  - { offset: 0x3DF81, size: 0x8, addend: 0x0, symName: __ZN4pyo35impl_10trampoline11module_init17h469ac593dbc04494E, symObjAddr: 0x0, symBinAddr: 0xE2A4, symSize: 0x28 }
  - { offset: 0x3F3A9, size: 0x8, addend: 0x0, symName: __ZN4pyo35impl_10trampoline11module_init17h469ac593dbc04494E, symObjAddr: 0x0, symBinAddr: 0xE2A4, symSize: 0x28 }
  - { offset: 0x3F3D5, size: 0x8, addend: 0x0, symName: __ZN4pyo35impl_10trampoline22fastcall_with_keywords17he60b21d8d5bff71fE, symObjAddr: 0x28, symBinAddr: 0xE2CC, symSize: 0x5C }
  - { offset: 0x3FC37, size: 0x8, addend: 0x0, symName: __ZN7ndarray9dimension9abs_index17h4e39ecc596d73f3eE, symObjAddr: 0x0, symBinAddr: 0xE328, symSize: 0x9C }
  - { offset: 0x3FC4E, size: 0x8, addend: 0x0, symName: __ZN7ndarray9dimension9abs_index17h4e39ecc596d73f3eE, symObjAddr: 0x0, symBinAddr: 0xE328, symSize: 0x9C }
  - { offset: 0x3FCB9, size: 0x8, addend: 0x0, symName: __ZN7ndarray9extension7nonnull21nonnull_from_vec_data17h1f979a724d1c89f5E, symObjAddr: 0x0, symBinAddr: 0xE3C4, symSize: 0x28 }
  - { offset: 0x3FCD5, size: 0x8, addend: 0x0, symName: __ZN7ndarray9extension7nonnull21nonnull_from_vec_data17h1f979a724d1c89f5E, symObjAddr: 0x0, symBinAddr: 0xE3C4, symSize: 0x28 }
  - { offset: 0x3FD0A, size: 0x8, addend: 0x0, symName: __ZN7ndarray9extension7nonnull30nonnull_debug_checked_from_ptr17hcf6ef879abdc8a5fE, symObjAddr: 0x28, symBinAddr: 0xE3EC, symSize: 0x54 }
  - { offset: 0x3FEDE, size: 0x8, addend: 0x0, symName: '__ZN94_$LT$pyo3..types..tuple..PyTupleIterator$u20$as$u20$core..iter..traits..iterator..Iterator$GT$4next17he71c4985d9aa5ac2E', symObjAddr: 0x0, symBinAddr: 0xE440, symSize: 0x98 }
  - { offset: 0x40FC6, size: 0x8, addend: 0x0, symName: '__ZN94_$LT$pyo3..types..tuple..PyTupleIterator$u20$as$u20$core..iter..traits..iterator..Iterator$GT$4next17he71c4985d9aa5ac2E', symObjAddr: 0x0, symBinAddr: 0xE440, symSize: 0x98 }
  - { offset: 0x414F1, size: 0x8, addend: 0x0, symName: __ZN4core10intrinsics11write_bytes18precondition_check17h9ff560f8e32a2b24E, symObjAddr: 0x0, symBinAddr: 0xE4D8, symSize: 0x104 }
  - { offset: 0x41B7D, size: 0x8, addend: 0x0, symName: __ZN4core10intrinsics11write_bytes18precondition_check17h9ff560f8e32a2b24E, symObjAddr: 0x0, symBinAddr: 0xE4D8, symSize: 0x104 }
  - { offset: 0x41C9F, size: 0x8, addend: 0x0, symName: __ZN4core10intrinsics19copy_nonoverlapping18precondition_check17hf5bffa71cef83a2bE, symObjAddr: 0x104, symBinAddr: 0xE5DC, symSize: 0x2F8 }
  - { offset: 0x42132, size: 0x8, addend: 0x0, symName: '__ZN145_$LT$core..option..Option$LT$T$GT$$u20$as$u20$core..ops..try_trait..FromResidual$LT$core..option..Option$LT$core..convert..Infallible$GT$$GT$$GT$13from_residual17h1a91ebb8e8eb9e37E', symObjAddr: 0x0, symBinAddr: 0xE8D4, symSize: 0x14 }
  - { offset: 0x42AFB, size: 0x8, addend: 0x0, symName: '__ZN145_$LT$core..option..Option$LT$T$GT$$u20$as$u20$core..ops..try_trait..FromResidual$LT$core..option..Option$LT$core..convert..Infallible$GT$$GT$$GT$13from_residual17h1a91ebb8e8eb9e37E', symObjAddr: 0x0, symBinAddr: 0xE8D4, symSize: 0x14 }
  - { offset: 0x4390A, size: 0x8, addend: 0x0, symName: '__ZN4core3ptr9const_ptr33_$LT$impl$u20$$BP$const$u20$T$GT$7is_null17hc426b8942e510013E', symObjAddr: 0x14, symBinAddr: 0xE8E8, symSize: 0x1C }
  - { offset: 0x43AF4, size: 0x8, addend: 0x0, symName: '__ZN4core5slice29_$LT$impl$u20$$u5b$T$u5d$$GT$15copy_from_slice17hc7be4a18c384d6f8E', symObjAddr: 0x30, symBinAddr: 0xE904, symSize: 0xA4 }
  - { offset: 0x43BBF, size: 0x8, addend: 0x0, symName: '__ZN4core5slice29_$LT$impl$u20$$u5b$T$u5d$$GT$18split_at_unchecked17h88c4a265d61e51e0E', symObjAddr: 0xD4, symBinAddr: 0xE9A8, symSize: 0xDC }
  - { offset: 0x43D54, size: 0x8, addend: 0x0, symName: '__ZN4core5slice29_$LT$impl$u20$$u5b$T$u5d$$GT$8split_at17hd3e23195a2dd2c34E', symObjAddr: 0x1B0, symBinAddr: 0xEA84, symSize: 0xD0 }
  - { offset: 0x44891, size: 0x8, addend: 0x0, symName: '__ZN4core6option15Option$LT$T$GT$10ok_or_else17h3ec20e250a8fd4f0E', symObjAddr: 0x280, symBinAddr: 0xEB54, symSize: 0x60 }
  - { offset: 0x448FC, size: 0x8, addend: 0x0, symName: '__ZN4core6option15Option$LT$T$GT$10ok_or_else17h4def976311aea9eaE', symObjAddr: 0x2E0, symBinAddr: 0xEBB4, symSize: 0x60 }
  - { offset: 0x44967, size: 0x8, addend: 0x0, symName: '__ZN4core6option15Option$LT$T$GT$10ok_or_else17h89c79fa6134c65c2E', symObjAddr: 0x340, symBinAddr: 0xEC14, symSize: 0x60 }
  - { offset: 0x44A89, size: 0x8, addend: 0x0, symName: '__ZN4core6option15Option$LT$T$GT$14unwrap_or_else17h2614fa33ce524b78E', symObjAddr: 0x3A0, symBinAddr: 0xEC74, symSize: 0x5C }
  - { offset: 0x44AEB, size: 0x8, addend: 0x0, symName: '__ZN4core6option15Option$LT$T$GT$14unwrap_or_else17h8a610dfeff3347fdE', symObjAddr: 0x3FC, symBinAddr: 0xECD0, symSize: 0x4C }
  - { offset: 0x44B4D, size: 0x8, addend: 0x0, symName: '__ZN4core6option15Option$LT$T$GT$14unwrap_or_else17he045dbd1cc157ebaE', symObjAddr: 0x448, symBinAddr: 0xED1C, symSize: 0x4C }
  - { offset: 0x44BAF, size: 0x8, addend: 0x0, symName: '__ZN4core6option15Option$LT$T$GT$6expect17hd9b546d9cfc0b4cdE', symObjAddr: 0x494, symBinAddr: 0xED68, symSize: 0x5C }
  - { offset: 0x44C14, size: 0x8, addend: 0x0, symName: '__ZN4core6option15Option$LT$T$GT$7is_none17h0b5d04985bbfea4bE', symObjAddr: 0x4F0, symBinAddr: 0xEDC4, symSize: 0x44 }
  - { offset: 0x44C6B, size: 0x8, addend: 0x0, symName: '__ZN4core6option15Option$LT$T$GT$7is_some17h340edb8ae6187eadE', symObjAddr: 0x534, symBinAddr: 0xEE08, symSize: 0x48 }
  - { offset: 0x44CA4, size: 0x8, addend: 0x0, symName: '__ZN4core6option15Option$LT$T$GT$7replace17hfa44fbb9366ebdb1E', symObjAddr: 0x57C, symBinAddr: 0xEE50, symSize: 0x34 }
  - { offset: 0x44D7D, size: 0x8, addend: 0x0, symName: '__ZN4core3ptr8non_null16NonNull$LT$T$GT$13new_unchecked18precondition_check17h498c9f894cc41dbcE', symObjAddr: 0x0, symBinAddr: 0xEE84, symSize: 0x40 }
  - { offset: 0x44E38, size: 0x8, addend: 0x0, symName: '__ZN4core3ptr8non_null16NonNull$LT$T$GT$13new_unchecked18precondition_check17h498c9f894cc41dbcE', symObjAddr: 0x0, symBinAddr: 0xEE84, symSize: 0x40 }
  - { offset: 0x44F16, size: 0x8, addend: 0x0, symName: __ZN4pyo33err5PyErr5fetch17he9847f70f0ac6a33E, symObjAddr: 0x0, symBinAddr: 0xEEC4, symSize: 0x5C }
  - { offset: 0x4698D, size: 0x8, addend: 0x0, symName: __ZN4pyo33err5PyErr5fetch17he9847f70f0ac6a33E, symObjAddr: 0x0, symBinAddr: 0xEEC4, symSize: 0x5C }
  - { offset: 0x469D9, size: 0x8, addend: 0x0, symName: __ZN4core3mem10needs_drop17haa6a81d5a2279a04E, symObjAddr: 0x0, symBinAddr: 0xEF20, symSize: 0x18 }
  - { offset: 0x47168, size: 0x8, addend: 0x0, symName: __ZN4core3mem10needs_drop17haa6a81d5a2279a04E, symObjAddr: 0x0, symBinAddr: 0xEF20, symSize: 0x18 }
  - { offset: 0x47190, size: 0x8, addend: 0x0, symName: __ZN4core3mem6forget17hde85063eb4439937E, symObjAddr: 0x18, symBinAddr: 0xEF38, symSize: 0x10 }
  - { offset: 0x47FD5, size: 0x8, addend: 0x0, symName: '__ZN4core3ptr9const_ptr33_$LT$impl$u20$$BP$const$u20$T$GT$6offset18precondition_check17h0aefc4247e321962E', symObjAddr: 0x0, symBinAddr: 0xEF48, symSize: 0xB4 }
  - { offset: 0x4808A, size: 0x8, addend: 0x0, symName: '__ZN4core3ptr9const_ptr33_$LT$impl$u20$$BP$const$u20$T$GT$6offset18precondition_check17h0aefc4247e321962E', symObjAddr: 0x0, symBinAddr: 0xEF48, symSize: 0xB4 }
  - { offset: 0x482B7, size: 0x8, addend: 0x0, symName: '__ZN4core3ptr9const_ptr33_$LT$impl$u20$$BP$const$u20$T$GT$7sub_ptr18precondition_check17h860b373efd811ea7E', symObjAddr: 0xB4, symBinAddr: 0xEFFC, symSize: 0x40 }
  - { offset: 0x48535, size: 0x8, addend: 0x0, symName: __ZN3std5panic12catch_unwind17h192c7bd384e2f6acE, symObjAddr: 0x0, symBinAddr: 0xF03C, symSize: 0xF0 }
  - { offset: 0x4A46F, size: 0x8, addend: 0x0, symName: __ZN3std5panic12catch_unwind17h192c7bd384e2f6acE, symObjAddr: 0x0, symBinAddr: 0xF03C, symSize: 0xF0 }
  - { offset: 0x4A53A, size: 0x8, addend: 0x0, symName: __ZN3std5panic12catch_unwind17he6cb10a469bd400eE, symObjAddr: 0xF0, symBinAddr: 0xF12C, symSize: 0xC4 }
  - { offset: 0x4A699, size: 0x8, addend: 0x0, symName: '__ZN106_$LT$pyo3..impl_..extract_argument..NoVarargs$u20$as$u20$pyo3..impl_..extract_argument..VarargsHandler$GT$23handle_varargs_fastcall17hd5bb686da65d1118E', symObjAddr: 0x0, symBinAddr: 0xF244, symSize: 0xA8 }
  - { offset: 0x4BE0E, size: 0x8, addend: 0x0, symName: '__ZN106_$LT$pyo3..impl_..extract_argument..NoVarargs$u20$as$u20$pyo3..impl_..extract_argument..VarargsHandler$GT$23handle_varargs_fastcall17hd5bb686da65d1118E', symObjAddr: 0x0, symBinAddr: 0xF244, symSize: 0xA8 }
  - { offset: 0x4BE81, size: 0x8, addend: 0x0, symName: '__ZN114_$LT$pyo3..impl_..extract_argument..NoVarkeywords$u20$as$u20$pyo3..impl_..extract_argument..VarkeywordsHandler$GT$17handle_varkeyword17h44550c45f1588869E', symObjAddr: 0xA8, symBinAddr: 0xF2EC, symSize: 0x60 }
  - { offset: 0x4BFC0, size: 0x8, addend: 0x0, symName: __ZN4pyo35impl_16extract_argument24unwrap_required_argument17hd0873ded65ca77a9E, symObjAddr: 0x4C0, symBinAddr: 0xF704, symSize: 0x60 }
  - { offset: 0x4C309, size: 0x8, addend: 0x0, symName: __ZN4pyo35impl_16extract_argument19FunctionDescription36find_keyword_parameter_in_positional17hf9ed0e2f54856054E, symObjAddr: 0x108, symBinAddr: 0xF34C, symSize: 0x5C }
  - { offset: 0x4C33B, size: 0x8, addend: 0x0, symName: __ZN4pyo35impl_16extract_argument19FunctionDescription38find_keyword_parameter_in_keyword_only17h77c45cae89600b51E, symObjAddr: 0x164, symBinAddr: 0xF3A8, symSize: 0x5C }
  - { offset: 0x4C833, size: 0x8, addend: 0x0, symName: __ZN4pyo35impl_16extract_argument19FunctionDescription44ensure_no_missing_required_keyword_arguments17he442ef125b183b3aE, symObjAddr: 0x1C0, symBinAddr: 0xF404, symSize: 0x160 }
  - { offset: 0x4C90C, size: 0x8, addend: 0x0, symName: __ZN4pyo35impl_16extract_argument19FunctionDescription47ensure_no_missing_required_positional_arguments17h993f219ceddb401dE, symObjAddr: 0x320, symBinAddr: 0xF564, symSize: 0x1A0 }
  - { offset: 0x4CAF5, size: 0x8, addend: 0x0, symName: '__ZN49_$LT$usize$u20$as$u20$core..iter..range..Step$GT$17forward_unchecked17hd72a1c5d67380adbE', symObjAddr: 0x0, symBinAddr: 0xF764, symSize: 0x48 }
  - { offset: 0x4CB4C, size: 0x8, addend: 0x0, symName: '__ZN49_$LT$usize$u20$as$u20$core..iter..range..Step$GT$17forward_unchecked17hd72a1c5d67380adbE', symObjAddr: 0x0, symBinAddr: 0xF764, symSize: 0x48 }
  - { offset: 0x4CBD4, size: 0x8, addend: 0x0, symName: __ZN4pyo35types3any5PyAny2py17hca616ef89fc26c46E, symObjAddr: 0x0, symBinAddr: 0xF7AC, symSize: 0x24 }
  - { offset: 0x4E0E7, size: 0x8, addend: 0x0, symName: __ZN4pyo35types3any5PyAny2py17hca616ef89fc26c46E, symObjAddr: 0x0, symBinAddr: 0xF7AC, symSize: 0x24 }
  - { offset: 0x4E10A, size: 0x8, addend: 0x0, symName: __ZN4pyo35types3any5PyAny6as_ptr17h41b2b11ae3c75550E, symObjAddr: 0x24, symBinAddr: 0xF7D0, symSize: 0x14 }
  - { offset: 0x4E14B, size: 0x8, addend: 0x0, symName: '__ZN153_$LT$core..result..Result$LT$T$C$F$GT$$u20$as$u20$core..ops..try_trait..FromResidual$LT$core..result..Result$LT$core..convert..Infallible$C$E$GT$$GT$$GT$13from_residual17h0d0b9fefa85ccac6E', symObjAddr: 0x0, symBinAddr: 0xF7E4, symSize: 0x58 }
  - { offset: 0x4F06F, size: 0x8, addend: 0x0, symName: '__ZN153_$LT$core..result..Result$LT$T$C$F$GT$$u20$as$u20$core..ops..try_trait..FromResidual$LT$core..result..Result$LT$core..convert..Infallible$C$E$GT$$GT$$GT$13from_residual17h0d0b9fefa85ccac6E', symObjAddr: 0x0, symBinAddr: 0xF7E4, symSize: 0x58 }
  - { offset: 0x4F0D7, size: 0x8, addend: 0x0, symName: '__ZN153_$LT$core..result..Result$LT$T$C$F$GT$$u20$as$u20$core..ops..try_trait..FromResidual$LT$core..result..Result$LT$core..convert..Infallible$C$E$GT$$GT$$GT$13from_residual17h3338c98c5488ca03E', symObjAddr: 0x58, symBinAddr: 0xF83C, symSize: 0x3C }
  - { offset: 0x4F13D, size: 0x8, addend: 0x0, symName: '__ZN153_$LT$core..result..Result$LT$T$C$F$GT$$u20$as$u20$core..ops..try_trait..FromResidual$LT$core..result..Result$LT$core..convert..Infallible$C$E$GT$$GT$$GT$13from_residual17h92d74bdf210548cdE', symObjAddr: 0x94, symBinAddr: 0xF878, symSize: 0x24 }
  - { offset: 0x4F1A3, size: 0x8, addend: 0x0, symName: '__ZN153_$LT$core..result..Result$LT$T$C$F$GT$$u20$as$u20$core..ops..try_trait..FromResidual$LT$core..result..Result$LT$core..convert..Infallible$C$E$GT$$GT$$GT$13from_residual17hdb2fd4cf400881bbE', symObjAddr: 0xB8, symBinAddr: 0xF89C, symSize: 0x48 }
  - { offset: 0x4F228, size: 0x8, addend: 0x0, symName: '__ZN153_$LT$core..result..Result$LT$T$C$F$GT$$u20$as$u20$core..ops..try_trait..FromResidual$LT$core..result..Result$LT$core..convert..Infallible$C$E$GT$$GT$$GT$13from_residual17hecfc60c13216275bE', symObjAddr: 0x100, symBinAddr: 0xF8E4, symSize: 0x48 }
  - { offset: 0x4F2AD, size: 0x8, addend: 0x0, symName: '__ZN153_$LT$core..result..Result$LT$T$C$F$GT$$u20$as$u20$core..ops..try_trait..FromResidual$LT$core..result..Result$LT$core..convert..Infallible$C$E$GT$$GT$$GT$13from_residual17hefe46b810e889fb1E', symObjAddr: 0x148, symBinAddr: 0xF92C, symSize: 0x2C }
  - { offset: 0x4F7AD, size: 0x8, addend: 0x0, symName: '__ZN79_$LT$core..result..Result$LT$T$C$E$GT$$u20$as$u20$core..ops..try_trait..Try$GT$6branch17h02fa98400cbf7460E', symObjAddr: 0x4C0, symBinAddr: 0xFCA4, symSize: 0x80 }
  - { offset: 0x4F82B, size: 0x8, addend: 0x0, symName: '__ZN79_$LT$core..result..Result$LT$T$C$E$GT$$u20$as$u20$core..ops..try_trait..Try$GT$6branch17h28a7fa19cef67deaE', symObjAddr: 0x540, symBinAddr: 0xFD24, symSize: 0x5C }
  - { offset: 0x4F8A5, size: 0x8, addend: 0x0, symName: '__ZN79_$LT$core..result..Result$LT$T$C$E$GT$$u20$as$u20$core..ops..try_trait..Try$GT$6branch17h2d6ead025983d6c6E', symObjAddr: 0x59C, symBinAddr: 0xFD80, symSize: 0x80 }
  - { offset: 0x4F923, size: 0x8, addend: 0x0, symName: '__ZN79_$LT$core..result..Result$LT$T$C$E$GT$$u20$as$u20$core..ops..try_trait..Try$GT$6branch17h773a6c39f87f3b33E', symObjAddr: 0x61C, symBinAddr: 0xFE00, symSize: 0x70 }
  - { offset: 0x4F9A0, size: 0x8, addend: 0x0, symName: '__ZN79_$LT$core..result..Result$LT$T$C$E$GT$$u20$as$u20$core..ops..try_trait..Try$GT$6branch17hc2d1da19f7a1b88eE', symObjAddr: 0x68C, symBinAddr: 0xFE70, symSize: 0x64 }
  - { offset: 0x4FA1C, size: 0x8, addend: 0x0, symName: '__ZN79_$LT$core..result..Result$LT$T$C$E$GT$$u20$as$u20$core..ops..try_trait..Try$GT$6branch17hed7f5fbf40d5363eE', symObjAddr: 0x6F0, symBinAddr: 0xFED4, symSize: 0x80 }
  - { offset: 0x510F5, size: 0x8, addend: 0x0, symName: '__ZN4core6result19Result$LT$T$C$E$GT$3map17ha60141d4aff80252E', symObjAddr: 0x174, symBinAddr: 0xF958, symSize: 0x80 }
  - { offset: 0x51188, size: 0x8, addend: 0x0, symName: '__ZN4core6result19Result$LT$T$C$E$GT$3map17haa4e2dd72e335883E', symObjAddr: 0x1F4, symBinAddr: 0xF9D8, symSize: 0x80 }
  - { offset: 0x5122F, size: 0x8, addend: 0x0, symName: '__ZN4core6result19Result$LT$T$C$E$GT$5is_ok17hcf75cd6dbc6cc0efE', symObjAddr: 0x274, symBinAddr: 0xFA58, symSize: 0x44 }
  - { offset: 0x512D0, size: 0x8, addend: 0x0, symName: '__ZN4core6result19Result$LT$T$C$E$GT$6expect17h8eea32be65e3dc07E', symObjAddr: 0x2B8, symBinAddr: 0xFA9C, symSize: 0xA8 }
  - { offset: 0x51333, size: 0x8, addend: 0x0, symName: '__ZN4core6result19Result$LT$T$C$E$GT$6expect17hb82b611d71a2b0e7E', symObjAddr: 0x360, symBinAddr: 0xFB44, symSize: 0x88 }
  - { offset: 0x513C6, size: 0x8, addend: 0x0, symName: '__ZN4core6result19Result$LT$T$C$E$GT$6is_err17h43ede21921774b31E', symObjAddr: 0x3E8, symBinAddr: 0xFBCC, symSize: 0x40 }
  - { offset: 0x51431, size: 0x8, addend: 0x0, symName: '__ZN4core6result19Result$LT$T$C$E$GT$7map_err17hb2a56a0b78acbd01E', symObjAddr: 0x428, symBinAddr: 0xFC0C, symSize: 0x98 }
  - { offset: 0x516A7, size: 0x8, addend: 0x0, symName: __ZN4pyo35impl_16extract_argument16extract_argument17h30f70a2717f880b1E, symObjAddr: 0x0, symBinAddr: 0xFF54, symSize: 0x124 }
  - { offset: 0x52FE2, size: 0x8, addend: 0x0, symName: __ZN4pyo35impl_16extract_argument16extract_argument17h30f70a2717f880b1E, symObjAddr: 0x0, symBinAddr: 0xFF54, symSize: 0x124 }
  - { offset: 0x53067, size: 0x8, addend: 0x0, symName: __ZN4pyo35impl_16extract_argument16extract_argument17h7865e1eb9a77b5b1E, symObjAddr: 0x124, symBinAddr: 0x10078, symSize: 0x124 }
  - { offset: 0x531F4, size: 0x8, addend: 0x0, symName: '__ZN4pyo35impl_16extract_argument19FunctionDescription36find_keyword_parameter_in_positional28_$u7b$$u7b$closure$u7d$$u7d$17hd5b4f2adc0b1c985E', symObjAddr: 0xF00, symBinAddr: 0x10E54, symSize: 0x48 }
  - { offset: 0x53254, size: 0x8, addend: 0x0, symName: '__ZN4pyo35impl_16extract_argument19FunctionDescription38find_keyword_parameter_in_keyword_only28_$u7b$$u7b$closure$u7d$$u7d$17hd20c382b0cb7ee2dE', symObjAddr: 0xF48, symBinAddr: 0x10E9C, symSize: 0x38 }
  - { offset: 0x5329B, size: 0x8, addend: 0x0, symName: '__ZN71_$LT$T$u20$as$u20$pyo3..impl_..extract_argument..PyFunctionArgument$GT$7extract17hcdce25ebf8473684E', symObjAddr: 0xF80, symBinAddr: 0x10ED4, symSize: 0x28 }
  - { offset: 0x53B5B, size: 0x8, addend: 0x0, symName: __ZN4pyo35impl_16extract_argument19FunctionDescription13handle_kwargs17h868c764824dde04fE, symObjAddr: 0x248, symBinAddr: 0x1019C, symSize: 0x724 }
  - { offset: 0x53D88, size: 0x8, addend: 0x0, symName: __ZN4pyo35impl_16extract_argument19FunctionDescription26extract_arguments_fastcall17hdfbdc763ae93eb3dE, symObjAddr: 0x96C, symBinAddr: 0x108C0, symSize: 0x594 }
  - { offset: 0x5439B, size: 0x8, addend: 0x0, symName: '__ZN4pyo310conversion13FromPyPointer23from_owned_ptr_or_panic28_$u7b$$u7b$closure$u7d$$u7d$17h289984506b742cc9E', symObjAddr: 0x0, symBinAddr: 0x10EFC, symSize: 0x14 }
  - { offset: 0x55521, size: 0x8, addend: 0x0, symName: '__ZN4pyo310conversion13FromPyPointer23from_owned_ptr_or_panic28_$u7b$$u7b$closure$u7d$$u7d$17h289984506b742cc9E', symObjAddr: 0x0, symBinAddr: 0x10EFC, symSize: 0x14 }
  - { offset: 0x55B5B, size: 0x8, addend: 0x0, symName: '__ZN76_$LT$ndarray..ArrayBase$LT$S$C$D$GT$$u20$as$u20$numpy..convert..ArrayExt$GT$11npy_strides18panic_cold_display17hcd7c6198f5e799a9E', symObjAddr: 0x0, symBinAddr: 0x91128, symSize: 0x18 }
  - { offset: 0x55B7C, size: 0x8, addend: 0x0, symName: '__ZN76_$LT$ndarray..ArrayBase$LT$S$C$D$GT$$u20$as$u20$numpy..convert..ArrayExt$GT$11npy_strides18panic_cold_display17hcd7c6198f5e799a9E', symObjAddr: 0x0, symBinAddr: 0x91128, symSize: 0x18 }
  - { offset: 0x55C11, size: 0x8, addend: 0x0, symName: __ZN4pyo35impl_10pyfunction16_wrap_pyfunction17h0954d77bf0d42170E, symObjAddr: 0x0, symBinAddr: 0x10F10, symSize: 0x50 }
  - { offset: 0x56ED2, size: 0x8, addend: 0x0, symName: __ZN4pyo35impl_10pyfunction16_wrap_pyfunction17h0954d77bf0d42170E, symObjAddr: 0x0, symBinAddr: 0x10F10, symSize: 0x50 }
  - { offset: 0x5775C, size: 0x8, addend: 0x0, symName: '__ZN51_$LT$u8$u20$as$u20$num_traits..identities..Zero$GT$4zero17hd2a27f2a9aee5f3aE', symObjAddr: 0x0, symBinAddr: 0x10F60, symSize: 0x8 }
  - { offset: 0x57778, size: 0x8, addend: 0x0, symName: '__ZN51_$LT$u8$u20$as$u20$num_traits..identities..Zero$GT$4zero17hd2a27f2a9aee5f3aE', symObjAddr: 0x0, symBinAddr: 0x10F60, symSize: 0x8 }
  - { offset: 0x577BD, size: 0x8, addend: 0x0, symName: '__ZN108_$LT$core..iter..adapters..filter..Filter$LT$I$C$P$GT$$u20$as$u20$core..iter..traits..iterator..Iterator$GT$8try_fold17hb5b9014504580a02E', symObjAddr: 0x0, symBinAddr: 0x10F68, symSize: 0x34 }
  - { offset: 0x577E3, size: 0x8, addend: 0x0, symName: '__ZN108_$LT$core..iter..adapters..filter..Filter$LT$I$C$P$GT$$u20$as$u20$core..iter..traits..iterator..Iterator$GT$8try_fold17hb5b9014504580a02E', symObjAddr: 0x0, symBinAddr: 0x10F68, symSize: 0x34 }
  - { offset: 0x5785E, size: 0x8, addend: 0x0, symName: '__ZN4core4iter8adapters6filter15filter_try_fold28_$u7b$$u7b$closure$u7d$$u7d$17h37f639ae7c3d93efE', symObjAddr: 0x34, symBinAddr: 0x10F9C, symSize: 0x108 }
  - { offset: 0x57AC7, size: 0x8, addend: 0x0, symName: '__ZN9hashbrown3raw21RawTable$LT$T$C$A$GT$14reserve_rehash28_$u7b$$u7b$closure$u7d$$u7d$17h2a4630dcc82eb2d3E', symObjAddr: 0x535C, symBinAddr: 0x13130, symSize: 0xC4 }
  - { offset: 0x57C90, size: 0x8, addend: 0x0, symName: '__ZN9hashbrown3raw21RawTable$LT$T$C$A$GT$14reserve_rehash28_$u7b$$u7b$closure$u7d$$u7d$17h4d61048a3266ed1cE', symObjAddr: 0x5420, symBinAddr: 0x131F4, symSize: 0x30 }
  - { offset: 0x57CE0, size: 0x8, addend: 0x0, symName: '__ZN9hashbrown3raw21RawTable$LT$T$C$A$GT$14reserve_rehash28_$u7b$$u7b$closure$u7d$$u7d$17hb46c178e24051149E', symObjAddr: 0x5514, symBinAddr: 0x13224, symSize: 0xC4 }
  - { offset: 0x57EB6, size: 0x8, addend: 0x0, symName: '__ZN9hashbrown3raw21RawTable$LT$T$C$A$GT$24find_or_find_insert_slot28_$u7b$$u7b$closure$u7d$$u7d$17h1ee963b013989956E', symObjAddr: 0x57E0, symBinAddr: 0x134C0, symSize: 0xC8 }
  - { offset: 0x58091, size: 0x8, addend: 0x0, symName: '__ZN9hashbrown3raw21RawTable$LT$T$C$A$GT$4find28_$u7b$$u7b$closure$u7d$$u7d$17h589c868652e44b0cE', symObjAddr: 0x69D8, symBinAddr: 0x13F60, symSize: 0xC8 }
  - { offset: 0x5825D, size: 0x8, addend: 0x0, symName: '__ZN9hashbrown3raw21RawTable$LT$T$C$A$GT$4find28_$u7b$$u7b$closure$u7d$$u7d$17h86013e9a95d11428E', symObjAddr: 0x6B68, symBinAddr: 0x14028, symSize: 0xC8 }
  - { offset: 0x58429, size: 0x8, addend: 0x0, symName: '__ZN9hashbrown3raw21RawTable$LT$T$C$A$GT$4find28_$u7b$$u7b$closure$u7d$$u7d$17hce7eb43217892793E', symObjAddr: 0x6C30, symBinAddr: 0x140F0, symSize: 0xC8 }
  - { offset: 0x59197, size: 0x8, addend: 0x0, symName: '__ZN79_$LT$hashbrown..raw..RawTable$LT$T$C$A$GT$$u20$as$u20$core..ops..drop..Drop$GT$4drop17h6b0e66835f596732E', symObjAddr: 0x3C, symBinAddr: 0x110B8, symSize: 0x3C }
  - { offset: 0x591D3, size: 0x8, addend: 0x0, symName: '__ZN79_$LT$hashbrown..raw..RawTable$LT$T$C$A$GT$$u20$as$u20$core..ops..drop..Drop$GT$4drop17he7ec82b5ad7daa8bE', symObjAddr: 0xB4, symBinAddr: 0x110F4, symSize: 0x3C }
  - { offset: 0x5E55E, size: 0x8, addend: 0x0, symName: __ZN9hashbrown3raw11TableLayout20calculate_layout_for17hed717e60cced948fE, symObjAddr: 0xF0, symBinAddr: 0x11130, symSize: 0x214 }
  - { offset: 0x5E9BA, size: 0x8, addend: 0x0, symName: __ZN9hashbrown3raw13RawTableInner13drop_elements17h122cd8afba2f5a41E, symObjAddr: 0x304, symBinAddr: 0x11344, symSize: 0x174 }
  - { offset: 0x5ECF9, size: 0x8, addend: 0x0, symName: __ZN9hashbrown3raw13RawTableInner13drop_elements17hd9fbd72915e1cb97E, symObjAddr: 0x760, symBinAddr: 0x114B8, symSize: 0x28 }
  - { offset: 0x5EFAC, size: 0x8, addend: 0x0, symName: __ZN9hashbrown3raw13RawTableInner15fix_insert_slot17ha4333f967dc9d56bE, symObjAddr: 0x788, symBinAddr: 0x114E0, symSize: 0x118 }
  - { offset: 0x5F4A3, size: 0x8, addend: 0x0, symName: __ZN9hashbrown3raw13RawTableInner15rehash_in_place17he0e384a732b92a48E, symObjAddr: 0x8A0, symBinAddr: 0x115F8, symSize: 0x574 }
  - { offset: 0x6013C, size: 0x8, addend: 0x0, symName: __ZN9hashbrown3raw13RawTableInner16drop_inner_table17hb2035eeddcc5563dE, symObjAddr: 0xED0, symBinAddr: 0x11B6C, symSize: 0xBC }
  - { offset: 0x603E0, size: 0x8, addend: 0x0, symName: __ZN9hashbrown3raw13RawTableInner16drop_inner_table17hcb09290d1fe50b41E, symObjAddr: 0xF8C, symBinAddr: 0x11C28, symSize: 0xBC }
  - { offset: 0x60677, size: 0x8, addend: 0x0, symName: __ZN9hashbrown3raw13RawTableInner16find_insert_slot17hc57377269ff8d5d8E, symObjAddr: 0x1104, symBinAddr: 0x11CE4, symSize: 0x10C }
  - { offset: 0x609C1, size: 0x8, addend: 0x0, symName: __ZN9hashbrown3raw13RawTableInner23prepare_rehash_in_place17h3a2515513276eeb7E, symObjAddr: 0x1210, symBinAddr: 0x11DF0, symSize: 0x25C }
  - { offset: 0x610A2, size: 0x8, addend: 0x0, symName: __ZN9hashbrown3raw13RawTableInner25find_insert_slot_in_group17h88191c05e16b575fE, symObjAddr: 0x146C, symBinAddr: 0x1204C, symSize: 0x160 }
  - { offset: 0x613B7, size: 0x8, addend: 0x0, symName: __ZN9hashbrown3raw13RawTableInner30find_or_find_insert_slot_inner17hd5a607a674b327cbE, symObjAddr: 0x15CC, symBinAddr: 0x121AC, symSize: 0x2F8 }
  - { offset: 0x61851, size: 0x8, addend: 0x0, symName: __ZN9hashbrown3raw13RawTableInner5erase17h3c96df3a78164f60E, symObjAddr: 0x18C4, symBinAddr: 0x124A4, symSize: 0x1B0 }
  - { offset: 0x61C4A, size: 0x8, addend: 0x0, symName: '__ZN9hashbrown3raw21RawIterRange$LT$T$GT$3new17h744d118519250007E', symObjAddr: 0x1B18, symBinAddr: 0x12654, symSize: 0xA4 }
  - { offset: 0x61E2F, size: 0x8, addend: 0x0, symName: '__ZN9hashbrown3raw21RawIterRange$LT$T$GT$3new17hdb925cbe21f32c19E', symObjAddr: 0x1C60, symBinAddr: 0x126F8, symSize: 0xA4 }
  - { offset: 0x62113, size: 0x8, addend: 0x0, symName: '__ZN9hashbrown3raw21RawIterRange$LT$T$GT$9next_impl17h6545fbf0d16d239bE', symObjAddr: 0x1D04, symBinAddr: 0x1279C, symSize: 0x1C8 }
  - { offset: 0x624EB, size: 0x8, addend: 0x0, symName: '__ZN9hashbrown3raw21RawIterRange$LT$T$GT$9next_impl17h7a4a3b96f827f629E', symObjAddr: 0x2094, symBinAddr: 0x12964, symSize: 0x1C8 }
  - { offset: 0x62798, size: 0x8, addend: 0x0, symName: '__ZN9hashbrown3raw21RawTable$LT$T$C$A$GT$12remove_entry17h327c0c76da883ea9E', symObjAddr: 0x2424, symBinAddr: 0x12B2C, symSize: 0xB4 }
  - { offset: 0x6281F, size: 0x8, addend: 0x0, symName: '__ZN9hashbrown3raw21RawTable$LT$T$C$A$GT$12remove_entry17he1325a32528d3aedE', symObjAddr: 0x24D8, symBinAddr: 0x12BE0, symSize: 0xA4 }
  - { offset: 0x62958, size: 0x8, addend: 0x0, symName: '__ZN9hashbrown3raw21RawTable$LT$T$C$A$GT$13erase_no_drop17ha93e3b37a1c1f9beE', symObjAddr: 0x257C, symBinAddr: 0x12C84, symSize: 0x98 }
  - { offset: 0x62B95, size: 0x8, addend: 0x0, symName: '__ZN9hashbrown3raw21RawTable$LT$T$C$A$GT$13erase_no_drop17hcc348883928ec231E', symObjAddr: 0x2614, symBinAddr: 0x12D1C, symSize: 0x98 }
  - { offset: 0x62F41, size: 0x8, addend: 0x0, symName: '__ZN9hashbrown3raw21RawTable$LT$T$C$A$GT$14insert_in_slot17h1f065795f8ea55d3E', symObjAddr: 0x26AC, symBinAddr: 0x12DB4, symSize: 0x190 }
  - { offset: 0x635E4, size: 0x8, addend: 0x0, symName: '__ZN9hashbrown3raw21RawTable$LT$T$C$A$GT$14insert_no_grow17h91f37ef35383dd7dE', symObjAddr: 0x2A30, symBinAddr: 0x12F44, symSize: 0x1EC }
  - { offset: 0x63F75, size: 0x8, addend: 0x0, symName: '__ZN9hashbrown3raw21RawTable$LT$T$C$A$GT$14reserve_rehash17h1028511b03d2c510E', symObjAddr: 0x2E10, symBinAddr: 0x91140, symSize: 0x914 }
  - { offset: 0x64A7A, size: 0x8, addend: 0x0, symName: '__ZN9hashbrown3raw21RawTable$LT$T$C$A$GT$14reserve_rehash17ha34465e978204711E', symObjAddr: 0x3724, symBinAddr: 0x91A54, symSize: 0x90C }
  - { offset: 0x65869, size: 0x8, addend: 0x0, symName: '__ZN9hashbrown3raw21RawTable$LT$T$C$A$GT$16with_capacity_in17h4fec073605d52f5dE', symObjAddr: 0x5608, symBinAddr: 0x132E8, symSize: 0x98 }
  - { offset: 0x659CB, size: 0x8, addend: 0x0, symName: '__ZN9hashbrown3raw21RawTable$LT$T$C$A$GT$24find_or_find_insert_slot17h38284f8fb660fdabE', symObjAddr: 0x56A0, symBinAddr: 0x13380, symSize: 0x140 }
  - { offset: 0x65F6D, size: 0x8, addend: 0x0, symName: '__ZN9hashbrown3raw21RawTable$LT$T$C$A$GT$4find17h84b21f47288f0170E', symObjAddr: 0x5BF0, symBinAddr: 0x13588, symSize: 0x348 }
  - { offset: 0x66522, size: 0x8, addend: 0x0, symName: '__ZN9hashbrown3raw21RawTable$LT$T$C$A$GT$4find17hbd38ab7e254bef53E', symObjAddr: 0x5F38, symBinAddr: 0x138D0, symSize: 0x348 }
  - { offset: 0x66AD7, size: 0x8, addend: 0x0, symName: '__ZN9hashbrown3raw21RawTable$LT$T$C$A$GT$4find17hc54521a7a1846cd1E', symObjAddr: 0x6280, symBinAddr: 0x13C18, symSize: 0x348 }
  - { offset: 0x6748A, size: 0x8, addend: 0x0, symName: '__ZN9hashbrown3raw21RawTable$LT$T$C$A$GT$6remove17h5c93370742a518fdE', symObjAddr: 0x6CF8, symBinAddr: 0x141B8, symSize: 0x124 }
  - { offset: 0x677B4, size: 0x8, addend: 0x0, symName: '__ZN9hashbrown3raw21RawTable$LT$T$C$A$GT$6remove17h962fde15b889df1cE', symObjAddr: 0x6E1C, symBinAddr: 0x142DC, symSize: 0x124 }
  - { offset: 0x67A20, size: 0x8, addend: 0x0, symName: '__ZN9hashbrown3raw21RawTable$LT$T$C$A$GT$7reserve17h9a37b8a2bf2e6739E', symObjAddr: 0x70D8, symBinAddr: 0x14400, symSize: 0xCC }
  - { offset: 0x67B35, size: 0x8, addend: 0x0, symName: '__ZN9hashbrown3raw21RawTable$LT$T$C$A$GT$7reserve17ha11b907a6ce2a7a3E', symObjAddr: 0x71A4, symBinAddr: 0x144CC, symSize: 0xCC }
  - { offset: 0x67C38, size: 0x8, addend: 0x0, symName: __ZN5numpy6npyffi5array10PyArrayAPI3get17he19e1949bdf08aa2E, symObjAddr: 0x0, symBinAddr: 0x14598, symSize: 0x8C }
  - { offset: 0x67C61, size: 0x8, addend: 0x0, symName: __ZN5numpy6npyffi5array12PY_ARRAY_API17h667903c58bccf3d2E, symObjAddr: 0x42228, symBinAddr: 0xE4850, symSize: 0x0 }
  - { offset: 0x6A387, size: 0x8, addend: 0x0, symName: '__ZN5numpy6npyffi5array10PyArrayAPI3get28_$u7b$$u7b$closure$u7d$$u7d$17he81301dc4699924fE', symObjAddr: 0x8C, symBinAddr: 0x14624, symSize: 0x40 }
  - { offset: 0x6A3D2, size: 0x8, addend: 0x0, symName: __ZN5numpy6npyffi5array13PyArray_Check17h7b98bd64a6c2f236E, symObjAddr: 0xCC, symBinAddr: 0x14664, symSize: 0x44 }
  - { offset: 0x6CCDB, size: 0x8, addend: 0x0, symName: __ZN5numpy6npyffi5array10PyArrayAPI3get17he19e1949bdf08aa2E, symObjAddr: 0x0, symBinAddr: 0x14598, symSize: 0x8C }
  - { offset: 0x6D534, size: 0x8, addend: 0x0, symName: __ZN5numpy6npyffi5array10PyArrayAPI21PyArray_DescrFromType17h2d66312d3df7ca15E, symObjAddr: 0x420, symBinAddr: 0x146A8, symSize: 0x78 }
  - { offset: 0x6D5AB, size: 0x8, addend: 0x0, symName: __ZN5numpy6npyffi5array10PyArrayAPI20PyArray_NewFromDescr17h06c8df39a0969c12E, symObjAddr: 0x1E80, symBinAddr: 0x14720, symSize: 0xD0 }
  - { offset: 0x6D72E, size: 0x8, addend: 0x0, symName: __ZN5numpy6npyffi5array10PyArrayAPI18PyArray_EquivTypes17h676f708706d9c84aE, symObjAddr: 0x4E34, symBinAddr: 0x147F0, symSize: 0x84 }
  - { offset: 0x6D82C, size: 0x8, addend: 0x0, symName: __ZN5numpy6npyffi5array10PyArrayAPI21PyArray_SetBaseObject17h261a948172a7e713E, symObjAddr: 0x7FF0, symBinAddr: 0x14874, symSize: 0x84 }
  - { offset: 0x6D908, size: 0x8, addend: 0x0, symName: __ZN5numpy6npyffi5array10PyArrayAPI15get_type_object17h55d7dacc4fdac11aE, symObjAddr: 0x8AE8, symBinAddr: 0x148F8, symSize: 0xBEC }
  - { offset: 0x6DAA2, size: 0x8, addend: 0x0, symName: '__ZN102_$LT$core..iter..adapters..zip..Zip$LT$A$C$B$GT$$u20$as$u20$core..iter..traits..iterator..Iterator$GT$4next17h7a1bd8e5c0dc2a02E', symObjAddr: 0x0, symBinAddr: 0x154E4, symSize: 0x24 }
  - { offset: 0x6DB58, size: 0x8, addend: 0x0, symName: '__ZN45_$LT$T$u20$as$u20$alloc..string..ToString$GT$9to_string17h3df493252153c893E', symObjAddr: 0x360, symBinAddr: 0x1581C, symSize: 0x124 }
  - { offset: 0x6DC73, size: 0x8, addend: 0x0, symName: '__ZN45_$LT$T$u20$as$u20$alloc..string..ToString$GT$9to_string17hce17af59e16ba0f4E', symObjAddr: 0x6CC, symBinAddr: 0x15940, symSize: 0x124 }
  - { offset: 0x6DD94, size: 0x8, addend: 0x0, symName: '__ZN65_$LT$alloc..string..String$u20$as$u20$core..ops..deref..Deref$GT$5deref17hfb0a91e093da4ff5E', symObjAddr: 0x4A00, symBinAddr: 0x1838C, symSize: 0x24 }
  - { offset: 0x6DDC8, size: 0x8, addend: 0x0, symName: '__ZN58_$LT$alloc..string..String$u20$as$u20$core..fmt..Write$GT$10write_char17he340cdba74507807E', symObjAddr: 0x3F9C, symBinAddr: 0x17A18, symSize: 0x30 }
  - { offset: 0x6DE05, size: 0x8, addend: 0x0, symName: '__ZN58_$LT$alloc..string..String$u20$as$u20$core..fmt..Write$GT$9write_str17h898760dc12beed68E', symObjAddr: 0x3FCC, symBinAddr: 0x17A48, symSize: 0x38 }
  - { offset: 0x6E14C, size: 0x8, addend: 0x0, symName: __ZN5alloc5alloc12alloc_zeroed17h8bf28ba3f1f76b2dE, symObjAddr: 0x423C, symBinAddr: 0x17BC8, symSize: 0x88 }
  - { offset: 0x6E21C, size: 0x8, addend: 0x0, symName: '__ZN63_$LT$alloc..alloc..Global$u20$as$u20$core..alloc..Allocator$GT$10deallocate17h9f07779829e94cf9E', symObjAddr: 0x48DC, symBinAddr: 0x18268, symSize: 0x8C }
  - { offset: 0x6E300, size: 0x8, addend: 0x0, symName: '__ZN63_$LT$alloc..alloc..Global$u20$as$u20$core..alloc..Allocator$GT$8allocate17hcef59fb1eb2e4224E', symObjAddr: 0x4968, symBinAddr: 0x182F4, symSize: 0x34 }
  - { offset: 0x6E33E, size: 0x8, addend: 0x0, symName: __ZN5alloc5alloc15exchange_malloc17h3653aabc03f6fe04E, symObjAddr: 0x42C4, symBinAddr: 0x17C50, symSize: 0xA8 }
  - { offset: 0x6E44D, size: 0x8, addend: 0x0, symName: __ZN5alloc5alloc5alloc17h1754f905dfd1eea1E, symObjAddr: 0x436C, symBinAddr: 0x17CF8, symSize: 0x88 }
  - { offset: 0x6E8E0, size: 0x8, addend: 0x0, symName: '__ZN64_$LT$alloc..ffi..c_str..NulError$u20$as$u20$core..fmt..Debug$GT$3fmt17h362c3b58c83b3474E', symObjAddr: 0x49A4, symBinAddr: 0x18330, symSize: 0x5C }
  - { offset: 0x6E920, size: 0x8, addend: 0x0, symName: '__ZN70_$LT$alloc..ffi..c_str..CString$u20$as$u20$core..ops..deref..Deref$GT$5deref17h2967c06e1beaa4d0E', symObjAddr: 0x4AA8, symBinAddr: 0x18400, symSize: 0x28 }
  - { offset: 0x6EBA1, size: 0x8, addend: 0x0, symName: '__ZN4core3ptr8non_null16NonNull$LT$T$GT$13new_unchecked18precondition_check17h354ef4335a91b744E', symObjAddr: 0x20D0, symBinAddr: 0x16510, symSize: 0x40 }
  - { offset: 0x6F25D, size: 0x8, addend: 0x0, symName: '__ZN4core3ptr101drop_in_place$LT$hashbrown..raw..RawTable$LT$$LP$numpy..borrow..shared..BorrowKey$C$isize$RP$$GT$$GT$17h897cc5a0f5f2f417E', symObjAddr: 0x16F0, symBinAddr: 0x16150, symSize: 0x24 }
  - { offset: 0x6F28C, size: 0x8, addend: 0x0, symName: '__ZN4core3ptr107drop_in_place$LT$pyo3..pyclass_init..PyClassInitializer$LT$numpy..slice_container..PySliceContainer$GT$$GT$17h1ce33cb45314b578E', symObjAddr: 0x175C, symBinAddr: 0x16174, symSize: 0x24 }
  - { offset: 0x6F2BB, size: 0x8, addend: 0x0, symName: '__ZN4core3ptr108drop_in_place$LT$core..result..Result$LT$$LP$$RP$$C$alloc..borrow..Cow$LT$core..ffi..c_str..CStr$GT$$GT$$GT$17h08caf1c8282a536fE', symObjAddr: 0x1780, symBinAddr: 0x16198, symSize: 0x44 }
  - { offset: 0x6F2EA, size: 0x8, addend: 0x0, symName: '__ZN4core3ptr111drop_in_place$LT$pyo3..pyclass_init..PyClassInitializerImpl$LT$numpy..slice_container..PySliceContainer$GT$$GT$17hcc422b92cf43fc3fE', symObjAddr: 0x17C4, symBinAddr: 0x161DC, symSize: 0x54 }
  - { offset: 0x6F319, size: 0x8, addend: 0x0, symName: '__ZN4core3ptr124drop_in_place$LT$alloc..boxed..Box$LT$core..mem..maybe_uninit..MaybeUninit$LT$numpy..borrow..shared..BorrowFlags$GT$$GT$$GT$17h5eba258cc26fb743E', symObjAddr: 0x1884, symBinAddr: 0x16230, symSize: 0x2C }
  - { offset: 0x6F348, size: 0x8, addend: 0x0, symName: '__ZN4core3ptr143drop_in_place$LT$pyo3..err..PyErr..new$LT$pyo3..exceptions..PyTypeError$C$numpy..error..TypeErrorArguments$GT$..$u7b$$u7b$closure$u7d$$u7d$$GT$17h82080ad18bab771fE', symObjAddr: 0x1994, symBinAddr: 0x1625C, symSize: 0x24 }
  - { offset: 0x6F377, size: 0x8, addend: 0x0, symName: '__ZN4core3ptr153drop_in_place$LT$hashbrown..map..HashMap$LT$numpy..borrow..shared..BorrowKey$C$isize$C$core..hash..BuildHasherDefault$LT$rustc_hash..FxHasher$GT$$GT$$GT$17h65942d2c79ba759eE', symObjAddr: 0x19C8, symBinAddr: 0x16280, symSize: 0x24 }
  - { offset: 0x6F3A6, size: 0x8, addend: 0x0, symName: '__ZN4core3ptr163drop_in_place$LT$pyo3..types..capsule..CapsuleContents$LT$numpy..borrow..shared..Shared$C$numpy..borrow..shared..insert_shared..$u7b$$u7b$closure$u7d$$u7d$$GT$$GT$17hc42931eb469e4805E', symObjAddr: 0x1A10, symBinAddr: 0x162A4, symSize: 0x24 }
  - { offset: 0x6F3D5, size: 0x8, addend: 0x0, symName: '__ZN4core3ptr166drop_in_place$LT$std..collections..hash..map..HashMap$LT$numpy..borrow..shared..BorrowKey$C$isize$C$core..hash..BuildHasherDefault$LT$rustc_hash..FxHasher$GT$$GT$$GT$17hf8ab7684b6882794E', symObjAddr: 0x1A34, symBinAddr: 0x162C8, symSize: 0x24 }
  - { offset: 0x6F404, size: 0x8, addend: 0x0, symName: '__ZN4core3ptr194drop_in_place$LT$core..option..Option$LT$std..collections..hash..map..HashMap$LT$numpy..borrow..shared..BorrowKey$C$isize$C$core..hash..BuildHasherDefault$LT$rustc_hash..FxHasher$GT$$GT$$GT$$GT$17hff9fb3c9e42d9998E', symObjAddr: 0x1AA0, symBinAddr: 0x162EC, symSize: 0x44 }
  - { offset: 0x6F433, size: 0x8, addend: 0x0, symName: '__ZN4core3ptr206drop_in_place$LT$$LP$$BP$mut$u20$core..ffi..c_void$C$std..collections..hash..map..HashMap$LT$numpy..borrow..shared..BorrowKey$C$isize$C$core..hash..BuildHasherDefault$LT$rustc_hash..FxHasher$GT$$GT$$RP$$GT$17h00a8ee871aff4cd7E', symObjAddr: 0x1AE4, symBinAddr: 0x16330, symSize: 0x24 }
  - { offset: 0x6F462, size: 0x8, addend: 0x0, symName: '__ZN4core3ptr238drop_in_place$LT$hashbrown..raw..RawTable$LT$$LP$$BP$mut$u20$core..ffi..c_void$C$std..collections..hash..map..HashMap$LT$numpy..borrow..shared..BorrowKey$C$isize$C$core..hash..BuildHasherDefault$LT$rustc_hash..FxHasher$GT$$GT$$RP$$GT$$GT$17h451e33c67d4bc254E', symObjAddr: 0x1B94, symBinAddr: 0x16354, symSize: 0x24 }
  - { offset: 0x6F491, size: 0x8, addend: 0x0, symName: '__ZN4core3ptr290drop_in_place$LT$hashbrown..map..HashMap$LT$$BP$mut$u20$core..ffi..c_void$C$std..collections..hash..map..HashMap$LT$numpy..borrow..shared..BorrowKey$C$isize$C$core..hash..BuildHasherDefault$LT$rustc_hash..FxHasher$GT$$GT$$C$core..hash..BuildHasherDefault$LT$rustc_hash..FxHasher$GT$$GT$$GT$17h75ca9d70a635c28fE', symObjAddr: 0x1D18, symBinAddr: 0x16378, symSize: 0x24 }
  - { offset: 0x6F4C0, size: 0x8, addend: 0x0, symName: '__ZN4core3ptr303drop_in_place$LT$std..collections..hash..map..HashMap$LT$$BP$mut$u20$core..ffi..c_void$C$std..collections..hash..map..HashMap$LT$numpy..borrow..shared..BorrowKey$C$isize$C$core..hash..BuildHasherDefault$LT$rustc_hash..FxHasher$GT$$GT$$C$core..hash..BuildHasherDefault$LT$rustc_hash..FxHasher$GT$$GT$$GT$17h80c1d0397f2e8c0eE', symObjAddr: 0x1D3C, symBinAddr: 0x1639C, symSize: 0x24 }
  - { offset: 0x6F4EF, size: 0x8, addend: 0x0, symName: '__ZN4core3ptr53drop_in_place$LT$numpy..error..TypeErrorArguments$GT$17h6c7fdade372bb3c9E', symObjAddr: 0x1E5C, symBinAddr: 0x163C0, symSize: 0x60 }
  - { offset: 0x6F51E, size: 0x8, addend: 0x0, symName: '__ZN4core3ptr55drop_in_place$LT$numpy..borrow..shared..BorrowFlags$GT$17h9692a601cd7b66e1E', symObjAddr: 0x1EEC, symBinAddr: 0x16420, symSize: 0x24 }
  - { offset: 0x6F54D, size: 0x8, addend: 0x0, symName: '__ZN4core3ptr61drop_in_place$LT$numpy..slice_container..PySliceContainer$GT$17h4da999c6f1d4a8a9E', symObjAddr: 0x1F30, symBinAddr: 0x16444, symSize: 0x24 }
  - { offset: 0x6F57C, size: 0x8, addend: 0x0, symName: '__ZN4core3ptr73drop_in_place$LT$pyo3..instance..Py$LT$numpy..dtype..PyArrayDescr$GT$$GT$17h104b0ae7e5ccea7dE', symObjAddr: 0x1FA4, symBinAddr: 0x16468, symSize: 0x24 }
  - { offset: 0x6F5AB, size: 0x8, addend: 0x0, symName: '__ZN4core3ptr80drop_in_place$LT$alloc..boxed..Box$LT$numpy..borrow..shared..BorrowFlags$GT$$GT$17habfdf990c237f776E', symObjAddr: 0x1FC8, symBinAddr: 0x1648C, symSize: 0x60 }
  - { offset: 0x6F5DA, size: 0x8, addend: 0x0, symName: '__ZN4core3ptr87drop_in_place$LT$pyo3..instance..Py$LT$numpy..slice_container..PySliceContainer$GT$$GT$17h9d4200003979da57E', symObjAddr: 0x2088, symBinAddr: 0x164EC, symSize: 0x24 }
  - { offset: 0x6F8B2, size: 0x8, addend: 0x0, symName: '__ZN4core3ptr9const_ptr33_$LT$impl$u20$$BP$const$u20$T$GT$11offset_from17h87dad3e76ec2f1ddE', symObjAddr: 0x22D4, symBinAddr: 0x16624, symSize: 0x48 }
  - { offset: 0x6F9BF, size: 0x8, addend: 0x0, symName: '__ZN4core3ptr9const_ptr33_$LT$impl$u20$$BP$const$u20$T$GT$6offset18precondition_check17h5fb39158b4308a57E', symObjAddr: 0x231C, symBinAddr: 0x1666C, symSize: 0xB4 }
  - { offset: 0x6FBEC, size: 0x8, addend: 0x0, symName: '__ZN4core3ptr9const_ptr33_$LT$impl$u20$$BP$const$u20$T$GT$7sub_ptr18precondition_check17h20b74fbb959afbadE', symObjAddr: 0x23D0, symBinAddr: 0x16720, symSize: 0x40 }
  - { offset: 0x6FD33, size: 0x8, addend: 0x0, symName: '__ZN4core3ptr91drop_in_place$LT$core..cell..UnsafeCell$LT$numpy..slice_container..PySliceContainer$GT$$GT$17hd9380e546c42ed38E', symObjAddr: 0x2218, symBinAddr: 0x16600, symSize: 0x24 }
  - { offset: 0x70B15, size: 0x8, addend: 0x0, symName: '__ZN145_$LT$core..option..Option$LT$T$GT$$u20$as$u20$core..ops..try_trait..FromResidual$LT$core..option..Option$LT$core..convert..Infallible$GT$$GT$$GT$13from_residual17hb62e1f14b62552d6E', symObjAddr: 0x240, symBinAddr: 0x156FC, symSize: 0x14 }
  - { offset: 0x70B57, size: 0x8, addend: 0x0, symName: '__ZN145_$LT$core..option..Option$LT$T$GT$$u20$as$u20$core..ops..try_trait..FromResidual$LT$core..option..Option$LT$core..convert..Infallible$GT$$GT$$GT$13from_residual17hd9b4764221c70057E', symObjAddr: 0x254, symBinAddr: 0x15710, symSize: 0x14 }
  - { offset: 0x723F2, size: 0x8, addend: 0x0, symName: __ZN4core4hash6Hasher11write_isize17h8e8ade0baa1ae6e7E, symObjAddr: 0x2410, symBinAddr: 0x16760, symSize: 0x28 }
  - { offset: 0x727F3, size: 0x8, addend: 0x0, symName: '__ZN102_$LT$core..iter..adapters..zip..Zip$LT$A$C$B$GT$$u20$as$u20$core..iter..traits..iterator..Iterator$GT$4next17h7a1bd8e5c0dc2a02E', symObjAddr: 0x0, symBinAddr: 0x154E4, symSize: 0x24 }
  - { offset: 0x72837, size: 0x8, addend: 0x0, symName: '__ZN111_$LT$core..iter..adapters..zip..Zip$LT$A$C$B$GT$$u20$as$u20$core..iter..adapters..zip..ZipImpl$LT$A$C$B$GT$$GT$3new17hcb8040c44663db7cE', symObjAddr: 0x9C, symBinAddr: 0x15580, symSize: 0xC4 }
  - { offset: 0x7290E, size: 0x8, addend: 0x0, symName: '__ZN111_$LT$core..iter..adapters..zip..Zip$LT$A$C$B$GT$$u20$as$u20$core..iter..adapters..zip..ZipImpl$LT$A$C$B$GT$$GT$4next17h56a6a154c42bb0acE', symObjAddr: 0x160, symBinAddr: 0x15644, symSize: 0xB8 }
  - { offset: 0x729D7, size: 0x8, addend: 0x0, symName: '__ZN4core4iter6traits8iterator8Iterator3any5check28_$u7b$$u7b$closure$u7d$$u7d$17h1a6e94cf17b17315E', symObjAddr: 0x2454, symBinAddr: 0x16788, symSize: 0x58 }
  - { offset: 0x72A33, size: 0x8, addend: 0x0, symName: '__ZN4core4iter6traits8iterator8Iterator3any5check28_$u7b$$u7b$closure$u7d$$u7d$17h7a3d9735e137eca6E', symObjAddr: 0x24AC, symBinAddr: 0x167E0, symSize: 0x58 }
  - { offset: 0x72A9D, size: 0x8, addend: 0x0, symName: '__ZN63_$LT$I$u20$as$u20$core..iter..traits..collect..IntoIterator$GT$9into_iter17h00338f39fe6db78aE', symObjAddr: 0x48AC, symBinAddr: 0x18238, symSize: 0x30 }
  - { offset: 0x73625, size: 0x8, addend: 0x0, symName: '__ZN48_$LT$usize$u20$as$u20$core..ops..bit..BitXor$GT$6bitxor17h8e2eb670f9fdc127E', symObjAddr: 0x914, symBinAddr: 0x15A64, symSize: 0x18 }
  - { offset: 0x7366E, size: 0x8, addend: 0x0, symName: __ZN4core3ops8function5FnMut8call_mut17ha3b6761847684f55E, symObjAddr: 0xD68, symBinAddr: 0x15C28, symSize: 0x60 }
  - { offset: 0x736DD, size: 0x8, addend: 0x0, symName: '__ZN4core3ops8function6FnOnce40call_once$u7b$$u7b$vtable.shim$u7d$$u7d$17h0fcce9529d81a0beE', symObjAddr: 0xE00, symBinAddr: 0x15C88, symSize: 0x38 }
  - { offset: 0x73721, size: 0x8, addend: 0x0, symName: '__ZN4core3ops8function6FnOnce40call_once$u7b$$u7b$vtable.shim$u7d$$u7d$17h1e25c07e422fb002E', symObjAddr: 0xE38, symBinAddr: 0x15CC0, symSize: 0x38 }
  - { offset: 0x73765, size: 0x8, addend: 0x0, symName: '__ZN4core3ops8function6FnOnce40call_once$u7b$$u7b$vtable.shim$u7d$$u7d$17h22420bca0f92627aE', symObjAddr: 0xE70, symBinAddr: 0x15CF8, symSize: 0x38 }
  - { offset: 0x737A9, size: 0x8, addend: 0x0, symName: '__ZN4core3ops8function6FnOnce40call_once$u7b$$u7b$vtable.shim$u7d$$u7d$17h579249716426b5cfE', symObjAddr: 0xEA8, symBinAddr: 0x15D30, symSize: 0x38 }
  - { offset: 0x737ED, size: 0x8, addend: 0x0, symName: '__ZN4core3ops8function6FnOnce40call_once$u7b$$u7b$vtable.shim$u7d$$u7d$17h58b4e5cf0325ead3E', symObjAddr: 0xF04, symBinAddr: 0x15D68, symSize: 0x30 }
  - { offset: 0x73831, size: 0x8, addend: 0x0, symName: '__ZN4core3ops8function6FnOnce40call_once$u7b$$u7b$vtable.shim$u7d$$u7d$17hb30e070902208221E', symObjAddr: 0x1058, symBinAddr: 0x15D98, symSize: 0x38 }
  - { offset: 0x73875, size: 0x8, addend: 0x0, symName: '__ZN4core3ops8function6FnOnce40call_once$u7b$$u7b$vtable.shim$u7d$$u7d$17hc84960568b4441d5E', symObjAddr: 0x1090, symBinAddr: 0x15DD0, symSize: 0x38 }
  - { offset: 0x738B9, size: 0x8, addend: 0x0, symName: '__ZN4core3ops8function6FnOnce40call_once$u7b$$u7b$vtable.shim$u7d$$u7d$17hd0fdae3e1272ad72E', symObjAddr: 0x10C8, symBinAddr: 0x15E08, symSize: 0x30 }
  - { offset: 0x738FD, size: 0x8, addend: 0x0, symName: __ZN4core3ops8function6FnOnce9call_once17h1c7c320b3bb5b450E, symObjAddr: 0x10F8, symBinAddr: 0x15E38, symSize: 0x4C }
  - { offset: 0x73941, size: 0x8, addend: 0x0, symName: __ZN4core3ops8function6FnOnce9call_once17h5e52689ca445de8eE, symObjAddr: 0x1144, symBinAddr: 0x15E84, symSize: 0x24 }
  - { offset: 0x73985, size: 0x8, addend: 0x0, symName: __ZN4core3ops8function6FnOnce9call_once17h6524311ac193157bE, symObjAddr: 0x11AC, symBinAddr: 0x15EA8, symSize: 0x4C }
  - { offset: 0x739C9, size: 0x8, addend: 0x0, symName: __ZN4core3ops8function6FnOnce9call_once17h9c039f99558b994dE, symObjAddr: 0x12AC, symBinAddr: 0x15EF4, symSize: 0x58 }
  - { offset: 0x73A0D, size: 0x8, addend: 0x0, symName: __ZN4core3ops8function6FnOnce9call_once17ha38582d226d9c03eE, symObjAddr: 0x1378, symBinAddr: 0x15F4C, symSize: 0x5C }
  - { offset: 0x73A51, size: 0x8, addend: 0x0, symName: __ZN4core3ops8function6FnOnce9call_once17hbd6df395f92d3bceE, symObjAddr: 0x14B4, symBinAddr: 0x15FA8, symSize: 0x44 }
  - { offset: 0x73A91, size: 0x8, addend: 0x0, symName: __ZN4core3ops8function6FnOnce9call_once17hc27c8b8154bf43c9E, symObjAddr: 0x14F8, symBinAddr: 0x15FEC, symSize: 0x5C }
  - { offset: 0x73AD5, size: 0x8, addend: 0x0, symName: __ZN4core3ops8function6FnOnce9call_once17hd239fd42d30451aaE, symObjAddr: 0x1554, symBinAddr: 0x16048, symSize: 0x58 }
  - { offset: 0x73B19, size: 0x8, addend: 0x0, symName: __ZN4core3ops8function6FnOnce9call_once17he959186dbf449e55E, symObjAddr: 0x15AC, symBinAddr: 0x160A0, symSize: 0x58 }
  - { offset: 0x73B5D, size: 0x8, addend: 0x0, symName: __ZN4core3ops8function6FnOnce9call_once17hfeeff8c68f052a23E, symObjAddr: 0x1674, symBinAddr: 0x160F8, symSize: 0x58 }
  - { offset: 0x73CE1, size: 0x8, addend: 0x0, symName: __ZN4core5alloc6layout6Layout25from_size_align_unchecked18precondition_check17h3cf02b56654e4164E, symObjAddr: 0x2504, symBinAddr: 0x16838, symSize: 0x50 }
  - { offset: 0x73DA7, size: 0x8, addend: 0x0, symName: __ZN4core5slice3raw14from_raw_parts17h7341ff68507eec52E, symObjAddr: 0x2554, symBinAddr: 0x16888, symSize: 0x50 }
  - { offset: 0x73DEA, size: 0x8, addend: 0x0, symName: __ZN4core5slice3raw14from_raw_parts17hb5f676f9ba39884dE, symObjAddr: 0x25A4, symBinAddr: 0x168D8, symSize: 0x50 }
  - { offset: 0x73E32, size: 0x8, addend: 0x0, symName: __ZN4core5slice3raw14from_raw_parts18precondition_check17h9d47242b2d729ae5E, symObjAddr: 0x25F4, symBinAddr: 0x16928, symSize: 0x16C }
  - { offset: 0x73F96, size: 0x8, addend: 0x0, symName: __ZN4core5slice3raw18from_raw_parts_mut18precondition_check17h9f467131f5c9612eE, symObjAddr: 0x2760, symBinAddr: 0x16A94, symSize: 0x16C }
  - { offset: 0x743FD, size: 0x8, addend: 0x0, symName: '__ZN4core5tuple64_$LT$impl$u20$core..cmp..PartialEq$u20$for$u20$$LP$U$C$T$RP$$GT$2eq17h0502d14565af2edcE', symObjAddr: 0x28CC, symBinAddr: 0x16C00, symSize: 0x88 }
  - { offset: 0x744E4, size: 0x8, addend: 0x0, symName: __ZN4core9core_arch10arm_shared4neon9generated18vreinterpret_s8_u817hc12e94f5bc475590E, symObjAddr: 0x3364, symBinAddr: 0x1722C, symSize: 0xC }
  - { offset: 0x74512, size: 0x8, addend: 0x0, symName: __ZN4core9core_arch10arm_shared4neon9generated19vreinterpret_u64_u817h33cf7af93afb6f68E, symObjAddr: 0x3370, symBinAddr: 0x17238, symSize: 0xC }
  - { offset: 0x74540, size: 0x8, addend: 0x0, symName: __ZN4core9core_arch10arm_shared4neon9generated7vceq_u817h0c2e8d8b7bf70d2aE, symObjAddr: 0x337C, symBinAddr: 0x17244, symSize: 0x14 }
  - { offset: 0x7457D, size: 0x8, addend: 0x0, symName: __ZN4core9core_arch10arm_shared4neon9generated7vorr_u817h396ef683ad183892E, symObjAddr: 0x3390, symBinAddr: 0x17258, symSize: 0x14 }
  - { offset: 0x7465E, size: 0x8, addend: 0x0, symName: __ZN4core9core_arch7aarch644neon9generated8vcgez_s817hfab2a44c61210126E, symObjAddr: 0x33A4, symBinAddr: 0x1726C, symSize: 0x68 }
  - { offset: 0x74700, size: 0x8, addend: 0x0, symName: __ZN4core9core_arch7aarch644neon9generated8vcltz_s817h5d964230d97eb6e6E, symObjAddr: 0x340C, symBinAddr: 0x172D4, symSize: 0x68 }
  - { offset: 0x74BDB, size: 0x8, addend: 0x0, symName: '__ZN5numpy5dtype140_$LT$impl$u20$core..convert..From$LT$$RF$numpy..dtype..PyArrayDescr$GT$$u20$for$u20$pyo3..instance..Py$LT$numpy..dtype..PyArrayDescr$GT$$GT$4from17hdba8c42cd076baa9E', symObjAddr: 0x5AE4, symBinAddr: 0x18BFC, symSize: 0x34 }
  - { offset: 0x74C4E, size: 0x8, addend: 0x0, symName: '__ZN72_$LT$numpy..error..DimensionalityError$u20$as$u20$core..fmt..Display$GT$3fmt17h1ac9d363e9aedac7E', symObjAddr: 0x52EC, symBinAddr: 0x18914, symSize: 0xB0 }
  - { offset: 0x74DC5, size: 0x8, addend: 0x0, symName: '__ZN62_$LT$numpy..error..TypeError$u20$as$u20$core..fmt..Display$GT$3fmt17h5fb0669921413dbdE', symObjAddr: 0x53B8, symBinAddr: 0x189E0, symSize: 0xB0 }
  - { offset: 0x74F01, size: 0x8, addend: 0x0, symName: '__ZN89_$LT$numpy..error..TypeErrorArguments$u20$as$u20$pyo3..err..err_state..PyErrArguments$GT$9arguments17h5b43aa85d84bdbf9E', symObjAddr: 0x5468, symBinAddr: 0x18A90, symSize: 0xD4 }
  - { offset: 0x74F68, size: 0x8, addend: 0x0, symName: '__ZN90_$LT$numpy..error..DimensionalityError$u20$as$u20$pyo3..err..err_state..PyErrArguments$GT$9arguments17h9891b935be438b50E', symObjAddr: 0x5B18, symBinAddr: 0x18C30, symSize: 0x78 }
  - { offset: 0x75122, size: 0x8, addend: 0x0, symName: __ZN5numpy5array16get_array_module17h5959c5fc4d0a2a33E, symObjAddr: 0x50BC, symBinAddr: 0x188D4, symSize: 0x2C }
  - { offset: 0x75250, size: 0x8, addend: 0x0, symName: '__ZN86_$LT$numpy..untyped_array..PyUntypedArray$u20$as$u20$pyo3..conversion..AsPyPointer$GT$6as_ptr17h037e2f1bba4af269E', symObjAddr: 0x5CFC, symBinAddr: 0x18CA8, symSize: 0x24 }
  - { offset: 0x75532, size: 0x8, addend: 0x0, symName: '__ZN4pyo38instance11Py$LT$T$GT$24from_borrowed_ptr_or_opt28_$u7b$$u7b$closure$u7d$$u7d$17h1e25c679db552b0fE', symObjAddr: 0x39F4, symBinAddr: 0x176CC, symSize: 0xC4 }
  - { offset: 0x75598, size: 0x8, addend: 0x0, symName: '__ZN4pyo38instance11Py$LT$T$GT$24from_borrowed_ptr_or_opt28_$u7b$$u7b$closure$u7d$$u7d$17hfd7f59a6bc97cecdE', symObjAddr: 0x3AB8, symBinAddr: 0x17790, symSize: 0xC4 }
  - { offset: 0x756BD, size: 0x8, addend: 0x0, symName: __ZN4pyo38instance12PyNativeType2py17h79c790a334debe99E, symObjAddr: 0x3DCC, symBinAddr: 0x17928, symSize: 0x20 }
  - { offset: 0x756F4, size: 0x8, addend: 0x0, symName: '__ZN69_$LT$pyo3..instance..Py$LT$T$GT$$u20$as$u20$core..ops..drop..Drop$GT$4drop17h5b7c5c2fff55324fE', symObjAddr: 0x4A58, symBinAddr: 0x183B0, symSize: 0x28 }
  - { offset: 0x75727, size: 0x8, addend: 0x0, symName: '__ZN69_$LT$pyo3..instance..Py$LT$T$GT$$u20$as$u20$core..ops..drop..Drop$GT$4drop17ha3efacba66449afbE', symObjAddr: 0x4A80, symBinAddr: 0x183D8, symSize: 0x28 }
  - { offset: 0x757FF, size: 0x8, addend: 0x0, symName: '__ZN4pyo35types7capsule150_$LT$impl$u20$core..convert..From$LT$$RF$pyo3..types..capsule..PyCapsule$GT$$u20$for$u20$pyo3..instance..Py$LT$pyo3..types..capsule..PyCapsule$GT$$GT$4from17hed87a7019964a228E', symObjAddr: 0x3698, symBinAddr: 0x17508, symSize: 0x38 }
  - { offset: 0x75876, size: 0x8, addend: 0x0, symName: '__ZN73_$LT$pyo3..types..module..PyModule$u20$as$u20$core..ops..deref..Deref$GT$5deref17h8eddad7dd98a8437E', symObjAddr: 0x4AE4, symBinAddr: 0x18428, symSize: 0x14 }
  - { offset: 0x759F7, size: 0x8, addend: 0x0, symName: '__ZN4pyo35impl_7pyclass16lazy_type_object23LazyTypeObject$LT$T$GT$11get_or_init28_$u7b$$u7b$closure$u7d$$u7d$17h665454b4481a628aE', symObjAddr: 0x3580, symBinAddr: 0x173F0, symSize: 0xC0 }
  - { offset: 0x75E73, size: 0x8, addend: 0x0, symName: '__ZN53_$LT$T$u20$as$u20$pyo3..conversion..FromPyPointer$GT$24from_borrowed_ptr_or_opt17h1cc3098e29bf9d25E', symObjAddr: 0x3ECC, symBinAddr: 0x179F0, symSize: 0x28 }
  - { offset: 0x75EDA, size: 0x8, addend: 0x0, symName: '__ZN4pyo311conversions3std6string80_$LT$impl$u20$pyo3..conversion..ToPyObject$u20$for$u20$alloc..string..String$GT$9to_object17hf33f0f025413b7baE', symObjAddr: 0x34CC, symBinAddr: 0x1733C, symSize: 0x34 }
  - { offset: 0x76026, size: 0x8, addend: 0x0, symName: '__ZN85_$LT$pyo3..pycell..PyCell$LT$T$GT$$u20$as$u20$pyo3..pycell..PyCellLayout$LT$T$GT$$GT$10tp_dealloc17h1aeaec0a59ff8ba3E', symObjAddr: 0x4B80, symBinAddr: 0x1843C, symSize: 0x68 }
  - { offset: 0x7608F, size: 0x8, addend: 0x0, symName: '__ZN89_$LT$pyo3..pycell..PyCellBase$LT$U$GT$$u20$as$u20$pyo3..pycell..PyCellLayout$LT$T$GT$$GT$10tp_dealloc17he5aeabe46e8f7e5bE', symObjAddr: 0x4BE8, symBinAddr: 0x184A4, symSize: 0xDC }
  - { offset: 0x76124, size: 0x8, addend: 0x0, symName: '__ZN92_$LT$pyo3..pycell..impl_..EmptySlot$u20$as$u20$pyo3..pycell..impl_..PyClassBorrowChecker$GT$3new17hca7a8cb93c567d8eE', symObjAddr: 0x4ED0, symBinAddr: 0x186FC, symSize: 0x4 }
  - { offset: 0x7632F, size: 0x8, addend: 0x0, symName: __ZN3std9panicking3try7do_call17hb7caa64217602267E, symObjAddr: 0x268, symBinAddr: 0x15724, symSize: 0x88 }
  - { offset: 0x7641F, size: 0x8, addend: 0x0, symName: __ZN3std9panicking3try8do_catch17he9f527c3bf2293a3E, symObjAddr: 0x2F0, symBinAddr: 0x157AC, symSize: 0x70 }
  - { offset: 0x76591, size: 0x8, addend: 0x0, symName: __ZN8pyo3_ffi6object10_Py_NewRef17h1ca942cbaee2375cE, symObjAddr: 0x4CC4, symBinAddr: 0x18580, symSize: 0xB4 }
  - { offset: 0x765DD, size: 0x8, addend: 0x0, symName: __ZN8pyo3_ffi6object18PyObject_TypeCheck17hbc47e5a4605175afE, symObjAddr: 0x4DE0, symBinAddr: 0x18634, symSize: 0x74 }
  - { offset: 0x7661A, size: 0x8, addend: 0x0, symName: __ZN8pyo3_ffi6object7Py_TYPE17h2e3936b89c74c2baE, symObjAddr: 0x4E7C, symBinAddr: 0x186A8, symSize: 0x54 }
  - { offset: 0x771C5, size: 0x8, addend: 0x0, symName: '__ZN59_$LT$rustc_hash..FxHasher$u20$as$u20$core..hash..Hasher$GT$11write_usize17h4528f32dbb122d14E', symObjAddr: 0x4004, symBinAddr: 0x17A80, symSize: 0x28 }
  - { offset: 0x771FB, size: 0x8, addend: 0x0, symName: '__ZN59_$LT$rustc_hash..FxHasher$u20$as$u20$core..hash..Hasher$GT$6finish17hcae5e63eb814a9f0E', symObjAddr: 0x402C, symBinAddr: 0x17AA8, symSize: 0x18 }
  - { offset: 0x7722D, size: 0x8, addend: 0x0, symName: '__ZN63_$LT$rustc_hash..FxHasher$u20$as$u20$core..default..Default$GT$7default17he54212cdab010e2fE', symObjAddr: 0x499C, symBinAddr: 0x18328, symSize: 0x8 }
  - { offset: 0x77587, size: 0x8, addend: 0x0, symName: __ZN10rustc_hash8FxHasher11add_to_hash17h03020320a7552b02E, symObjAddr: 0x24, symBinAddr: 0x15508, symSize: 0x78 }
  - { offset: 0x779E5, size: 0x8, addend: 0x0, symName: __ZN4core3fmt9Formatter9write_fmt17hdf33c422d46e27c5E, symObjAddr: 0xBBC, symBinAddr: 0x15A7C, symSize: 0x1AC }
  - { offset: 0x77B15, size: 0x8, addend: 0x0, symName: '__ZN4core3ptr8non_null16NonNull$LT$T$GT$3new17h1fde06fd0e346430E', symObjAddr: 0x2110, symBinAddr: 0x16550, symSize: 0x58 }
  - { offset: 0x77BE1, size: 0x8, addend: 0x0, symName: '__ZN4core3ptr8non_null16NonNull$LT$T$GT$3new17hbdb6b361096b1fd1E', symObjAddr: 0x21C0, symBinAddr: 0x165A8, symSize: 0x58 }
  - { offset: 0x77D3E, size: 0x8, addend: 0x0, symName: '__ZN4core6option15Option$LT$T$GT$10ok_or_else17hc3d9fa17cc6cbc54E', symObjAddr: 0x2A60, symBinAddr: 0x16C88, symSize: 0x80 }
  - { offset: 0x77DB6, size: 0x8, addend: 0x0, symName: '__ZN4core6option15Option$LT$T$GT$14unwrap_or_else17h3d514b792b1d620fE', symObjAddr: 0x2AE0, symBinAddr: 0x16D08, symSize: 0x5C }
  - { offset: 0x77E18, size: 0x8, addend: 0x0, symName: '__ZN4core6option15Option$LT$T$GT$14unwrap_or_else17hc5004ec47de7b6b2E', symObjAddr: 0x2B3C, symBinAddr: 0x16D64, symSize: 0x5C }
  - { offset: 0x77E87, size: 0x8, addend: 0x0, symName: '__ZN4core6option15Option$LT$T$GT$3map17h3e2ef22a07d78f5eE', symObjAddr: 0x2EA8, symBinAddr: 0x16DC0, symSize: 0x50 }
  - { offset: 0x77EF2, size: 0x8, addend: 0x0, symName: '__ZN4core6option15Option$LT$T$GT$3map17h73767472fd2816e6E', symObjAddr: 0x2EF8, symBinAddr: 0x16E10, symSize: 0x50 }
  - { offset: 0x77F5D, size: 0x8, addend: 0x0, symName: '__ZN4core6option15Option$LT$T$GT$3map17h8dd30853249a0db5E', symObjAddr: 0x2F48, symBinAddr: 0x16E60, symSize: 0x5C }
  - { offset: 0x77FC8, size: 0x8, addend: 0x0, symName: '__ZN4core6option15Option$LT$T$GT$3map17hccc91605ca96f447E', symObjAddr: 0x2FF4, symBinAddr: 0x16EBC, symSize: 0x5C }
  - { offset: 0x78067, size: 0x8, addend: 0x0, symName: '__ZN4core6option15Option$LT$T$GT$6as_ref17h8bf399c88091c22fE', symObjAddr: 0x3050, symBinAddr: 0x16F18, symSize: 0x48 }
  - { offset: 0x78110, size: 0x8, addend: 0x0, symName: '__ZN4core6option15Option$LT$T$GT$6as_ref17h8da3c3fe47d4f15dE', symObjAddr: 0x3098, symBinAddr: 0x16F60, symSize: 0x4C }
  - { offset: 0x78557, size: 0x8, addend: 0x0, symName: '__ZN4core6option15Option$LT$T$GT$6as_ref17ha8a777e0dbb25cfbE', symObjAddr: 0x30E4, symBinAddr: 0x16FAC, symSize: 0x48 }
  - { offset: 0x785AE, size: 0x8, addend: 0x0, symName: '__ZN4core6option15Option$LT$T$GT$6map_or17h1d25672b77d71dd9E', symObjAddr: 0x312C, symBinAddr: 0x16FF4, symSize: 0xA8 }
  - { offset: 0x78620, size: 0x8, addend: 0x0, symName: '__ZN4core6option15Option$LT$T$GT$7is_some17h394a1eb6f6a49773E', symObjAddr: 0x31D4, symBinAddr: 0x1709C, symSize: 0x48 }
  - { offset: 0x7864C, size: 0x8, addend: 0x0, symName: '__ZN4core6option15Option$LT$T$GT$7is_some17h5cb7027876be8ad4E', symObjAddr: 0x321C, symBinAddr: 0x170E4, symSize: 0x40 }
  - { offset: 0x78678, size: 0x8, addend: 0x0, symName: '__ZN4core6option15Option$LT$T$GT$7is_some17he1195c41b701a12cE', symObjAddr: 0x325C, symBinAddr: 0x17124, symSize: 0x40 }
  - { offset: 0x786DC, size: 0x8, addend: 0x0, symName: '__ZN4core6option15Option$LT$T$GT$7or_else17h9f001be4a89bd5f1E', symObjAddr: 0x329C, symBinAddr: 0x17164, symSize: 0xC8 }
  - { offset: 0x787AA, size: 0x8, addend: 0x0, symName: __ZN4pyo35impl_5panic9PanicTrap3new17h35855625f7d08b72E, symObjAddr: 0x3500, symBinAddr: 0x17370, symSize: 0x18 }
  - { offset: 0x787CC, size: 0x8, addend: 0x0, symName: __ZN4pyo35impl_5panic9PanicTrap6disarm17h67f60eeba33294dbE, symObjAddr: 0x3518, symBinAddr: 0x17388, symSize: 0x28 }
  - { offset: 0x78854, size: 0x8, addend: 0x0, symName: '__ZN4pyo35impl_7pyclass16lazy_type_object23LazyTypeObject$LT$T$GT$11get_or_init17h1cac945c1866bb18E', symObjAddr: 0x3540, symBinAddr: 0x173B0, symSize: 0x40 }
  - { offset: 0x7891D, size: 0x8, addend: 0x0, symName: '__ZN4pyo35impl_7pyclass16lazy_type_object23LazyTypeObject$LT$T$GT$15get_or_try_init17hf366e00e8ca6da6cE', symObjAddr: 0x3640, symBinAddr: 0x174B0, symSize: 0x58 }
  - { offset: 0x78960, size: 0x8, addend: 0x0, symName: __ZN4pyo36marker6Python14from_owned_ptr17h5199a40f11d84b95E, symObjAddr: 0x37C8, symBinAddr: 0x17540, symSize: 0x24 }
  - { offset: 0x789A6, size: 0x8, addend: 0x0, symName: __ZN4pyo36marker6Python17from_borrowed_ptr17h6301c6713b3fbf75E, symObjAddr: 0x37EC, symBinAddr: 0x17564, symSize: 0x24 }
  - { offset: 0x789EC, size: 0x8, addend: 0x0, symName: __ZN4pyo36marker6Python19assume_gil_acquired17h564160309b5db973E, symObjAddr: 0x3810, symBinAddr: 0x17588, symSize: 0x4 }
  - { offset: 0x789FF, size: 0x8, addend: 0x0, symName: __ZN4pyo36marker6Python21from_owned_ptr_or_err17ha24d257829f253fbE, symObjAddr: 0x3814, symBinAddr: 0x1758C, symSize: 0x24 }
  - { offset: 0x78A45, size: 0x8, addend: 0x0, symName: __ZN4pyo36marker6Python24from_borrowed_ptr_or_opt17h6448738e0f019693E, symObjAddr: 0x385C, symBinAddr: 0x175B0, symSize: 0x24 }
  - { offset: 0x78A8B, size: 0x8, addend: 0x0, symName: '__ZN4pyo38instance11Py$LT$T$GT$17from_borrowed_ptr17h2dd55f86868e5e62E', symObjAddr: 0x38FC, symBinAddr: 0x175D4, symSize: 0x48 }
  - { offset: 0x78AD1, size: 0x8, addend: 0x0, symName: '__ZN4pyo38instance11Py$LT$T$GT$17from_borrowed_ptr17h92d0aaf37d077dafE', symObjAddr: 0x3944, symBinAddr: 0x1761C, symSize: 0x48 }
  - { offset: 0x78B17, size: 0x8, addend: 0x0, symName: '__ZN4pyo38instance11Py$LT$T$GT$24from_borrowed_ptr_or_opt17h234f5a28604208acE', symObjAddr: 0x398C, symBinAddr: 0x17664, symSize: 0x34 }
  - { offset: 0x78B5D, size: 0x8, addend: 0x0, symName: '__ZN4pyo38instance11Py$LT$T$GT$24from_borrowed_ptr_or_opt17hde0bf88dbeeb0c7fE', symObjAddr: 0x39C0, symBinAddr: 0x17698, symSize: 0x34 }
  - { offset: 0x78BB0, size: 0x8, addend: 0x0, symName: '__ZN4pyo38instance11Py$LT$T$GT$6as_ptr17h8e77616d37fb9bfbE', symObjAddr: 0x3C24, symBinAddr: 0x17854, symSize: 0x1C }
  - { offset: 0x78BDC, size: 0x8, addend: 0x0, symName: '__ZN4pyo38instance11Py$LT$T$GT$6as_ref17h4bd9d93e1c03ec35E', symObjAddr: 0x3C40, symBinAddr: 0x17870, symSize: 0x30 }
  - { offset: 0x78C5C, size: 0x8, addend: 0x0, symName: '__ZN4pyo38instance11Py$LT$T$GT$8into_ptr17hfef438f83a85e60aE', symObjAddr: 0x3CF8, symBinAddr: 0x178A0, symSize: 0x88 }
  - { offset: 0x78CD3, size: 0x8, addend: 0x0, symName: '__ZN50_$LT$isize$u20$as$u20$num_traits..sign..Signed$GT$11is_negative17hcd0dbe664060a992E', symObjAddr: 0x3DEC, symBinAddr: 0x17948, symSize: 0x20 }
  - { offset: 0x78CFF, size: 0x8, addend: 0x0, symName: '__ZN50_$LT$isize$u20$as$u20$num_traits..sign..Signed$GT$3abs17h0a4085efe1275ffeE', symObjAddr: 0x3E0C, symBinAddr: 0x17968, symSize: 0x80 }
  - { offset: 0x78D37, size: 0x8, addend: 0x0, symName: '__ZN51_$LT$u8$u20$as$u20$num_traits..identities..Zero$GT$4zero17hce687612ebc5086fE', symObjAddr: 0x3E94, symBinAddr: 0x179E8, symSize: 0x8 }
  - { offset: 0x78F28, size: 0x8, addend: 0x0, symName: '__ZN5alloc3vec16Vec$LT$T$C$A$GT$4push17h8327930d96a4b815E', symObjAddr: 0x4134, symBinAddr: 0x17AC0, symSize: 0x108 }
  - { offset: 0x79364, size: 0x8, addend: 0x0, symName: __ZN5alloc5alloc6Global10alloc_impl17he0ccf89735ca3f27E, symObjAddr: 0x43F4, symBinAddr: 0x17D80, symSize: 0x1BC }
  - { offset: 0x79905, size: 0x8, addend: 0x0, symName: __ZN5alloc6string6String4push17h99cd47c8d036dca7E, symObjAddr: 0x45B0, symBinAddr: 0x17F3C, symSize: 0x190 }
  - { offset: 0x79DCD, size: 0x8, addend: 0x0, symName: __ZN5alloc6string6String6as_str17h3c104ea5bb30f963E, symObjAddr: 0x4740, symBinAddr: 0x180CC, symSize: 0x88 }
  - { offset: 0x7A03D, size: 0x8, addend: 0x0, symName: __ZN5alloc6string6String8push_str17hdd1ccd2e115bbb98E, symObjAddr: 0x47C8, symBinAddr: 0x18154, symSize: 0xE4 }
  - { offset: 0x7A3E9, size: 0x8, addend: 0x0, symName: __ZN9hashbrown3raw4neon5Group10match_byte17h5c9dcc159cf46902E, symObjAddr: 0x4EE8, symBinAddr: 0x18700, symSize: 0x7C }
  - { offset: 0x7A437, size: 0x8, addend: 0x0, symName: __ZN9hashbrown3raw4neon5Group10match_full17h5c59845259918e03E, symObjAddr: 0x4F64, symBinAddr: 0x1877C, symSize: 0x68 }
  - { offset: 0x7A46F, size: 0x8, addend: 0x0, symName: __ZN9hashbrown3raw4neon5Group22match_empty_or_deleted17h409b7d4d5bae73e2E, symObjAddr: 0x4FCC, symBinAddr: 0x187E4, symSize: 0x68 }
  - { offset: 0x7A4A7, size: 0x8, addend: 0x0, symName: __ZN9hashbrown3raw4neon5Group44convert_special_to_empty_and_full_to_deleted17h178946936645ea33E, symObjAddr: 0x5034, symBinAddr: 0x1884C, symSize: 0x88 }
  - { offset: 0x7A4DF, size: 0x8, addend: 0x0, symName: __ZN5numpy5error19DimensionalityError3new17hc016e7b0a322242dE, symObjAddr: 0x52D8, symBinAddr: 0x18900, symSize: 0x14 }
  - { offset: 0x7A595, size: 0x8, addend: 0x0, symName: __ZN5numpy5error9TypeError3new17h138fcd794f4cb201E, symObjAddr: 0x539C, symBinAddr: 0x189C4, symSize: 0x1C }
  - { offset: 0x7A665, size: 0x8, addend: 0x0, symName: __ZN5numpy13untyped_array14PyUntypedArray12as_array_ptr17hb760234db7f35a90E, symObjAddr: 0x576C, symBinAddr: 0x18B64, symSize: 0x24 }
  - { offset: 0x7A687, size: 0x8, addend: 0x0, symName: __ZN5numpy13untyped_array14PyUntypedArray5dtype17h7fcbbbb2b458b28bE, symObjAddr: 0x5790, symBinAddr: 0x18B88, symSize: 0x74 }
  - { offset: 0x7AC00, size: 0x8, addend: 0x0, symName: '__ZN104_$LT$core..iter..adapters..copied..Copied$LT$I$GT$$u20$as$u20$core..iter..traits..iterator..Iterator$GT$4fold17hd49a4d500ffc158cE', symObjAddr: 0x0, symBinAddr: 0x18CCC, symSize: 0x30 }
  - { offset: 0x7D1F3, size: 0x8, addend: 0x0, symName: '__ZN4core3ptr7mut_ptr31_$LT$impl$u20$$BP$mut$u20$T$GT$6offset18precondition_check17hdf106121baf90887E', symObjAddr: 0x34C, symBinAddr: 0x18DE0, symSize: 0xB4 }
  - { offset: 0x7DA3D, size: 0x8, addend: 0x0, symName: '__ZN4core4hash5impls52_$LT$impl$u20$core..hash..Hash$u20$for$u20$isize$GT$4hash17h3e32bf48dc5a0362E', symObjAddr: 0x6B0, symBinAddr: 0x190BC, symSize: 0x38 }
  - { offset: 0x7DA85, size: 0x8, addend: 0x0, symName: '__ZN4core4hash5impls55_$LT$impl$u20$core..hash..Hash$u20$for$u20$$LP$$RP$$GT$4hash17h0ef0b725231d512dE', symObjAddr: 0x720, symBinAddr: 0x190F4, symSize: 0x14 }
  - { offset: 0x7DACD, size: 0x8, addend: 0x0, symName: '__ZN4core4hash5impls60_$LT$impl$u20$core..hash..Hash$u20$for$u20$$BP$mut$u20$T$GT$4hash17h0a85a2d8fa9edc62E', symObjAddr: 0x734, symBinAddr: 0x19108, symSize: 0x54 }
  - { offset: 0x7DB86, size: 0x8, addend: 0x0, symName: '__ZN4core4hash5impls60_$LT$impl$u20$core..hash..Hash$u20$for$u20$$LP$T$C$B$RP$$GT$4hash17h46f9cd74e5cdd0fdE', symObjAddr: 0x788, symBinAddr: 0x1915C, symSize: 0x4C }
  - { offset: 0x7DE31, size: 0x8, addend: 0x0, symName: '__ZN4core3cmp5impls53_$LT$impl$u20$core..cmp..PartialEq$u20$for$u20$u8$GT$2eq17ha6233e4dfe68022eE', symObjAddr: 0x1C0, symBinAddr: 0x18DB4, symSize: 0x2C }
  - { offset: 0x7DEA9, size: 0x8, addend: 0x0, symName: '__ZN104_$LT$core..iter..adapters..copied..Copied$LT$I$GT$$u20$as$u20$core..iter..traits..iterator..Iterator$GT$4fold17hd49a4d500ffc158cE', symObjAddr: 0x0, symBinAddr: 0x18CCC, symSize: 0x30 }
  - { offset: 0x7DF15, size: 0x8, addend: 0x0, symName: '__ZN104_$LT$core..iter..adapters..copied..Copied$LT$I$GT$$u20$as$u20$core..iter..traits..iterator..Iterator$GT$4next17hd64f25e85d468228E', symObjAddr: 0x30, symBinAddr: 0x18CFC, symSize: 0x68 }
  - { offset: 0x7DF8C, size: 0x8, addend: 0x0, symName: '__ZN4core4iter8adapters6copied9copy_fold28_$u7b$$u7b$closure$u7d$$u7d$17h0135597b0b04917bE', symObjAddr: 0xA04, symBinAddr: 0x193AC, symSize: 0x38 }
  - { offset: 0x7E0C9, size: 0x8, addend: 0x0, symName: __ZN4core4iter8adapters3zip27TrustedRandomAccessNoCoerce4size17ha241c0cc569569daE, symObjAddr: 0x9D8, symBinAddr: 0x19380, symSize: 0x2C }
  - { offset: 0x7E112, size: 0x8, addend: 0x0, symName: __ZN4core4iter6traits8iterator8Iterator3zip17h1f2d905d0a088922E, symObjAddr: 0x7D4, symBinAddr: 0x191A8, symSize: 0xC8 }
  - { offset: 0x7E188, size: 0x8, addend: 0x0, symName: __ZN4core4iter6traits8iterator8Iterator6copied17h0497d7d3ff2d2255E, symObjAddr: 0x89C, symBinAddr: 0x19270, symSize: 0x1C }
  - { offset: 0x7E1C8, size: 0x8, addend: 0x0, symName: __ZN4core4iter6traits8iterator8Iterator6reduce17hc16a48a4ef5d1440E, symObjAddr: 0x8B8, symBinAddr: 0x1928C, symSize: 0xF4 }
  - { offset: 0x7E2A1, size: 0x8, addend: 0x0, symName: '__ZN63_$LT$I$u20$as$u20$core..iter..traits..collect..IntoIterator$GT$9into_iter17h8e83b0a91b60fb78E', symObjAddr: 0x265C, symBinAddr: 0x1A954, symSize: 0x1C }
  - { offset: 0x7E35C, size: 0x8, addend: 0x0, symName: __ZN4core4char7methods15encode_utf8_raw17hef627dab6e66c7c9E, symObjAddr: 0x420, symBinAddr: 0x18E94, symSize: 0x228 }
  - { offset: 0x7E654, size: 0x8, addend: 0x0, symName: '__ZN4core5slice4iter87_$LT$impl$u20$core..iter..traits..collect..IntoIterator$u20$for$u20$$RF$$u5b$T$u5d$$GT$9into_iter17h1d2dfe19799bb75cE', symObjAddr: 0xA8C, symBinAddr: 0x19434, symSize: 0x50 }
  - { offset: 0x7E7A9, size: 0x8, addend: 0x0, symName: '__ZN91_$LT$core..slice..iter..Iter$LT$T$GT$$u20$as$u20$core..iter..traits..iterator..Iterator$GT$24__iterator_get_unchecked17hc7ed366b8436f683E', symObjAddr: 0x2AE0, symBinAddr: 0x1ACB8, symSize: 0x28 }
  - { offset: 0x7E833, size: 0x8, addend: 0x0, symName: '__ZN91_$LT$core..slice..iter..Iter$LT$T$GT$$u20$as$u20$core..iter..traits..iterator..Iterator$GT$3all17h5e77b7ba5a70b8f7E', symObjAddr: 0x2B08, symBinAddr: 0x1ACE0, symSize: 0xB0 }
  - { offset: 0x7E898, size: 0x8, addend: 0x0, symName: '__ZN91_$LT$core..slice..iter..Iter$LT$T$GT$$u20$as$u20$core..iter..traits..iterator..Iterator$GT$4fold17h4f504456835a953aE', symObjAddr: 0x2C68, symBinAddr: 0x1AD90, symSize: 0x1FC }
  - { offset: 0x7EA80, size: 0x8, addend: 0x0, symName: '__ZN91_$LT$core..slice..iter..Iter$LT$T$GT$$u20$as$u20$core..iter..traits..iterator..Iterator$GT$4next17ha95f1210c9ce2481E', symObjAddr: 0x3060, symBinAddr: 0x1AF8C, symSize: 0xCC }
  - { offset: 0x7EBE1, size: 0x8, addend: 0x0, symName: '__ZN91_$LT$core..slice..iter..Iter$LT$T$GT$$u20$as$u20$core..iter..traits..iterator..Iterator$GT$4next17hbca6880d896a4bf6E', symObjAddr: 0x312C, symBinAddr: 0x1B058, symSize: 0xCC }
  - { offset: 0x7ED42, size: 0x8, addend: 0x0, symName: '__ZN91_$LT$core..slice..iter..Iter$LT$T$GT$$u20$as$u20$core..iter..traits..iterator..Iterator$GT$9size_hint17h978f5c5bf7b1b3c5E', symObjAddr: 0x31F8, symBinAddr: 0x1B124, symSize: 0xC0 }
  - { offset: 0x7F001, size: 0x8, addend: 0x0, symName: __ZN4core9core_arch7aarch644neon7vld1_u817hfd0d170a5ec3dd64E, symObjAddr: 0xADC, symBinAddr: 0x19484, symSize: 0x2C }
  - { offset: 0x7F02F, size: 0x8, addend: 0x0, symName: __ZN4core9core_arch7aarch644neon7vst1_u817hd17d87c3f03101b3E, symObjAddr: 0xB08, symBinAddr: 0x194B0, symSize: 0x38 }
  - { offset: 0x7FF25, size: 0x8, addend: 0x0, symName: '__ZN4pyo33err5PyErr3new28_$u7b$$u7b$closure$u7d$$u7d$17h01f2f442b9bfae4dE', symObjAddr: 0xF50, symBinAddr: 0x196D4, symSize: 0xC8 }
  - { offset: 0x7FF7C, size: 0x8, addend: 0x0, symName: '__ZN4pyo33err5PyErr3new28_$u7b$$u7b$closure$u7d$$u7d$17h5bce1072e6d0f221E', symObjAddr: 0x10D4, symBinAddr: 0x1979C, symSize: 0xC0 }
  - { offset: 0x8031C, size: 0x8, addend: 0x0, symName: __ZN4pyo38instance12PyNativeType2py17hfddb1dccd981609fE, symObjAddr: 0x2128, symBinAddr: 0x1A488, symSize: 0x20 }
  - { offset: 0x80482, size: 0x8, addend: 0x0, symName: '__ZN73_$LT$pyo3..types..any..PyAny$u20$as$u20$pyo3..type_object..PyTypeInfo$GT$15type_object_raw17h80af9f1e60bdb79aE', symObjAddr: 0x29FC, symBinAddr: 0x1AC04, symSize: 0x24 }
  - { offset: 0x804BD, size: 0x8, addend: 0x0, symName: '__ZN73_$LT$pyo3..types..any..PyAny$u20$as$u20$pyo3..type_object..PyTypeInfo$GT$15type_object_raw28_$u7b$$u7b$closure$u7d$$u7d$17ha5099f7dbcef755cE', symObjAddr: 0x2A20, symBinAddr: 0x1AC28, symSize: 0x18 }
  - { offset: 0x80570, size: 0x8, addend: 0x0, symName: '__ZN75_$LT$pyo3..types..typeobject..PyType$u20$as$u20$core..ops..deref..Deref$GT$5deref17he901fa600ae58734E', symObjAddr: 0x2A4C, symBinAddr: 0x1AC54, symSize: 0x14 }
  - { offset: 0x80609, size: 0x8, addend: 0x0, symName: __ZN4pyo35types7capsule18capsule_destructor17hd32e80a036e9c1d1E, symObjAddr: 0x1B90, symBinAddr: 0x19EF0, symSize: 0x1C8 }
  - { offset: 0x806E8, size: 0x8, addend: 0x0, symName: '__ZN4pyo35types7capsule9PyCapsule19new_with_destructor28_$u7b$$u7b$closure$u7d$$u7d$17h1bd91a215fc8ee5fE', symObjAddr: 0x1FAC, symBinAddr: 0x1A30C, symSize: 0x28 }
  - { offset: 0x8073E, size: 0x8, addend: 0x0, symName: '__ZN75_$LT$pyo3..types..capsule..PyCapsule$u20$as$u20$core..ops..deref..Deref$GT$5deref17h006dfd218cda9d8eE', symObjAddr: 0x2A38, symBinAddr: 0x1AC40, symSize: 0x14 }
  - { offset: 0x80770, size: 0x8, addend: 0x0, symName: '__ZN80_$LT$pyo3..types..capsule..PyCapsule$u20$as$u20$pyo3..conversion..ToPyObject$GT$9to_object17h0f1dc392f49f73bfE', symObjAddr: 0x2AB4, symBinAddr: 0x1AC8C, symSize: 0x2C }
  - { offset: 0x807E1, size: 0x8, addend: 0x0, symName: '__ZN116_$LT$$RF$pyo3..impl_..pyclass..PyClassImplCollector$LT$T$GT$$u20$as$u20$pyo3..impl_..pyclass..PyMethods$LT$T$GT$$GT$10py_methods17habf9ef056ab906b7E', symObjAddr: 0x98, symBinAddr: 0x18D64, symSize: 0x18 }
  - { offset: 0x8081E, size: 0x8, addend: 0x0, symName: '__ZN118_$LT$pyo3..impl_..pyclass..SendablePyClass$LT$T$GT$$u20$as$u20$pyo3..impl_..pyclass..PyClassThreadChecker$LT$T$GT$$GT$3new17h63f35eb5ed50ad95E', symObjAddr: 0xB0, symBinAddr: 0x18D7C, symSize: 0x4 }
  - { offset: 0x80842, size: 0x8, addend: 0x0, symName: '__ZN118_$LT$pyo3..impl_..pyclass..SendablePyClass$LT$T$GT$$u20$as$u20$pyo3..impl_..pyclass..PyClassThreadChecker$LT$T$GT$$GT$8can_drop17h05aa13fd7b92dd5eE', symObjAddr: 0xB4, symBinAddr: 0x18D80, symSize: 0x18 }
  - { offset: 0x80899, size: 0x8, addend: 0x0, symName: '__ZN130_$LT$$RF$pyo3..impl_..pyclass..PyClassImplCollector$LT$T$GT$$u20$as$u20$pyo3..impl_..pyclass..PyClassNewTextSignature$LT$T$GT$$GT$18new_text_signature17h5be0e3a8db32f7e5E', symObjAddr: 0xCC, symBinAddr: 0x18D98, symSize: 0x1C }
  - { offset: 0x808D1, size: 0x8, addend: 0x0, symName: __ZN4pyo35impl_7pyclass10tp_dealloc17h3e402c2c3fc2afb2E, symObjAddr: 0x1834, symBinAddr: 0x19CB8, symSize: 0x34 }
  - { offset: 0x80909, size: 0x8, addend: 0x0, symName: __ZN4pyo35impl_7pyclass11PyClassDict10clear_dict17hcca529ca920b57d0E, symObjAddr: 0x1868, symBinAddr: 0x19CEC, symSize: 0x10 }
  - { offset: 0x80958, size: 0x8, addend: 0x0, symName: __ZN4pyo35impl_7pyclass14PyClassWeakRef14clear_weakrefs17h512f962f1455d28dE, symObjAddr: 0x1878, symBinAddr: 0x19CFC, symSize: 0x14 }
  - { offset: 0x809B0, size: 0x8, addend: 0x0, symName: __ZN4pyo35impl_7pyclass18tp_dealloc_with_gc17h0d0c5765d23bff26E, symObjAddr: 0x188C, symBinAddr: 0x19D10, symSize: 0x4C }
  - { offset: 0x80A9C, size: 0x8, addend: 0x0, symName: __ZN4pyo35impl_10trampoline21trampoline_unraisable17hc7fdb9b1a20e4b6aE, symObjAddr: 0x14F8, symBinAddr: 0x1997C, symSize: 0x244 }
  - { offset: 0x80B36, size: 0x8, addend: 0x0, symName: '__ZN4pyo35impl_10trampoline21trampoline_unraisable28_$u7b$$u7b$closure$u7d$$u7d$17h24a21ffb779098a1E', symObjAddr: 0x173C, symBinAddr: 0x19BC0, symSize: 0x2C }
  - { offset: 0x80B7A, size: 0x8, addend: 0x0, symName: '__ZN4pyo35impl_10trampoline21trampoline_unraisable28_$u7b$$u7b$closure$u7d$$u7d$17h4730563e02017dd8E', symObjAddr: 0x1768, symBinAddr: 0x19BEC, symSize: 0x50 }
  - { offset: 0x80BC1, size: 0x8, addend: 0x0, symName: __ZN4pyo35impl_10trampoline7dealloc17hb00f8aa4b8697e1dE, symObjAddr: 0x17B8, symBinAddr: 0x19C3C, symSize: 0x3C }
  - { offset: 0x80C4D, size: 0x8, addend: 0x0, symName: '__ZN4pyo35impl_10trampoline7dealloc28_$u7b$$u7b$closure$u7d$$u7d$17h7faa6fe861399d27E', symObjAddr: 0x17F4, symBinAddr: 0x19C78, symSize: 0x40 }
  - { offset: 0x80F8A, size: 0x8, addend: 0x0, symName: __ZN4pyo310conversion13FromPyPointer21from_owned_ptr_or_err17hf3fdd5bd0833d8daE, symObjAddr: 0xB40, symBinAddr: 0x194E8, symSize: 0x34 }
  - { offset: 0x80FE1, size: 0x8, addend: 0x0, symName: '__ZN53_$LT$T$u20$as$u20$pyo3..conversion..FromPyPointer$GT$21from_owned_ptr_or_opt17h9333c3a400721534E', symObjAddr: 0x21A8, symBinAddr: 0x1A4B0, symSize: 0x70 }
  - { offset: 0x81055, size: 0x8, addend: 0x0, symName: '__ZN54_$LT$$RF$T$u20$as$u20$pyo3..conversion..ToPyObject$GT$9to_object17hb2f90ece97c9f198E', symObjAddr: 0x2228, symBinAddr: 0x1A520, symSize: 0x28 }
  - { offset: 0x810A8, size: 0x8, addend: 0x0, symName: '__ZN80_$LT$pyo3..types..any..PyAny$u20$as$u20$pyo3..conversion..PyTryInto$LT$U$GT$$GT$8try_into17hac841e1460721636E', symObjAddr: 0x2A90, symBinAddr: 0x1AC68, symSize: 0x24 }
  - { offset: 0x811C2, size: 0x8, addend: 0x0, symName: __ZN4pyo37pyclass18create_type_object18create_type_object17h4f35cfeafa227768E, symObjAddr: 0x1FD4, symBinAddr: 0x1A334, symSize: 0x154 }
  - { offset: 0x813A2, size: 0x8, addend: 0x0, symName: '__ZN5numpy5error97_$LT$impl$u20$core..convert..From$LT$numpy..error..TypeError$GT$$u20$for$u20$pyo3..err..PyErr$GT$4from17h2b5fb46c0e0a4010E', symObjAddr: 0x3F00, symBinAddr: 0x1BB70, symSize: 0x94 }
  - { offset: 0x813F1, size: 0x8, addend: 0x0, symName: '__ZN5numpy5error107_$LT$impl$u20$core..convert..From$LT$numpy..error..DimensionalityError$GT$$u20$for$u20$pyo3..err..PyErr$GT$4from17h56704ca52d716b0bE', symObjAddr: 0x43D8, symBinAddr: 0x1BD94, symSize: 0x24 }
  - { offset: 0x817F4, size: 0x8, addend: 0x0, symName: __ZN5numpy6npyffi13get_numpy_api17h29a2b57385c0a7bdE, symObjAddr: 0x3F94, symBinAddr: 0x1BC04, symSize: 0x190 }
  - { offset: 0x82A24, size: 0x8, addend: 0x0, symName: '__ZN5alloc5boxed16Box$LT$T$C$A$GT$8into_raw17h5b3624dd66f93b4aE', symObjAddr: 0x2548, symBinAddr: 0x1A840, symSize: 0x3C }
  - { offset: 0x82B28, size: 0x8, addend: 0x0, symName: '__ZN5alloc5boxed16Box$LT$T$C$A$GT$8into_raw17hf1188f51e050c545E', symObjAddr: 0x2584, symBinAddr: 0x1A87C, symSize: 0x3C }
  - { offset: 0x82C6E, size: 0x8, addend: 0x0, symName: '__ZN5alloc5boxed12Box$LT$T$GT$8from_raw17hbc82dd742cfc1e55E', symObjAddr: 0x2324, symBinAddr: 0x1A61C, symSize: 0x34 }
  - { offset: 0x82D06, size: 0x8, addend: 0x0, symName: '__ZN5alloc5boxed12Box$LT$T$GT$8from_raw17hdfb487c69cfc942fE', symObjAddr: 0x2358, symBinAddr: 0x1A650, symSize: 0x34 }
  - { offset: 0x82DA4, size: 0x8, addend: 0x0, symName: '__ZN5alloc5boxed16Box$LT$T$C$A$GT$13new_uninit_in17h608438e4475e91a1E', symObjAddr: 0x238C, symBinAddr: 0x1A684, symSize: 0x90 }
  - { offset: 0x82E90, size: 0x8, addend: 0x0, symName: '__ZN5alloc5boxed16Box$LT$T$C$A$GT$17try_new_uninit_in17h9d0e34d83ddbc1a4E', symObjAddr: 0x241C, symBinAddr: 0x1A714, symSize: 0x12C }
  - { offset: 0x83118, size: 0x8, addend: 0x0, symName: '__ZN5alloc5boxed60Box$LT$core..mem..maybe_uninit..MaybeUninit$LT$T$GT$$C$A$GT$5write17h97c6c84204491c05E', symObjAddr: 0x25C0, symBinAddr: 0x1A8B8, symSize: 0x9C }
  - { offset: 0x832D6, size: 0x8, addend: 0x0, symName: '__ZN69_$LT$alloc..boxed..Box$LT$T$GT$$u20$as$u20$core..default..Default$GT$7default17h15fb41a237a2f58aE', symObjAddr: 0x2714, symBinAddr: 0x1A970, symSize: 0x84 }
  - { offset: 0x83319, size: 0x8, addend: 0x0, symName: '__ZN72_$LT$alloc..boxed..Box$LT$T$C$A$GT$$u20$as$u20$core..ops..drop..Drop$GT$4drop17h120c33a900a9fb9fE', symObjAddr: 0x27EC, symBinAddr: 0x1A9F4, symSize: 0xB0 }
  - { offset: 0x83497, size: 0x8, addend: 0x0, symName: '__ZN72_$LT$alloc..boxed..Box$LT$T$C$A$GT$$u20$as$u20$core..ops..drop..Drop$GT$4drop17h379c17386d96e0ceE', symObjAddr: 0x289C, symBinAddr: 0x1AAA4, symSize: 0xB0 }
  - { offset: 0x83615, size: 0x8, addend: 0x0, symName: '__ZN72_$LT$alloc..boxed..Box$LT$T$C$A$GT$$u20$as$u20$core..ops..drop..Drop$GT$4drop17h9b564d8cf46f2a45E', symObjAddr: 0x294C, symBinAddr: 0x1AB54, symSize: 0xB0 }
  - { offset: 0x837BB, size: 0x8, addend: 0x0, symName: __ZN5alloc3fmt6format17h264a4e27916592a6E, symObjAddr: 0x2250, symBinAddr: 0x1A548, symSize: 0xD4 }
  - { offset: 0x83CCE, size: 0x8, addend: 0x0, symName: '__ZN92_$LT$hashbrown..map..Iter$LT$K$C$V$GT$$u20$as$u20$core..iter..traits..iterator..Iterator$GT$4next17h09e4c0738303104cE', symObjAddr: 0x32B8, symBinAddr: 0x1B1E4, symSize: 0xF8 }
  - { offset: 0x83E4F, size: 0x8, addend: 0x0, symName: '__ZN9hashbrown3map11make_hasher28_$u7b$$u7b$closure$u7d$$u7d$17h37fad740f14170d8E', symObjAddr: 0x3714, symBinAddr: 0x1B3FC, symSize: 0x3C }
  - { offset: 0x83ECB, size: 0x8, addend: 0x0, symName: '__ZN9hashbrown3map11make_hasher28_$u7b$$u7b$closure$u7d$$u7d$17h856c03dc492e5d41E', symObjAddr: 0x3750, symBinAddr: 0x1B438, symSize: 0x3C }
  - { offset: 0x83F86, size: 0x8, addend: 0x0, symName: '__ZN9hashbrown3map14equivalent_key28_$u7b$$u7b$closure$u7d$$u7d$17h41c5c72415fe5433E', symObjAddr: 0x3804, symBinAddr: 0x1B474, symSize: 0x30 }
  - { offset: 0x83FDD, size: 0x8, addend: 0x0, symName: '__ZN9hashbrown3map14equivalent_key28_$u7b$$u7b$closure$u7d$$u7d$17h5457f9dea35a4984E', symObjAddr: 0x3834, symBinAddr: 0x1B4A4, symSize: 0x30 }
  - { offset: 0x84D28, size: 0x8, addend: 0x0, symName: '__ZN4core5slice4iter13Iter$LT$T$GT$3new17hd7e80015e16383e9E', symObjAddr: 0xA3C, symBinAddr: 0x193E4, symSize: 0x50 }
  - { offset: 0x84F4C, size: 0x8, addend: 0x0, symName: __ZN4pyo33err5PyErr10from_state17h45da6ec6609b014aE, symObjAddr: 0xB74, symBinAddr: 0x1951C, symSize: 0x3C }
  - { offset: 0x84FC5, size: 0x8, addend: 0x0, symName: __ZN4pyo33err5PyErr16write_unraisable17hc5d5f32cee5e5416E, symObjAddr: 0xBB0, symBinAddr: 0x19558, symSize: 0x3C }
  - { offset: 0x85071, size: 0x8, addend: 0x0, symName: __ZN4pyo33err5PyErr3new17h1261df2620ca4c13E, symObjAddr: 0xBEC, symBinAddr: 0x19594, symSize: 0xA8 }
  - { offset: 0x850CF, size: 0x8, addend: 0x0, symName: __ZN4pyo33err5PyErr3new17h9c4485d163e1787eE, symObjAddr: 0xC94, symBinAddr: 0x1963C, symSize: 0x98 }
  - { offset: 0x85120, size: 0x8, addend: 0x0, symName: __ZN4pyo33err5PyErr5fetch17hf6e351aea2c2037cE, symObjAddr: 0x13D8, symBinAddr: 0x1985C, symSize: 0x5C }
  - { offset: 0x8516A, size: 0x8, addend: 0x0, symName: __ZN4pyo33err5PyErr7restore17h0ce5ce85b4150d77E, symObjAddr: 0x1434, symBinAddr: 0x198B8, symSize: 0x68 }
  - { offset: 0x851C6, size: 0x8, addend: 0x0, symName: __ZN4pyo33gil7GILPool3new17hda786a23c206e4e7E, symObjAddr: 0x149C, symBinAddr: 0x19920, symSize: 0x3C }
  - { offset: 0x851FC, size: 0x8, addend: 0x0, symName: __ZN4pyo33gil7GILPool6python17h06dd4e1477995ad5E, symObjAddr: 0x14D8, symBinAddr: 0x1995C, symSize: 0x20 }
  - { offset: 0x8523D, size: 0x8, addend: 0x0, symName: '__ZN4pyo35impl_7pyclass29PyClassImplCollector$LT$T$GT$3new17h2b22666ef7046bf7E', symObjAddr: 0x18D8, symBinAddr: 0x19D5C, symSize: 0x4 }
  - { offset: 0x85267, size: 0x8, addend: 0x0, symName: __ZN4pyo35types10typeobject6PyType11as_type_ptr17h77600e3128c85388E, symObjAddr: 0x18DC, symBinAddr: 0x19D60, symSize: 0x28 }
  - { offset: 0x85289, size: 0x8, addend: 0x0, symName: __ZN4pyo35types3any5PyAny2py17hb913e9e4aed611faE, symObjAddr: 0x194C, symBinAddr: 0x19D88, symSize: 0x24 }
  - { offset: 0x852AC, size: 0x8, addend: 0x0, symName: __ZN4pyo35types3any5PyAny6as_ptr17hdacb60f0fa0b951aE, symObjAddr: 0x1970, symBinAddr: 0x19DAC, symSize: 0x14 }
  - { offset: 0x852DC, size: 0x8, addend: 0x0, symName: __ZN4pyo35types3any5PyAny7setattr17hfe0dcfea442107e1E, symObjAddr: 0x19A8, symBinAddr: 0x19DC0, symSize: 0x108 }
  - { offset: 0x8535A, size: 0x8, addend: 0x0, symName: __ZN4pyo35types3any5PyAny8into_ptr17hc1dd17236c9b2406E, symObjAddr: 0x1B68, symBinAddr: 0x19EC8, symSize: 0x28 }
  - { offset: 0x853EB, size: 0x8, addend: 0x0, symName: __ZN4pyo35types7capsule9PyCapsule19new_with_destructor17hfdb7d8f8d86f1a4fE, symObjAddr: 0x1D58, symBinAddr: 0x1A0B8, symSize: 0x254 }
  - { offset: 0x85579, size: 0x8, addend: 0x0, symName: '__ZN50_$LT$u8$u20$as$u20$num_traits..bounds..Bounded$GT$9min_value17h6c5456fb9baa1314E', symObjAddr: 0x2150, symBinAddr: 0x1A4A8, symSize: 0x8 }
  - { offset: 0x860D2, size: 0x8, addend: 0x0, symName: '__ZN9hashbrown11rustc_entry62_$LT$impl$u20$hashbrown..map..HashMap$LT$K$C$V$C$S$C$A$GT$$GT$11rustc_entry17he13000f0f2dfa8c1E', symObjAddr: 0x34D0, symBinAddr: 0x1B2DC, symSize: 0x120 }
  - { offset: 0x861BD, size: 0x8, addend: 0x0, symName: '__ZN9hashbrown3map24HashMap$LT$K$C$V$C$S$GT$24with_capacity_and_hasher17h3fbed0856aaff950E', symObjAddr: 0x3864, symBinAddr: 0x1B4D4, symSize: 0x58 }
  - { offset: 0x86235, size: 0x8, addend: 0x0, symName: '__ZN9hashbrown3map28HashMap$LT$K$C$V$C$S$C$A$GT$12remove_entry17h82a2db71b333b1b6E', symObjAddr: 0x38BC, symBinAddr: 0x1B52C, symSize: 0x58 }
  - { offset: 0x862D8, size: 0x8, addend: 0x0, symName: '__ZN9hashbrown3map28HashMap$LT$K$C$V$C$S$C$A$GT$12remove_entry17hb742fbd087b104d4E', symObjAddr: 0x3914, symBinAddr: 0x1B584, symSize: 0x58 }
  - { offset: 0x86495, size: 0x8, addend: 0x0, symName: '__ZN9hashbrown3map28HashMap$LT$K$C$V$C$S$C$A$GT$13get_inner_mut17h2c96374a434e9df3E', symObjAddr: 0x396C, symBinAddr: 0x1B5DC, symSize: 0xF8 }
  - { offset: 0x86751, size: 0x8, addend: 0x0, symName: '__ZN9hashbrown3map28HashMap$LT$K$C$V$C$S$C$A$GT$13get_inner_mut17hd40e1336379f2320E', symObjAddr: 0x3A64, symBinAddr: 0x1B6D4, symSize: 0xF8 }
  - { offset: 0x86A16, size: 0x8, addend: 0x0, symName: '__ZN9hashbrown3map28HashMap$LT$K$C$V$C$S$C$A$GT$4iter17h9b19258ed692a709E', symObjAddr: 0x3B5C, symBinAddr: 0x1B7CC, symSize: 0xC8 }
  - { offset: 0x86C44, size: 0x8, addend: 0x0, symName: '__ZN9hashbrown3map28HashMap$LT$K$C$V$C$S$C$A$GT$6insert17h6498abb101631e4bE', symObjAddr: 0x3C24, symBinAddr: 0x1B894, symSize: 0x1C8 }
  - { offset: 0x86E2C, size: 0x8, addend: 0x0, symName: '__ZN9hashbrown3map28HashMap$LT$K$C$V$C$S$C$A$GT$6remove17h03d0ee9a43772a96E', symObjAddr: 0x3DEC, symBinAddr: 0x1BA5C, symSize: 0x78 }
  - { offset: 0x86EA9, size: 0x8, addend: 0x0, symName: '__ZN9hashbrown3map28HashMap$LT$K$C$V$C$S$C$A$GT$6remove17h121393c693e19845E', symObjAddr: 0x3E64, symBinAddr: 0x1BAD4, symSize: 0x9C }
  - { offset: 0x8720F, size: 0x8, addend: 0x0, symName: '__ZN105_$LT$std..collections..hash..map..Iter$LT$K$C$V$GT$$u20$as$u20$core..iter..traits..iterator..Iterator$GT$4next17hc05f77c8837af20cE', symObjAddr: 0x0, symBinAddr: 0x1BDB8, symSize: 0x24 }
  - { offset: 0x8732B, size: 0x8, addend: 0x0, symName: '__ZN68_$LT$numpy..npyffi..types..NPY_TYPES$u20$as$u20$core..fmt..Debug$GT$3fmt17h52f48496c0844dc1E', symObjAddr: 0x4730, symBinAddr: 0x1E5BC, symSize: 0x308 }
  - { offset: 0x8768E, size: 0x8, addend: 0x0, symName: '__ZN5numpy15slice_container1_104_$LT$impl$u20$pyo3..impl_..pyclass..PyClassImpl$u20$for$u20$numpy..slice_container..PySliceContainer$GT$10items_iter15INTRINSIC_ITEMS17h6071441a332e2debE', symObjAddr: 0x7448, symBinAddr: 0x9B2C0, symSize: 0x0 }
  - { offset: 0x876AE, size: 0x8, addend: 0x0, symName: '__ZN5numpy15slice_container1_104_$LT$impl$u20$pyo3..impl_..pyclass..PyClassImpl$u20$for$u20$numpy..slice_container..PySliceContainer$GT$3doc3DOC17h64ed008c69168a3aE', symObjAddr: 0x7B40, symBinAddr: 0xE4428, symSize: 0x0 }
  - { offset: 0x876C2, size: 0x8, addend: 0x0, symName: '__ZN5numpy15slice_container1_104_$LT$impl$u20$pyo3..impl_..pyclass..PyClassImpl$u20$for$u20$numpy..slice_container..PySliceContainer$GT$3doc28_$u7b$$u7b$closure$u7d$$u7d$17h836fab70a9ffdf40E', symObjAddr: 0x6618, symBinAddr: 0x1E960, symSize: 0x64 }
  - { offset: 0x8770B, size: 0x8, addend: 0x0, symName: '__ZN5numpy15slice_container1_104_$LT$impl$u20$pyo3..impl_..pyclass..PyClassImpl$u20$for$u20$numpy..slice_container..PySliceContainer$GT$3doc28_$u7b$$u7b$closure$u7d$$u7d$28_$u7b$$u7b$closure$u7d$$u7d$17h0d71d042182298d1E', symObjAddr: 0x667C, symBinAddr: 0x1E9C4, symSize: 0x24 }
  - { offset: 0x87768, size: 0x8, addend: 0x0, symName: '__ZN5numpy15slice_container1_104_$LT$impl$u20$pyo3..impl_..pyclass..PyClassImpl$u20$for$u20$numpy..slice_container..PySliceContainer$GT$16lazy_type_object11TYPE_OBJECT17h56f3c350c966ef66E', symObjAddr: 0x7B58, symBinAddr: 0xE4440, symSize: 0x0 }
  - { offset: 0x87776, size: 0x8, addend: 0x0, symName: '__ZN5numpy15slice_container1_104_$LT$impl$u20$pyo3..impl_..pyclass..PyClassImpl$u20$for$u20$numpy..slice_container..PySliceContainer$GT$10items_iter17h4c0b0496420606f8E', symObjAddr: 0x65A0, symBinAddr: 0x1E8E8, symSize: 0x3C }
  - { offset: 0x877B0, size: 0x8, addend: 0x0, symName: '__ZN5numpy15slice_container1_104_$LT$impl$u20$pyo3..impl_..pyclass..PyClassImpl$u20$for$u20$numpy..slice_container..PySliceContainer$GT$3doc17h3fd0a8583322b1beE', symObjAddr: 0x65DC, symBinAddr: 0x1E924, symSize: 0x3C }
  - { offset: 0x877E6, size: 0x8, addend: 0x0, symName: '__ZN5numpy15slice_container1_104_$LT$impl$u20$pyo3..impl_..pyclass..PyClassImpl$u20$for$u20$numpy..slice_container..PySliceContainer$GT$16lazy_type_object17h1ec8a85f23cb234dE', symObjAddr: 0x66A0, symBinAddr: 0x1E9E8, symSize: 0xC }
  - { offset: 0x87809, size: 0x8, addend: 0x0, symName: '__ZN5numpy15slice_container1_100_$LT$impl$u20$pyo3..type_object..PyTypeInfo$u20$for$u20$numpy..slice_container..PySliceContainer$GT$15type_object_raw17h6ef0ae064103b0e2E', symObjAddr: 0x64DC, symBinAddr: 0x1E8C4, symSize: 0x24 }
  - { offset: 0x8787F, size: 0x8, addend: 0x0, symName: '__ZN82_$LT$numpy..slice_container..PySliceContainer$u20$as$u20$core..ops..drop..Drop$GT$4drop17hadd85bebef40c6e6E', symObjAddr: 0x468C, symBinAddr: 0x1E584, symSize: 0x38 }
  - { offset: 0x8823C, size: 0x8, addend: 0x0, symName: __ZN4pyo35impl_7pyclass11PyClassImpl11dict_offset17hc251a604bed428c1E, symObjAddr: 0x338C, symBinAddr: 0x1DFA4, symSize: 0x18 }
  - { offset: 0x88263, size: 0x8, addend: 0x0, symName: __ZN4pyo35impl_7pyclass11PyClassImpl15weaklist_offset17h5de75476801d20a8E, symObjAddr: 0x33A4, symBinAddr: 0x1DFBC, symSize: 0x18 }
  - { offset: 0x88805, size: 0x8, addend: 0x0, symName: '__ZN109_$LT$pyo3..pyclass_init..PyClassInitializer$LT$T$GT$$u20$as$u20$pyo3..pyclass_init..PyObjectInit$LT$T$GT$$GT$15into_new_object17h51b43cea9c0e8e96E', symObjAddr: 0x24, symBinAddr: 0x1BDDC, symSize: 0x21C }
  - { offset: 0x889AD, size: 0x8, addend: 0x0, symName: '__ZN114_$LT$pyo3..pyclass_init..PyNativeTypeInitializer$LT$T$GT$$u20$as$u20$pyo3..pyclass_init..PyObjectInit$LT$T$GT$$GT$15into_new_object17h1804bc126a254b26E', symObjAddr: 0x240, symBinAddr: 0x1BFF8, symSize: 0x3C }
  - { offset: 0x88A41, size: 0x8, addend: 0x0, symName: '__ZN4pyo312pyclass_init27PyClassInitializer$LT$T$GT$24create_cell_from_subtype28_$u7b$$u7b$closure$u7d$$u7d$17h1e1bc72c6e5c6b1aE', symObjAddr: 0x2750, symBinAddr: 0x1D998, symSize: 0x14 }
  - { offset: 0x88BAA, size: 0x8, addend: 0x0, symName: '__ZN96_$LT$pyo3..pyclass_init..PyClassInitializer$LT$T$GT$$u20$as$u20$core..convert..From$LT$T$GT$$GT$4from17h5e71022dbb8a1c95E', symObjAddr: 0x4264, symBinAddr: 0x1E448, symSize: 0x14 }
  - { offset: 0x88BF3, size: 0x8, addend: 0x0, symName: '__ZN4pyo310conversion13FromPyPointer21from_owned_ptr_or_err28_$u7b$$u7b$closure$u7d$$u7d$17h46bbb1872b244986E', symObjAddr: 0x242C, symBinAddr: 0x1D784, symSize: 0x20 }
  - { offset: 0x88C4E, size: 0x8, addend: 0x0, symName: '__ZN4pyo310conversion13FromPyPointer23from_owned_ptr_or_panic28_$u7b$$u7b$closure$u7d$$u7d$17h4bd0ef5dd7560196E', symObjAddr: 0x246C, symBinAddr: 0x1D7A4, symSize: 0x14 }
  - { offset: 0x88CA9, size: 0x8, addend: 0x0, symName: '__ZN4pyo310conversion13FromPyPointer26from_borrowed_ptr_or_panic28_$u7b$$u7b$closure$u7d$$u7d$17hbdaa218585f63482E', symObjAddr: 0x24C8, symBinAddr: 0x1D7B8, symSize: 0x14 }
  - { offset: 0x88D0A, size: 0x8, addend: 0x0, symName: '__ZN53_$LT$T$u20$as$u20$pyo3..conversion..FromPyPointer$GT$24from_borrowed_ptr_or_opt28_$u7b$$u7b$closure$u7d$$u7d$17h287ff29bc61a272cE', symObjAddr: 0x3B84, symBinAddr: 0x1E054, symSize: 0x1C }
  - { offset: 0x88D4C, size: 0x8, addend: 0x0, symName: '__ZN53_$LT$T$u20$as$u20$pyo3..conversion..FromPyPointer$GT$24from_borrowed_ptr_or_opt28_$u7b$$u7b$closure$u7d$$u7d$17h367ff82b641138ebE', symObjAddr: 0x3BA0, symBinAddr: 0x1E070, symSize: 0x1C }
  - { offset: 0x88DB3, size: 0x8, addend: 0x0, symName: '__ZN4pyo311conversions3std6string125_$LT$impl$u20$pyo3..conversion..IntoPy$LT$pyo3..instance..Py$LT$pyo3..types..string..PyString$GT$$GT$$u20$for$u20$$RF$str$GT$7into_py17hfb35bcf3cedbfbd8E', symObjAddr: 0x25B4, symBinAddr: 0x1D81C, symSize: 0x34 }
  - { offset: 0x88E00, size: 0x8, addend: 0x0, symName: __ZN4pyo311type_object11get_tp_free17h5a7662e84fff865eE, symObjAddr: 0x2608, symBinAddr: 0x1D850, symSize: 0x78 }
  - { offset: 0x8AFA5, size: 0x8, addend: 0x0, symName: __ZN4core3ptr13read_volatile18precondition_check17hd8b5ad82e2b98542E, symObjAddr: 0x13BC, symBinAddr: 0x1CD90, symSize: 0x104 }
  - { offset: 0x8B0C2, size: 0x8, addend: 0x0, symName: __ZN4core3ptr5write17h29fc3fe4cdfb8f53E, symObjAddr: 0x14C0, symBinAddr: 0x1CE94, symSize: 0x24 }
  - { offset: 0x8B44E, size: 0x8, addend: 0x0, symName: '__ZN153_$LT$core..result..Result$LT$T$C$F$GT$$u20$as$u20$core..ops..try_trait..FromResidual$LT$core..result..Result$LT$core..convert..Infallible$C$E$GT$$GT$$GT$13from_residual17h05d562844c878c73E', symObjAddr: 0x2C4, symBinAddr: 0x1C034, symSize: 0x48 }
  - { offset: 0x8B4D3, size: 0x8, addend: 0x0, symName: '__ZN153_$LT$core..result..Result$LT$T$C$F$GT$$u20$as$u20$core..ops..try_trait..FromResidual$LT$core..result..Result$LT$core..convert..Infallible$C$E$GT$$GT$$GT$13from_residual17h231a42ff129bbc5fE', symObjAddr: 0x30C, symBinAddr: 0x1C07C, symSize: 0x48 }
  - { offset: 0x8B558, size: 0x8, addend: 0x0, symName: '__ZN153_$LT$core..result..Result$LT$T$C$F$GT$$u20$as$u20$core..ops..try_trait..FromResidual$LT$core..result..Result$LT$core..convert..Infallible$C$E$GT$$GT$$GT$13from_residual17h279b1a15e95ab663E', symObjAddr: 0x354, symBinAddr: 0x1C0C4, symSize: 0x58 }
  - { offset: 0x8B5C0, size: 0x8, addend: 0x0, symName: '__ZN153_$LT$core..result..Result$LT$T$C$F$GT$$u20$as$u20$core..ops..try_trait..FromResidual$LT$core..result..Result$LT$core..convert..Infallible$C$E$GT$$GT$$GT$13from_residual17h551b4915d2287c1eE', symObjAddr: 0x3AC, symBinAddr: 0x1C11C, symSize: 0x58 }
  - { offset: 0x8B628, size: 0x8, addend: 0x0, symName: '__ZN153_$LT$core..result..Result$LT$T$C$F$GT$$u20$as$u20$core..ops..try_trait..FromResidual$LT$core..result..Result$LT$core..convert..Infallible$C$E$GT$$GT$$GT$13from_residual17h775449d7c1ee3eabE', symObjAddr: 0x44C, symBinAddr: 0x1C174, symSize: 0x48 }
  - { offset: 0x8B6AD, size: 0x8, addend: 0x0, symName: '__ZN153_$LT$core..result..Result$LT$T$C$F$GT$$u20$as$u20$core..ops..try_trait..FromResidual$LT$core..result..Result$LT$core..convert..Infallible$C$E$GT$$GT$$GT$13from_residual17haa86e26e8787ca5fE', symObjAddr: 0x4DC, symBinAddr: 0x1C1BC, symSize: 0x48 }
  - { offset: 0x8B732, size: 0x8, addend: 0x0, symName: '__ZN153_$LT$core..result..Result$LT$T$C$F$GT$$u20$as$u20$core..ops..try_trait..FromResidual$LT$core..result..Result$LT$core..convert..Infallible$C$E$GT$$GT$$GT$13from_residual17hb2391be8be9b6678E', symObjAddr: 0x524, symBinAddr: 0x1C204, symSize: 0x48 }
  - { offset: 0x8B7B7, size: 0x8, addend: 0x0, symName: '__ZN153_$LT$core..result..Result$LT$T$C$F$GT$$u20$as$u20$core..ops..try_trait..FromResidual$LT$core..result..Result$LT$core..convert..Infallible$C$E$GT$$GT$$GT$13from_residual17he33a5f9984776b37E', symObjAddr: 0x5B4, symBinAddr: 0x1C24C, symSize: 0x48 }
  - { offset: 0x8B83C, size: 0x8, addend: 0x0, symName: '__ZN153_$LT$core..result..Result$LT$T$C$F$GT$$u20$as$u20$core..ops..try_trait..FromResidual$LT$core..result..Result$LT$core..convert..Infallible$C$E$GT$$GT$$GT$13from_residual17hf2c132dbdd9c531cE', symObjAddr: 0x5FC, symBinAddr: 0x1C294, symSize: 0x48 }
  - { offset: 0x8C05E, size: 0x8, addend: 0x0, symName: '__ZN79_$LT$core..result..Result$LT$T$C$E$GT$$u20$as$u20$core..ops..try_trait..Try$GT$6branch17h06e01f35061f4dfeE', symObjAddr: 0x3D64, symBinAddr: 0x1E11C, symSize: 0x80 }
  - { offset: 0x8C0DC, size: 0x8, addend: 0x0, symName: '__ZN79_$LT$core..result..Result$LT$T$C$E$GT$$u20$as$u20$core..ops..try_trait..Try$GT$6branch17h0a6bffccf4901975E', symObjAddr: 0x3DE4, symBinAddr: 0x1E19C, symSize: 0x80 }
  - { offset: 0x8C15A, size: 0x8, addend: 0x0, symName: '__ZN79_$LT$core..result..Result$LT$T$C$E$GT$$u20$as$u20$core..ops..try_trait..Try$GT$6branch17h729ffa0b9c9f428eE', symObjAddr: 0x3FE4, symBinAddr: 0x1E21C, symSize: 0x88 }
  - { offset: 0x8C1D8, size: 0x8, addend: 0x0, symName: '__ZN79_$LT$core..result..Result$LT$T$C$E$GT$$u20$as$u20$core..ops..try_trait..Try$GT$6branch17h76ff82567ebc470cE', symObjAddr: 0x406C, symBinAddr: 0x1E2A4, symSize: 0x80 }
  - { offset: 0x8C256, size: 0x8, addend: 0x0, symName: '__ZN79_$LT$core..result..Result$LT$T$C$E$GT$$u20$as$u20$core..ops..try_trait..Try$GT$6branch17h8926305eef3dd407E', symObjAddr: 0x40EC, symBinAddr: 0x1E324, symSize: 0x80 }
  - { offset: 0x8C2D4, size: 0x8, addend: 0x0, symName: '__ZN79_$LT$core..result..Result$LT$T$C$E$GT$$u20$as$u20$core..ops..try_trait..Try$GT$6branch17h9778b5c0acf65589E', symObjAddr: 0x416C, symBinAddr: 0x1E3A4, symSize: 0x80 }
  - { offset: 0x8C821, size: 0x8, addend: 0x0, symName: __ZN4core3mem6forget17h22d3d7053420d489E, symObjAddr: 0x12D4, symBinAddr: 0x1CCB8, symSize: 0x10 }
  - { offset: 0x8C852, size: 0x8, addend: 0x0, symName: __ZN4core3mem6forget17he7bf307dbe15f3e6E, symObjAddr: 0x12F4, symBinAddr: 0x1CCC8, symSize: 0x10 }
  - { offset: 0x8C8E9, size: 0x8, addend: 0x0, symName: '__ZN4core3num23_$LT$impl$u20$isize$GT$3abs17h6028be5c0a87c435E', symObjAddr: 0x1304, symBinAddr: 0x1CCD8, symSize: 0x6C }
  - { offset: 0x8C9AD, size: 0x8, addend: 0x0, symName: '__ZN4core3num23_$LT$impl$u20$usize$GT$13unchecked_add18precondition_check17h547d7dcde6db6bdaE', symObjAddr: 0x1370, symBinAddr: 0x1CD44, symSize: 0x4C }
  - { offset: 0x8CBC5, size: 0x8, addend: 0x0, symName: '__ZN42_$LT$$RF$T$u20$as$u20$core..fmt..Debug$GT$3fmt17h4efed0c14dfda6e3E', symObjAddr: 0xD10, symBinAddr: 0x1C6F4, symSize: 0x30 }
  - { offset: 0x8CC44, size: 0x8, addend: 0x0, symName: '__ZN48_$LT$$u5b$T$u5d$$u20$as$u20$core..fmt..Debug$GT$3fmt17h9f796070c6526daeE', symObjAddr: 0x105C, symBinAddr: 0x1CA40, symSize: 0x88 }
  - { offset: 0x8CE2A, size: 0x8, addend: 0x0, symName: '__ZN4core3fmt3num52_$LT$impl$u20$core..fmt..Debug$u20$for$u20$usize$GT$3fmt17h28de57336a6ff80bE', symObjAddr: 0x1150, symBinAddr: 0x1CB34, symSize: 0x90 }
  - { offset: 0x8CFC6, size: 0x8, addend: 0x0, symName: __ZN4core4hash11BuildHasher8hash_one17h01c7be429180b654E, symObjAddr: 0x175C, symBinAddr: 0x1CEB8, symSize: 0x8C }
  - { offset: 0x8D02B, size: 0x8, addend: 0x0, symName: __ZN4core4hash11BuildHasher8hash_one17hc77b4be2753f3a93E, symObjAddr: 0x1900, symBinAddr: 0x1CF44, symSize: 0x8C }
  - { offset: 0x8D09B, size: 0x8, addend: 0x0, symName: '__ZN4core4hash5impls52_$LT$impl$u20$core..hash..Hash$u20$for$u20$$RF$T$GT$4hash17h5fc2aea8f5dd105cE', symObjAddr: 0x198C, symBinAddr: 0x1CFD0, symSize: 0x30 }
  - { offset: 0x8D0EC, size: 0x8, addend: 0x0, symName: '__ZN4core4hash5impls60_$LT$impl$u20$core..hash..Hash$u20$for$u20$$BP$mut$u20$T$GT$4hash17h9fd15ecd3df079b3E', symObjAddr: 0x19EC, symBinAddr: 0x1D000, symSize: 0x54 }
  - { offset: 0x8D1A6, size: 0x8, addend: 0x0, symName: '__ZN82_$LT$core..hash..BuildHasherDefault$LT$H$GT$$u20$as$u20$core..default..Default$GT$7default17ha573bc87a308e3e6E', symObjAddr: 0x4210, symBinAddr: 0x1E424, symSize: 0x4 }
  - { offset: 0x8D1D0, size: 0x8, addend: 0x0, symName: '__ZN83_$LT$core..hash..BuildHasherDefault$LT$H$GT$$u20$as$u20$core..hash..BuildHasher$GT$12build_hasher17hb3a7888e86462c56E', symObjAddr: 0x4214, symBinAddr: 0x1E428, symSize: 0x20 }
  - { offset: 0x8D2CA, size: 0x8, addend: 0x0, symName: '__ZN4core5slice29_$LT$impl$u20$$u5b$T$u5d$$GT$4iter17h525f4982f4f610c7E', symObjAddr: 0x1DB8, symBinAddr: 0x1D3CC, symSize: 0x28 }
  - { offset: 0x8D312, size: 0x8, addend: 0x0, symName: '__ZN49_$LT$usize$u20$as$u20$core..iter..range..Step$GT$17forward_unchecked17hc319ec4e4130bfe1E', symObjAddr: 0x10E4, symBinAddr: 0x1CAC8, symSize: 0x48 }
  - { offset: 0x8D382, size: 0x8, addend: 0x0, symName: __ZN4core4iter6traits8iterator8Iterator3any17h4784a1a042a67f82E, symObjAddr: 0x1A40, symBinAddr: 0x1D054, symSize: 0x44 }
  - { offset: 0x8D3D1, size: 0x8, addend: 0x0, symName: __ZN4core4iter6traits8iterator8Iterator3any17heab4e0230bb848b3E, symObjAddr: 0x1A84, symBinAddr: 0x1D098, symSize: 0x44 }
  - { offset: 0x8D420, size: 0x8, addend: 0x0, symName: __ZN4core4iter6traits8iterator8Iterator8try_fold17h453f2d663ac06e1aE, symObjAddr: 0x1AC8, symBinAddr: 0x1D0DC, symSize: 0x14C }
  - { offset: 0x8D4D8, size: 0x8, addend: 0x0, symName: __ZN4core4iter6traits8iterator8Iterator8try_fold17h4cd7efbfd0719239E, symObjAddr: 0x1C14, symBinAddr: 0x1D228, symSize: 0x14C }
  - { offset: 0x8D6BF, size: 0x8, addend: 0x0, symName: '__ZN4core5array69_$LT$impl$u20$core..fmt..Debug$u20$for$u20$$u5b$T$u3b$$u20$N$u5d$$GT$3fmt17h315a2eb33abccbbfE', symObjAddr: 0x1D60, symBinAddr: 0x1D374, symSize: 0x58 }
  - { offset: 0x8DBC0, size: 0x8, addend: 0x0, symName: __ZN4core9core_arch10arm_shared4neon9vdup_n_u817h3bce2095928435efE, symObjAddr: 0x23D4, symBinAddr: 0x1D750, symSize: 0x34 }
  - { offset: 0x8DC2F, size: 0x8, addend: 0x0, symName: '__ZN51_$LT$T$u20$as$u20$core..borrow..Borrow$LT$T$GT$$GT$6borrow17h3c013e3dff806098E', symObjAddr: 0x3ADC, symBinAddr: 0x1DFD4, symSize: 0x14 }
  - { offset: 0x8EEA7, size: 0x8, addend: 0x0, symName: '__ZN105_$LT$std..collections..hash..map..Iter$LT$K$C$V$GT$$u20$as$u20$core..iter..traits..iterator..Iterator$GT$4next17hc05f77c8837af20cE', symObjAddr: 0x0, symBinAddr: 0x1BDB8, symSize: 0x24 }
  - { offset: 0x8F31A, size: 0x8, addend: 0x0, symName: '__ZN96_$LT$std..collections..hash..map..HashMap$LT$K$C$V$C$S$GT$$u20$as$u20$core..default..Default$GT$7default17hffde3ce70413ecc1E', symObjAddr: 0x4330, symBinAddr: 0x1E45C, symSize: 0x5C }
  - { offset: 0x8F443, size: 0x8, addend: 0x0, symName: __ZN3std5panic12catch_unwind17h19ca954ae9923756E, symObjAddr: 0xC0C, symBinAddr: 0x1C620, symSize: 0xD4 }
  - { offset: 0x8FB09, size: 0x8, addend: 0x0, symName: '__ZN9hashbrown11rustc_entry62_$LT$impl$u20$hashbrown..map..HashMap$LT$K$C$V$C$S$C$A$GT$$GT$11rustc_entry28_$u7b$$u7b$closure$u7d$$u7d$17ha5bbd25b0b2f1fffE', symObjAddr: 0x4548, symBinAddr: 0x1E544, symSize: 0x40 }
  - { offset: 0x8FB97, size: 0x8, addend: 0x0, symName: '__ZN52_$LT$Q$u20$as$u20$hashbrown..Equivalent$LT$K$GT$$GT$10equivalent17h3111414ea511b18aE', symObjAddr: 0x3AF0, symBinAddr: 0x1DFE8, symSize: 0x6C }
  - { offset: 0x8FC4E, size: 0x8, addend: 0x0, symName: '__ZN3std11collections4hash3map24HashMap$LT$K$C$V$C$S$GT$24with_capacity_and_hasher17h6f02f7a19d9d86f2E', symObjAddr: 0x644, symBinAddr: 0x1C2DC, symSize: 0x3C }
  - { offset: 0x8FD1E, size: 0x8, addend: 0x0, symName: '__ZN3std11collections4hash3map24HashMap$LT$K$C$V$C$S$GT$3len17h4ec1b24967ab3431E', symObjAddr: 0x680, symBinAddr: 0x1C318, symSize: 0x28 }
  - { offset: 0x8FDDD, size: 0x8, addend: 0x0, symName: '__ZN3std11collections4hash3map24HashMap$LT$K$C$V$C$S$GT$4iter17ha7811874308397e0E', symObjAddr: 0x6A8, symBinAddr: 0x1C340, symSize: 0x44 }
  - { offset: 0x8FE60, size: 0x8, addend: 0x0, symName: '__ZN3std11collections4hash3map24HashMap$LT$K$C$V$C$S$GT$5entry17hdfa1da7fa4812da9E', symObjAddr: 0x830, symBinAddr: 0x1C384, symSize: 0xA4 }
  - { offset: 0x8FF04, size: 0x8, addend: 0x0, symName: '__ZN3std11collections4hash3map24HashMap$LT$K$C$V$C$S$GT$6insert17hb647ce96d3bad2a2E', symObjAddr: 0x8D4, symBinAddr: 0x1C428, symSize: 0x28 }
  - { offset: 0x8FF6E, size: 0x8, addend: 0x0, symName: '__ZN3std11collections4hash3map24HashMap$LT$K$C$V$C$S$GT$6remove17h4a23bf108d346c07E', symObjAddr: 0x8FC, symBinAddr: 0x1C450, symSize: 0x2C }
  - { offset: 0x8FFC4, size: 0x8, addend: 0x0, symName: '__ZN3std11collections4hash3map24HashMap$LT$K$C$V$C$S$GT$6remove17hbc61e9a2d85626cbE', symObjAddr: 0x928, symBinAddr: 0x1C47C, symSize: 0x2C }
  - { offset: 0x90082, size: 0x8, addend: 0x0, symName: '__ZN3std11collections4hash3map24HashMap$LT$K$C$V$C$S$GT$7get_mut17h01d97a14d06f9b4aE', symObjAddr: 0x954, symBinAddr: 0x1C4A8, symSize: 0x70 }
  - { offset: 0x90189, size: 0x8, addend: 0x0, symName: '__ZN3std11collections4hash3map24HashMap$LT$K$C$V$C$S$GT$7get_mut17h2f79257a7c9f4519E', symObjAddr: 0x9C4, symBinAddr: 0x1C518, symSize: 0x70 }
  - { offset: 0x9021B, size: 0x8, addend: 0x0, symName: '__ZN3std11collections4hash3map24VacantEntry$LT$K$C$V$GT$6insert17h7a69059bf2cace44E', symObjAddr: 0xA34, symBinAddr: 0x1C588, symSize: 0x34 }
  - { offset: 0x9030A, size: 0x8, addend: 0x0, symName: '__ZN3std11collections4hash3map26OccupiedEntry$LT$K$C$V$GT$8into_mut17h83fdd70f5498038eE', symObjAddr: 0xB44, symBinAddr: 0x1C5BC, symSize: 0x64 }
  - { offset: 0x90445, size: 0x8, addend: 0x0, symName: '__ZN46_$LT$isize$u20$as$u20$num_integer..Integer$GT$3gcd17hbf7f6a8d3e34d1adE', symObjAddr: 0xD40, symBinAddr: 0x1C724, symSize: 0x31C }
  - { offset: 0x906F5, size: 0x8, addend: 0x0, symName: __ZN4core3ffi5c_str4CStr6as_ptr17h3316a5c1029379e2E, symObjAddr: 0x112C, symBinAddr: 0x1CB10, symSize: 0x24 }
  - { offset: 0x907BB, size: 0x8, addend: 0x0, symName: __ZN4core3fmt8builders9DebugList7entries17h8b4b83dcc8e0ffddE, symObjAddr: 0x11E0, symBinAddr: 0x1CBC4, symSize: 0xD0 }
  - { offset: 0x90840, size: 0x8, addend: 0x0, symName: '__ZN4core3mem13manually_drop21ManuallyDrop$LT$T$GT$4drop17hc1b6a1952eb1b887E', symObjAddr: 0x12B0, symBinAddr: 0x1CC94, symSize: 0x24 }
  - { offset: 0x909E9, size: 0x8, addend: 0x0, symName: '__ZN4core6result19Result$LT$T$C$E$GT$14unwrap_or_else17h90640f47fbc5d1c2E', symObjAddr: 0x1DE0, symBinAddr: 0x1D3F4, symSize: 0x80 }
  - { offset: 0x90A73, size: 0x8, addend: 0x0, symName: '__ZN4core6result19Result$LT$T$C$E$GT$14unwrap_or_else17hf2aecb2e825c3c86E', symObjAddr: 0x1E60, symBinAddr: 0x1D474, symSize: 0x88 }
  - { offset: 0x90B22, size: 0x8, addend: 0x0, symName: '__ZN4core6result19Result$LT$T$C$E$GT$3map17h274bd87c237e6692E', symObjAddr: 0x1F6C, symBinAddr: 0x1D4FC, symSize: 0x84 }
  - { offset: 0x90BC2, size: 0x8, addend: 0x0, symName: '__ZN4core6result19Result$LT$T$C$E$GT$3map17h7b446bb362206101E', symObjAddr: 0x1FF0, symBinAddr: 0x1D580, symSize: 0x80 }
  - { offset: 0x91038, size: 0x8, addend: 0x0, symName: '__ZN4core6result19Result$LT$T$C$E$GT$6expect17h8eaecb2678c77d89E', symObjAddr: 0x2070, symBinAddr: 0x1D600, symSize: 0xA8 }
  - { offset: 0x910A8, size: 0x8, addend: 0x0, symName: '__ZN4core6result19Result$LT$T$C$E$GT$6expect17ha238beff0925fab4E', symObjAddr: 0x2118, symBinAddr: 0x1D6A8, symSize: 0xA8 }
  - { offset: 0x9115E, size: 0x8, addend: 0x0, symName: __ZN4pyo310exceptions11PyTypeError7new_err17h779a90d22bfc31cbE, symObjAddr: 0x24F0, symBinAddr: 0x1D7CC, symSize: 0x24 }
  - { offset: 0x91189, size: 0x8, addend: 0x0, symName: __ZN4pyo310exceptions11PyTypeError7new_err17h9a6b725db6efd7f0E, symObjAddr: 0x2514, symBinAddr: 0x1D7F0, symSize: 0x2C }
  - { offset: 0x911DF, size: 0x8, addend: 0x0, symName: '__ZN4pyo312pyclass_init27PyClassInitializer$LT$T$GT$11create_cell17hf810b3716a324a92E', symObjAddr: 0x2680, symBinAddr: 0x1D8C8, symSize: 0x94 }
  - { offset: 0x91223, size: 0x8, addend: 0x0, symName: '__ZN4pyo312pyclass_init27PyClassInitializer$LT$T$GT$24create_cell_from_subtype17h8098778a30180611E', symObjAddr: 0x2714, symBinAddr: 0x1D95C, symSize: 0x3C }
  - { offset: 0x91275, size: 0x8, addend: 0x0, symName: '__ZN4pyo312pyclass_init27PyClassInitializer$LT$T$GT$3new17h5f2ad2074546847dE', symObjAddr: 0x2764, symBinAddr: 0x1D9AC, symSize: 0x2C }
  - { offset: 0x912BB, size: 0x8, addend: 0x0, symName: '__ZN4pyo34sync20GILOnceCell$LT$T$GT$15get_or_try_init17h10ee08f4a1d35d48E', symObjAddr: 0x2790, symBinAddr: 0x1D9D8, symSize: 0xB8 }
  - { offset: 0x9135A, size: 0x8, addend: 0x0, symName: '__ZN4pyo34sync20GILOnceCell$LT$T$GT$15get_or_try_init17h84adb1f104f4751fE', symObjAddr: 0x2848, symBinAddr: 0x1DA90, symSize: 0xC4 }
  - { offset: 0x913DF, size: 0x8, addend: 0x0, symName: '__ZN4pyo34sync20GILOnceCell$LT$T$GT$15get_or_try_init17hda209b040a9476beE', symObjAddr: 0x29D0, symBinAddr: 0x1DB54, symSize: 0xC4 }
  - { offset: 0x91457, size: 0x8, addend: 0x0, symName: '__ZN4pyo34sync20GILOnceCell$LT$T$GT$3get17h2941f0f5f1fbd9f4E', symObjAddr: 0x2A94, symBinAddr: 0x1DC18, symSize: 0x2C }
  - { offset: 0x9149A, size: 0x8, addend: 0x0, symName: '__ZN4pyo34sync20GILOnceCell$LT$T$GT$3get17h394984ec56141671E', symObjAddr: 0x2AC0, symBinAddr: 0x1DC44, symSize: 0x2C }
  - { offset: 0x914DD, size: 0x8, addend: 0x0, symName: '__ZN4pyo34sync20GILOnceCell$LT$T$GT$3get17h9d2ba1fdc59919d3E', symObjAddr: 0x2AEC, symBinAddr: 0x1DC70, symSize: 0x2C }
  - { offset: 0x91556, size: 0x8, addend: 0x0, symName: '__ZN4pyo34sync20GILOnceCell$LT$T$GT$3set17h58434d777981aad9E', symObjAddr: 0x2B18, symBinAddr: 0x1DC9C, symSize: 0xE0 }
  - { offset: 0x91610, size: 0x8, addend: 0x0, symName: '__ZN4pyo34sync20GILOnceCell$LT$T$GT$3set17h5b99e29eda886cedE', symObjAddr: 0x2BF8, symBinAddr: 0x1DD7C, symSize: 0xE0 }
  - { offset: 0x916CA, size: 0x8, addend: 0x0, symName: '__ZN4pyo34sync20GILOnceCell$LT$T$GT$3set17hdb8cd63e8ce6b534E', symObjAddr: 0x2CD8, symBinAddr: 0x1DE5C, symSize: 0x148 }
  - { offset: 0x91779, size: 0x8, addend: 0x0, symName: '__ZN4pyo34sync20GILOnceCell$LT$T$GT$4init17h11ebba0dd8ca3d2cE', symObjAddr: 0x2E20, symBinAddr: 0x92360, symSize: 0x144 }
  - { offset: 0x91878, size: 0x8, addend: 0x0, symName: '__ZN4pyo34sync20GILOnceCell$LT$T$GT$4init17h6ef56c21e585dce1E', symObjAddr: 0x2F64, symBinAddr: 0x924A4, symSize: 0x178 }
  - { offset: 0x91974, size: 0x8, addend: 0x0, symName: '__ZN4pyo34sync20GILOnceCell$LT$T$GT$4init17hd023276fcdc1da75E', symObjAddr: 0x30DC, symBinAddr: 0x9261C, symSize: 0x144 }
  - { offset: 0x91AA7, size: 0x8, addend: 0x0, symName: '__ZN5alloc7raw_vec19RawVec$LT$T$C$A$GT$8grow_one17hbdc92fa478e973faE', symObjAddr: 0x3BD8, symBinAddr: 0x1E08C, symSize: 0x90 }
  - { offset: 0x91BD0, size: 0x8, addend: 0x0, symName: '__ZN9hashbrown11rustc_entry33RustcVacantEntry$LT$K$C$V$C$A$GT$6insert17h08bb26eb758ae663E', symObjAddr: 0x438C, symBinAddr: 0x1E4B8, symSize: 0x8C }
  - { offset: 0x91DD9, size: 0x8, addend: 0x0, symName: '__ZN44_$LT$$RF$T$u20$as$u20$core..fmt..Display$GT$3fmt17h28322b511b48881eE', symObjAddr: 0x0, symBinAddr: 0x1EA48, symSize: 0x30 }
  - { offset: 0x91FBE, size: 0x8, addend: 0x0, symName: __ZN4pyo38instance12PyNativeType18unchecked_downcast17hf22d085b6218777bE, symObjAddr: 0x21C, symBinAddr: 0x1EB68, symSize: 0x24 }
  - { offset: 0x91FF3, size: 0x8, addend: 0x0, symName: __ZN4pyo38instance12PyNativeType2py17h8e0c7732ad279c2bE, symObjAddr: 0x240, symBinAddr: 0x1EB8C, symSize: 0x20 }
  - { offset: 0x920B0, size: 0x8, addend: 0x0, symName: __ZN4pyo35types7capsule18AssertNotZeroSized21assert_not_zero_sized17h3d485d83230d5250E, symObjAddr: 0x20C, symBinAddr: 0x1EB58, symSize: 0x10 }
  - { offset: 0x9217A, size: 0x8, addend: 0x0, symName: __ZN4pyo310conversion13FromPyPointer14from_owned_ptr17h8b6011ecfe824b6dE, symObjAddr: 0x128, symBinAddr: 0x1EAA8, symSize: 0x24 }
  - { offset: 0x921CB, size: 0x8, addend: 0x0, symName: __ZN4pyo310conversion13FromPyPointer17from_borrowed_ptr17h204e5863d4c4a1baE, symObjAddr: 0x14C, symBinAddr: 0x1EACC, symSize: 0x24 }
  - { offset: 0x9221C, size: 0x8, addend: 0x0, symName: __ZN4pyo310conversion13FromPyPointer23from_owned_ptr_or_panic17h0a71cc4199060e79E, symObjAddr: 0x1A4, symBinAddr: 0x1EAF0, symSize: 0x34 }
  - { offset: 0x9226D, size: 0x8, addend: 0x0, symName: __ZN4pyo310conversion13FromPyPointer26from_borrowed_ptr_or_panic17hde77bd453645fb9eE, symObjAddr: 0x1D8, symBinAddr: 0x1EB24, symSize: 0x34 }
  - { offset: 0x922C4, size: 0x8, addend: 0x0, symName: '__ZN53_$LT$T$u20$as$u20$pyo3..conversion..FromPyPointer$GT$21from_owned_ptr_or_opt17hfed3b2b9ea146ba4E', symObjAddr: 0x2E8, symBinAddr: 0x1EC34, symSize: 0x70 }
  - { offset: 0x92332, size: 0x8, addend: 0x0, symName: '__ZN53_$LT$T$u20$as$u20$pyo3..conversion..FromPyPointer$GT$24from_borrowed_ptr_or_opt17h68250086a56313efE', symObjAddr: 0x358, symBinAddr: 0x1ECA4, symSize: 0x28 }
  - { offset: 0x94033, size: 0x8, addend: 0x0, symName: '__ZN44_$LT$$RF$T$u20$as$u20$core..fmt..Display$GT$3fmt17h28322b511b48881eE', symObjAddr: 0x0, symBinAddr: 0x1EA48, symSize: 0x30 }
  - { offset: 0x94107, size: 0x8, addend: 0x0, symName: '__ZN4core4hash5impls52_$LT$impl$u20$core..hash..Hash$u20$for$u20$$RF$T$GT$4hash17h9fa0ef7f725d7dedE', symObjAddr: 0xF8, symBinAddr: 0x1EA78, symSize: 0x30 }
  - { offset: 0x9417D, size: 0x8, addend: 0x0, symName: '__ZN50_$LT$T$u20$as$u20$core..convert..Into$LT$U$GT$$GT$4into17h55bf8959da507393E', symObjAddr: 0x260, symBinAddr: 0x1EBAC, symSize: 0x24 }
  - { offset: 0x941D3, size: 0x8, addend: 0x0, symName: '__ZN51_$LT$T$u20$as$u20$core..borrow..Borrow$LT$T$GT$$GT$6borrow17h128a3c08f0fd8a90E', symObjAddr: 0x284, symBinAddr: 0x1EBD0, symSize: 0x14 }
  - { offset: 0x95787, size: 0x8, addend: 0x0, symName: __ZN5numpy6borrow6shared6SHARED17h514190c9c149b70cE, symObjAddr: 0x22888, symBinAddr: 0xE48B0, symSize: 0x0 }
  - { offset: 0x95841, size: 0x8, addend: 0x0, symName: __ZN5numpy6borrow6shared14acquire_shared17hdb1c8225fe35da19E, symObjAddr: 0x380, symBinAddr: 0x1ECCC, symSize: 0xB8 }
  - { offset: 0x958EF, size: 0x8, addend: 0x0, symName: __ZN5numpy6borrow6shared18acquire_mut_shared17h406a6bf3fb3225b2E, symObjAddr: 0x438, symBinAddr: 0x1ED84, symSize: 0x100 }
  - { offset: 0x9599D, size: 0x8, addend: 0x0, symName: __ZN5numpy6borrow6shared14release_shared17h711066258bb84a48E, symObjAddr: 0x538, symBinAddr: 0x1EE84, symSize: 0x88 }
  - { offset: 0x95A47, size: 0x8, addend: 0x0, symName: __ZN5numpy6borrow6shared18release_mut_shared17hc243bc0819c8606aE, symObjAddr: 0x5C0, symBinAddr: 0x1EF0C, symSize: 0x88 }
  - { offset: 0x95AF1, size: 0x8, addend: 0x0, symName: __ZN5numpy6borrow6shared20get_or_insert_shared17ha3bf4b76eef6aca5E, symObjAddr: 0x648, symBinAddr: 0x1EF94, symSize: 0x98 }
  - { offset: 0x95B66, size: 0x8, addend: 0x0, symName: '__ZN5numpy6borrow6shared20get_or_insert_shared28_$u7b$$u7b$closure$u7d$$u7d$17hd9aab8ab65fc5be3E', symObjAddr: 0x6E0, symBinAddr: 0x1F02C, symSize: 0x20 }
  - { offset: 0x95BB0, size: 0x8, addend: 0x0, symName: __ZN5numpy6borrow6shared13insert_shared17h978fbe2cf40a28f8E, symObjAddr: 0x700, symBinAddr: 0x92760, symSize: 0x4CC }
  - { offset: 0x95DDA, size: 0x8, addend: 0x0, symName: '__ZN5numpy6borrow6shared13insert_shared28_$u7b$$u7b$closure$u7d$$u7d$17h2b66b6fb9f49cef2E', symObjAddr: 0xBCC, symBinAddr: 0x1F04C, symSize: 0x34 }
  - { offset: 0x95E23, size: 0x8, addend: 0x0, symName: __ZN5numpy6borrow6shared7acquire17hdc115b5de96c94b6E, symObjAddr: 0xC00, symBinAddr: 0x1F080, symSize: 0x130 }
  - { offset: 0x95F3E, size: 0x8, addend: 0x0, symName: __ZN5numpy6borrow6shared7release17h7b777c1f9dbf96f0E, symObjAddr: 0xE88, symBinAddr: 0x1F1B0, symSize: 0x64 }
  - { offset: 0x96032, size: 0x8, addend: 0x0, symName: '__ZN5numpy6borrow6shared11BorrowFlags7acquire28_$u7b$$u7b$closure$u7d$$u7d$17h214f7c8e55c7daeeE', symObjAddr: 0x13A8, symBinAddr: 0x1F66C, symSize: 0x78 }
  - { offset: 0x960A2, size: 0x8, addend: 0x0, symName: '__ZN5numpy6borrow6shared11BorrowFlags11acquire_mut28_$u7b$$u7b$closure$u7d$$u7d$17h3445443cd7e1dd18E', symObjAddr: 0x17F4, symBinAddr: 0x1FAB8, symSize: 0x78 }
  - { offset: 0x9610E, size: 0x8, addend: 0x0, symName: __ZN5numpy6borrow6shared12base_address17hf8b97b29a84f5f74E, symObjAddr: 0x1940, symBinAddr: 0x1FC04, symSize: 0xA8 }
  - { offset: 0x9616C, size: 0x8, addend: 0x0, symName: __ZN5numpy6borrow6shared10borrow_key17hab3417089e532e61E, symObjAddr: 0x19E8, symBinAddr: 0x1FCAC, symSize: 0xA4 }
  - { offset: 0x961EC, size: 0x8, addend: 0x0, symName: __ZN5numpy6borrow6shared10data_range17h898977bea87665acE, symObjAddr: 0x1A8C, symBinAddr: 0x1FD50, symSize: 0x3C0 }
  - { offset: 0x9639F, size: 0x8, addend: 0x0, symName: '__ZN5numpy6borrow6shared10data_range28_$u7b$$u7b$closure$u7d$$u7d$17hc05c3ec14dd62d3aE', symObjAddr: 0x1E4C, symBinAddr: 0x20110, symSize: 0x24 }
  - { offset: 0x963E0, size: 0x8, addend: 0x0, symName: __ZN5numpy6borrow6shared11gcd_strides17h1ab98248516accdfE, symObjAddr: 0x1E70, symBinAddr: 0x20134, symSize: 0xDC }
  - { offset: 0x96447, size: 0x8, addend: 0x0, symName: '__ZN73_$LT$numpy..borrow..shared..BorrowKey$u20$as$u20$core..cmp..PartialEq$GT$2eq17h3e2fc4f7a111baf3E', symObjAddr: 0x4D18, symBinAddr: 0x20A68, symSize: 0x88 }
  - { offset: 0x96487, size: 0x8, addend: 0x0, symName: '__ZN69_$LT$numpy..borrow..shared..BorrowKey$u20$as$u20$core..hash..Hash$GT$4hash17h860817c00d6416beE', symObjAddr: 0x4DA0, symBinAddr: 0x20AF0, symSize: 0x50 }
  - { offset: 0x964CC, size: 0x8, addend: 0x0, symName: '__ZN77_$LT$numpy..borrow..shared..BorrowFlags$u20$as$u20$core..default..Default$GT$7default17h9adf39e694f3c020E', symObjAddr: 0x4DF0, symBinAddr: 0x20B40, symSize: 0x38 }
  - { offset: 0x96AD2, size: 0x8, addend: 0x0, symName: __ZN5numpy5dtype19npy_int_type_lookup17h9cf5d65351525d56E, symObjAddr: 0x2ED0, symBinAddr: 0x20334, symSize: 0x128 }
  - { offset: 0x96C30, size: 0x8, addend: 0x0, symName: __ZN5numpy5dtype19npy_int_type_lookup17h9e3a6a2867cdca1fE, symObjAddr: 0x2FF8, symBinAddr: 0x2045C, symSize: 0x128 }
  - { offset: 0x96D8E, size: 0x8, addend: 0x0, symName: __ZN5numpy5dtype19npy_int_type_lookup17hc595b1659b434ddbE, symObjAddr: 0x3120, symBinAddr: 0x20584, symSize: 0x128 }
  - { offset: 0x96EEC, size: 0x8, addend: 0x0, symName: __ZN5numpy5dtype19npy_int_type_lookup17hce722a26ffdfbb10E, symObjAddr: 0x3248, symBinAddr: 0x206AC, symSize: 0x128 }
  - { offset: 0x9704A, size: 0x8, addend: 0x0, symName: __ZN5numpy5dtype12npy_int_type17h642ce37fac29dc95E, symObjAddr: 0x3890, symBinAddr: 0x207D4, symSize: 0x294 }
  - { offset: 0x970A2, size: 0x8, addend: 0x0, symName: '__ZN70_$LT$numpy..dtype..PyArrayDescr$u20$as$u20$core..ops..deref..Deref$GT$5deref17hc544659e0eec063fE', symObjAddr: 0x4E28, symBinAddr: 0x20B78, symSize: 0x14 }
  - { offset: 0x970D4, size: 0x8, addend: 0x0, symName: '__ZN76_$LT$numpy..dtype..PyArrayDescr$u20$as$u20$pyo3..conversion..AsPyPointer$GT$6as_ptr17h68be1a1c196e4cc3E', symObjAddr: 0x4E3C, symBinAddr: 0x20B8C, symSize: 0x24 }
  - { offset: 0x97106, size: 0x8, addend: 0x0, symName: '__ZN65_$LT$numpy..dtype..PyArrayDescr$u20$as$u20$core..fmt..Display$GT$3fmt17hc3a6eea74a5400ccE', symObjAddr: 0x4F60, symBinAddr: 0x20BB0, symSize: 0x28C }
  - { offset: 0x97225, size: 0x8, addend: 0x0, symName: '__ZN44_$LT$u8$u20$as$u20$numpy..dtype..Element$GT$9get_dtype17hed3ce6909ecebd74E', symObjAddr: 0x52CC, symBinAddr: 0x20E3C, symSize: 0x20 }
  - { offset: 0x9769A, size: 0x8, addend: 0x0, symName: '__ZN52_$LT$Q$u20$as$u20$hashbrown..Equivalent$LT$K$GT$$GT$10equivalent17he1f7b8540b5153f4E', symObjAddr: 0x298, symBinAddr: 0x1EBE4, symSize: 0x50 }
  - { offset: 0x97B55, size: 0x8, addend: 0x0, symName: __ZN5numpy6borrow6shared9BorrowKey9conflicts17h1bda98a0c234cf1fE, symObjAddr: 0xF50, symBinAddr: 0x1F214, symSize: 0x1B0 }
  - { offset: 0x97D46, size: 0x8, addend: 0x0, symName: __ZN5numpy6borrow6shared11BorrowFlags7acquire17h957b65d4db1d2d4fE, symObjAddr: 0x1100, symBinAddr: 0x1F3C4, symSize: 0x2A8 }
  - { offset: 0x97F5D, size: 0x8, addend: 0x0, symName: __ZN5numpy6borrow6shared11BorrowFlags7release17h163c7aa330fd553dE, symObjAddr: 0x1420, symBinAddr: 0x1F6E4, symSize: 0x174 }
  - { offset: 0x9805D, size: 0x8, addend: 0x0, symName: __ZN5numpy6borrow6shared11BorrowFlags11acquire_mut17h6f145342a13c8edeE, symObjAddr: 0x1594, symBinAddr: 0x1F858, symSize: 0x260 }
  - { offset: 0x98171, size: 0x8, addend: 0x0, symName: __ZN5numpy6borrow6shared11BorrowFlags11release_mut17h72ed42b6df40e195E, symObjAddr: 0x186C, symBinAddr: 0x1FB30, symSize: 0xD4 }
  - { offset: 0x98238, size: 0x8, addend: 0x0, symName: __ZN5numpy5dtype12PyArrayDescr12as_dtype_ptr17h7813400f24615eadE, symObjAddr: 0x2064, symBinAddr: 0x20210, symSize: 0x24 }
  - { offset: 0x9825A, size: 0x8, addend: 0x0, symName: __ZN5numpy5dtype12PyArrayDescr14into_dtype_ptr17h8a6d2a74d1f992c8E, symObjAddr: 0x2088, symBinAddr: 0x20234, symSize: 0x28 }
  - { offset: 0x982B4, size: 0x8, addend: 0x0, symName: __ZN5numpy5dtype12PyArrayDescr11is_equiv_to17hd289de75ff528288E, symObjAddr: 0x20D8, symBinAddr: 0x2025C, symSize: 0xA0 }
  - { offset: 0x9831E, size: 0x8, addend: 0x0, symName: __ZN5numpy5dtype12PyArrayDescr13from_npy_type17h40a02aa4d7993a91E, symObjAddr: 0x2178, symBinAddr: 0x202FC, symSize: 0x38 }
  - { offset: 0x9864F, size: 0x8, addend: 0x0, symName: '__ZN44_$LT$$RF$T$u20$as$u20$core..fmt..Display$GT$3fmt17hce2c0824285f4501E', symObjAddr: 0x0, symBinAddr: 0x20E5C, symSize: 0x30 }
  - { offset: 0x9921B, size: 0x8, addend: 0x0, symName: '__ZN44_$LT$$RF$T$u20$as$u20$core..fmt..Display$GT$3fmt17hce2c0824285f4501E', symObjAddr: 0x0, symBinAddr: 0x20E5C, symSize: 0x30 }
  - { offset: 0x993AA, size: 0x8, addend: 0x0, symName: '__ZN50_$LT$T$u20$as$u20$core..convert..Into$LT$U$GT$$GT$4into17hdf42ce1f2b430e8cE', symObjAddr: 0xE4, symBinAddr: 0x20E8C, symSize: 0x24 }
  - { offset: 0x9978F, size: 0x8, addend: 0x0, symName: '__ZN77_$LT$pyo3..exceptions..PyBaseException$u20$as$u20$core..ops..deref..Deref$GT$5deref17h96cdeea4dc426851E', symObjAddr: 0x58F0, symBinAddr: 0x2109C, symSize: 0x14 }
  - { offset: 0x997C1, size: 0x8, addend: 0x0, symName: '__ZN70_$LT$pyo3..exceptions..PyBaseException$u20$as$u20$core..fmt..Debug$GT$3fmt17h7332fc3c84f9961dE', symObjAddr: 0x5904, symBinAddr: 0x210B0, symSize: 0x100 }
  - { offset: 0x99832, size: 0x8, addend: 0x0, symName: '__ZN72_$LT$pyo3..exceptions..PyBaseException$u20$as$u20$core..fmt..Display$GT$3fmt17he550733120e9aa4dE', symObjAddr: 0x5A04, symBinAddr: 0x211B0, symSize: 0x29C }
  - { offset: 0x99951, size: 0x8, addend: 0x0, symName: '__ZN83_$LT$pyo3..exceptions..PyBaseException$u20$as$u20$pyo3..type_object..PyTypeInfo$GT$15type_object_raw17hb0416a0d363c1c29E', symObjAddr: 0x5CA0, symBinAddr: 0x2144C, symSize: 0x24 }
  - { offset: 0x9998C, size: 0x8, addend: 0x0, symName: '__ZN83_$LT$pyo3..exceptions..PyBaseException$u20$as$u20$pyo3..type_object..PyTypeInfo$GT$15type_object_raw28_$u7b$$u7b$closure$u7d$$u7d$17h83a9efdc8550881dE', symObjAddr: 0x5CC4, symBinAddr: 0x21470, symSize: 0x1C }
  - { offset: 0x999D8, size: 0x8, addend: 0x0, symName: '__ZN83_$LT$pyo3..exceptions..PyBaseException$u20$as$u20$pyo3..type_object..PyTypeInfo$GT$10is_type_of17hb72cea78ed700725E', symObjAddr: 0x5CE0, symBinAddr: 0x2148C, symSize: 0x30 }
  - { offset: 0x99A0A, size: 0x8, addend: 0x0, symName: '__ZN84_$LT$pyo3..exceptions..PyAttributeError$u20$as$u20$pyo3..type_object..PyTypeInfo$GT$15type_object_raw17ha6873956eb3d0251E', symObjAddr: 0x8318, symBinAddr: 0x214BC, symSize: 0x24 }
  - { offset: 0x99A45, size: 0x8, addend: 0x0, symName: '__ZN84_$LT$pyo3..exceptions..PyAttributeError$u20$as$u20$pyo3..type_object..PyTypeInfo$GT$15type_object_raw28_$u7b$$u7b$closure$u7d$$u7d$17h140287936d9ef0a5E', symObjAddr: 0x833C, symBinAddr: 0x214E0, symSize: 0x1C }
  - { offset: 0x99ACA, size: 0x8, addend: 0x0, symName: '__ZN81_$LT$pyo3..exceptions..PyImportError$u20$as$u20$pyo3..type_object..PyTypeInfo$GT$15type_object_raw17had643ba7d6055b72E', symObjAddr: 0x9B24, symBinAddr: 0x21524, symSize: 0x24 }
  - { offset: 0x99B05, size: 0x8, addend: 0x0, symName: '__ZN81_$LT$pyo3..exceptions..PyImportError$u20$as$u20$pyo3..type_object..PyTypeInfo$GT$15type_object_raw28_$u7b$$u7b$closure$u7d$$u7d$17h2c312ded76241980E', symObjAddr: 0x9B48, symBinAddr: 0x21548, symSize: 0x1C }
  - { offset: 0x99B8A, size: 0x8, addend: 0x0, symName: '__ZN83_$LT$pyo3..exceptions..PyOverflowError$u20$as$u20$pyo3..type_object..PyTypeInfo$GT$15type_object_raw17h140d3737e6655e58E', symObjAddr: 0xBC78, symBinAddr: 0x21578, symSize: 0x24 }
  - { offset: 0x99BC5, size: 0x8, addend: 0x0, symName: '__ZN83_$LT$pyo3..exceptions..PyOverflowError$u20$as$u20$pyo3..type_object..PyTypeInfo$GT$15type_object_raw28_$u7b$$u7b$closure$u7d$$u7d$17h6d94b62bef61a455E', symObjAddr: 0xBC9C, symBinAddr: 0x2159C, symSize: 0x1C }
  - { offset: 0x99C4A, size: 0x8, addend: 0x0, symName: '__ZN82_$LT$pyo3..exceptions..PyRuntimeError$u20$as$u20$pyo3..type_object..PyTypeInfo$GT$15type_object_raw17h8e35538d54bce17cE', symObjAddr: 0xC14C, symBinAddr: 0x215CC, symSize: 0x24 }
  - { offset: 0x99C85, size: 0x8, addend: 0x0, symName: '__ZN82_$LT$pyo3..exceptions..PyRuntimeError$u20$as$u20$pyo3..type_object..PyTypeInfo$GT$15type_object_raw28_$u7b$$u7b$closure$u7d$$u7d$17h00c546cf8ddef8a0E', symObjAddr: 0xC170, symBinAddr: 0x215F0, symSize: 0x1C }
  - { offset: 0x99D46, size: 0x8, addend: 0x0, symName: '__ZN79_$LT$pyo3..exceptions..PyTypeError$u20$as$u20$pyo3..type_object..PyTypeInfo$GT$15type_object_raw17hd0eb120f1926487aE', symObjAddr: 0xE2DC, symBinAddr: 0x2165C, symSize: 0x24 }
  - { offset: 0x99D81, size: 0x8, addend: 0x0, symName: '__ZN79_$LT$pyo3..exceptions..PyTypeError$u20$as$u20$pyo3..type_object..PyTypeInfo$GT$15type_object_raw28_$u7b$$u7b$closure$u7d$$u7d$17h52841e83aed67f44E', symObjAddr: 0xE300, symBinAddr: 0x21680, symSize: 0x1C }
  - { offset: 0x99EF6, size: 0x8, addend: 0x0, symName: '__ZN80_$LT$pyo3..exceptions..PyValueError$u20$as$u20$pyo3..type_object..PyTypeInfo$GT$15type_object_raw17h8697f1f3310540c8E', symObjAddr: 0x10598, symBinAddr: 0x216D8, symSize: 0x24 }
  - { offset: 0x99F31, size: 0x8, addend: 0x0, symName: '__ZN80_$LT$pyo3..exceptions..PyValueError$u20$as$u20$pyo3..type_object..PyTypeInfo$GT$15type_object_raw28_$u7b$$u7b$closure$u7d$$u7d$17h92cc0a733c75da31E', symObjAddr: 0x105BC, symBinAddr: 0x216FC, symSize: 0x1C }
  - { offset: 0x9A010, size: 0x8, addend: 0x0, symName: '__ZN49_$LT$T$u20$as$u20$pyo3..conversion..PyTryFrom$GT$8try_from17h3b7cd67a9c791c1cE', symObjAddr: 0x8C0, symBinAddr: 0x20EB0, symSize: 0x98 }
  - { offset: 0x9A06E, size: 0x8, addend: 0x0, symName: '__ZN49_$LT$T$u20$as$u20$pyo3..conversion..PyTryFrom$GT$18try_from_unchecked17ha048dd2de0d5e00eE', symObjAddr: 0x2E98, symBinAddr: 0x20F48, symSize: 0x30 }
  - { offset: 0x9A289, size: 0x8, addend: 0x0, symName: __ZN4pyo38instance12PyNativeType2py17h4d4f2227753aa196E, symObjAddr: 0x3804, symBinAddr: 0x20F78, symSize: 0x20 }
  - { offset: 0x9A2BA, size: 0x8, addend: 0x0, symName: __ZN4pyo38instance12PyNativeType18unchecked_downcast17h6f3042aca5ad3f4eE, symObjAddr: 0x3C38, symBinAddr: 0x20F98, symSize: 0x24 }
  - { offset: 0x9A37F, size: 0x8, addend: 0x0, symName: __ZN4pyo311type_object10PyTypeInfo11type_object17h13f970c31920948cE, symObjAddr: 0x416C, symBinAddr: 0x20FBC, symSize: 0x20 }
  - { offset: 0x9A3BE, size: 0x8, addend: 0x0, symName: __ZN4pyo311type_object10PyTypeInfo11type_object17h1ec358254a310e7dE, symObjAddr: 0x418C, symBinAddr: 0x20FDC, symSize: 0x20 }
  - { offset: 0x9A3FD, size: 0x8, addend: 0x0, symName: __ZN4pyo311type_object10PyTypeInfo11type_object17h3e82cc603f773d34E, symObjAddr: 0x41EC, symBinAddr: 0x20FFC, symSize: 0x20 }
  - { offset: 0x9A43C, size: 0x8, addend: 0x0, symName: __ZN4pyo311type_object10PyTypeInfo11type_object17h4d1407e6ae7c1cd3E, symObjAddr: 0x422C, symBinAddr: 0x2101C, symSize: 0x20 }
  - { offset: 0x9A47B, size: 0x8, addend: 0x0, symName: __ZN4pyo311type_object10PyTypeInfo11type_object17h70f313f649223a3bE, symObjAddr: 0x42CC, symBinAddr: 0x2103C, symSize: 0x20 }
  - { offset: 0x9A4BA, size: 0x8, addend: 0x0, symName: __ZN4pyo311type_object10PyTypeInfo11type_object17h8b125569b194f2a5E, symObjAddr: 0x430C, symBinAddr: 0x2105C, symSize: 0x20 }
  - { offset: 0x9A4F9, size: 0x8, addend: 0x0, symName: __ZN4pyo311type_object10PyTypeInfo11type_object17ha32bf8a3ca011bcfE, symObjAddr: 0x436C, symBinAddr: 0x2107C, symSize: 0x20 }
  - { offset: 0x9B2CB, size: 0x8, addend: 0x0, symName: __ZN4pyo310exceptions13PyImportError7new_err17hb8182897b0e229ebE, symObjAddr: 0x96B8, symBinAddr: 0x214FC, symSize: 0x28 }
  - { offset: 0x9B496, size: 0x8, addend: 0x0, symName: __ZN4pyo310exceptions15PyOverflowError7new_err17hca77996925b8697cE, symObjAddr: 0xB820, symBinAddr: 0x21564, symSize: 0x14 }
  - { offset: 0x9B4C2, size: 0x8, addend: 0x0, symName: __ZN4pyo310exceptions14PyRuntimeError7new_err17hd46de839261ec4b5E, symObjAddr: 0xBCF4, symBinAddr: 0x215B8, symSize: 0x14 }
  - { offset: 0x9B4EE, size: 0x8, addend: 0x0, symName: __ZN4pyo310exceptions11PyTypeError7new_err17h853be2773cd583ccE, symObjAddr: 0xDE48, symBinAddr: 0x2160C, symSize: 0x14 }
  - { offset: 0x9B51A, size: 0x8, addend: 0x0, symName: __ZN4pyo310exceptions11PyTypeError7new_err17hcfadd00cfb9adc73E, symObjAddr: 0xDE5C, symBinAddr: 0x21620, symSize: 0x14 }
  - { offset: 0x9B546, size: 0x8, addend: 0x0, symName: __ZN4pyo310exceptions11PyTypeError7new_err17hdf03eb4b03b939a6E, symObjAddr: 0xDE70, symBinAddr: 0x21634, symSize: 0x28 }
  - { offset: 0x9B578, size: 0x8, addend: 0x0, symName: __ZN4pyo310exceptions12PyValueError7new_err17h2154a679a2895ac9E, symObjAddr: 0x1006C, symBinAddr: 0x2169C, symSize: 0x28 }
  - { offset: 0x9B5A3, size: 0x8, addend: 0x0, symName: __ZN4pyo310exceptions12PyValueError7new_err17hc69f2f25263a99c1E, symObjAddr: 0x1010C, symBinAddr: 0x216C4, symSize: 0x14 }
  - { offset: 0x9B690, size: 0x8, addend: 0x0, symName: '__ZN136_$LT$core..result..Result$LT$V$C$E$GT$$u20$as$u20$core..iter..traits..collect..FromIterator$LT$core..result..Result$LT$A$C$E$GT$$GT$$GT$9from_iter17hf2eb11faacdc5319E', symObjAddr: 0x0, symBinAddr: 0x21718, symSize: 0x34 }
  - { offset: 0x9C666, size: 0x8, addend: 0x0, symName: '__ZN136_$LT$core..result..Result$LT$V$C$E$GT$$u20$as$u20$core..iter..traits..collect..FromIterator$LT$core..result..Result$LT$A$C$E$GT$$GT$$GT$9from_iter17hf2eb11faacdc5319E', symObjAddr: 0x0, symBinAddr: 0x21718, symSize: 0x34 }
  - { offset: 0x9C6BE, size: 0x8, addend: 0x0, symName: '__ZN136_$LT$core..result..Result$LT$V$C$E$GT$$u20$as$u20$core..iter..traits..collect..FromIterator$LT$core..result..Result$LT$A$C$E$GT$$GT$$GT$9from_iter28_$u7b$$u7b$closure$u7d$$u7d$17hd0678769dd8cd8b5E', symObjAddr: 0x34, symBinAddr: 0x2174C, symSize: 0x30 }
  - { offset: 0x9C8BB, size: 0x8, addend: 0x0, symName: '__ZN153_$LT$core..result..Result$LT$T$C$F$GT$$u20$as$u20$core..ops..try_trait..FromResidual$LT$core..result..Result$LT$core..convert..Infallible$C$E$GT$$GT$$GT$13from_residual17h19762854fe62b0cdE', symObjAddr: 0x13C, symBinAddr: 0x2177C, symSize: 0x48 }
  - { offset: 0x9C940, size: 0x8, addend: 0x0, symName: '__ZN153_$LT$core..result..Result$LT$T$C$F$GT$$u20$as$u20$core..ops..try_trait..FromResidual$LT$core..result..Result$LT$core..convert..Infallible$C$E$GT$$GT$$GT$13from_residual17h1c30ea1226706bd9E', symObjAddr: 0x1CC, symBinAddr: 0x217C4, symSize: 0x48 }
  - { offset: 0x9C9C5, size: 0x8, addend: 0x0, symName: '__ZN153_$LT$core..result..Result$LT$T$C$F$GT$$u20$as$u20$core..ops..try_trait..FromResidual$LT$core..result..Result$LT$core..convert..Infallible$C$E$GT$$GT$$GT$13from_residual17h22c0b8a0fc50f051E', symObjAddr: 0x2EC, symBinAddr: 0x2180C, symSize: 0x48 }
  - { offset: 0x9CA4A, size: 0x8, addend: 0x0, symName: '__ZN153_$LT$core..result..Result$LT$T$C$F$GT$$u20$as$u20$core..ops..try_trait..FromResidual$LT$core..result..Result$LT$core..convert..Infallible$C$E$GT$$GT$$GT$13from_residual17h2ede4208c31386bcE', symObjAddr: 0x4F4, symBinAddr: 0x21854, symSize: 0x48 }
  - { offset: 0x9CACF, size: 0x8, addend: 0x0, symName: '__ZN153_$LT$core..result..Result$LT$T$C$F$GT$$u20$as$u20$core..ops..try_trait..FromResidual$LT$core..result..Result$LT$core..convert..Infallible$C$E$GT$$GT$$GT$13from_residual17h426a6268aef7d8b7E', symObjAddr: 0x7F4, symBinAddr: 0x2189C, symSize: 0x48 }
  - { offset: 0x9CB54, size: 0x8, addend: 0x0, symName: '__ZN153_$LT$core..result..Result$LT$T$C$F$GT$$u20$as$u20$core..ops..try_trait..FromResidual$LT$core..result..Result$LT$core..convert..Infallible$C$E$GT$$GT$$GT$13from_residual17h43560aa3ddca35feE', symObjAddr: 0x884, symBinAddr: 0x218E4, symSize: 0x1C }
  - { offset: 0x9CBBA, size: 0x8, addend: 0x0, symName: '__ZN153_$LT$core..result..Result$LT$T$C$F$GT$$u20$as$u20$core..ops..try_trait..FromResidual$LT$core..result..Result$LT$core..convert..Infallible$C$E$GT$$GT$$GT$13from_residual17h538eeed651818e82E', symObjAddr: 0x978, symBinAddr: 0x21900, symSize: 0x48 }
  - { offset: 0x9CC3F, size: 0x8, addend: 0x0, symName: '__ZN153_$LT$core..result..Result$LT$T$C$F$GT$$u20$as$u20$core..ops..try_trait..FromResidual$LT$core..result..Result$LT$core..convert..Infallible$C$E$GT$$GT$$GT$13from_residual17h648f10fa2b095d0dE', symObjAddr: 0xB00, symBinAddr: 0x21948, symSize: 0x48 }
  - { offset: 0x9CCC4, size: 0x8, addend: 0x0, symName: '__ZN153_$LT$core..result..Result$LT$T$C$F$GT$$u20$as$u20$core..ops..try_trait..FromResidual$LT$core..result..Result$LT$core..convert..Infallible$C$E$GT$$GT$$GT$13from_residual17h7258a64e4266beb0E', symObjAddr: 0xBD8, symBinAddr: 0x21990, symSize: 0x48 }
  - { offset: 0x9CD49, size: 0x8, addend: 0x0, symName: '__ZN153_$LT$core..result..Result$LT$T$C$F$GT$$u20$as$u20$core..ops..try_trait..FromResidual$LT$core..result..Result$LT$core..convert..Infallible$C$E$GT$$GT$$GT$13from_residual17h77ebff2f320d34eeE', symObjAddr: 0xC20, symBinAddr: 0x219D8, symSize: 0x48 }
  - { offset: 0x9CDCE, size: 0x8, addend: 0x0, symName: '__ZN153_$LT$core..result..Result$LT$T$C$F$GT$$u20$as$u20$core..ops..try_trait..FromResidual$LT$core..result..Result$LT$core..convert..Infallible$C$E$GT$$GT$$GT$13from_residual17h93c04f1563e96a70E', symObjAddr: 0xDA8, symBinAddr: 0x21A20, symSize: 0x48 }
  - { offset: 0x9CE53, size: 0x8, addend: 0x0, symName: '__ZN153_$LT$core..result..Result$LT$T$C$F$GT$$u20$as$u20$core..ops..try_trait..FromResidual$LT$core..result..Result$LT$core..convert..Infallible$C$E$GT$$GT$$GT$13from_residual17h9b8953cd2744f1afE', symObjAddr: 0xEC8, symBinAddr: 0x21A68, symSize: 0x58 }
  - { offset: 0x9CEBB, size: 0x8, addend: 0x0, symName: '__ZN153_$LT$core..result..Result$LT$T$C$F$GT$$u20$as$u20$core..ops..try_trait..FromResidual$LT$core..result..Result$LT$core..convert..Infallible$C$E$GT$$GT$$GT$13from_residual17h9ec7c1ae7d1c831dE', symObjAddr: 0xF20, symBinAddr: 0x21AC0, symSize: 0x48 }
  - { offset: 0x9CF40, size: 0x8, addend: 0x0, symName: '__ZN153_$LT$core..result..Result$LT$T$C$F$GT$$u20$as$u20$core..ops..try_trait..FromResidual$LT$core..result..Result$LT$core..convert..Infallible$C$E$GT$$GT$$GT$13from_residual17ha215d3b2a7ec6f64E', symObjAddr: 0xFB0, symBinAddr: 0x21B08, symSize: 0x48 }
  - { offset: 0x9CFC5, size: 0x8, addend: 0x0, symName: '__ZN153_$LT$core..result..Result$LT$T$C$F$GT$$u20$as$u20$core..ops..try_trait..FromResidual$LT$core..result..Result$LT$core..convert..Infallible$C$E$GT$$GT$$GT$13from_residual17ha9266ac0b3735b61E', symObjAddr: 0x1088, symBinAddr: 0x21B50, symSize: 0x48 }
  - { offset: 0x9D04A, size: 0x8, addend: 0x0, symName: '__ZN153_$LT$core..result..Result$LT$T$C$F$GT$$u20$as$u20$core..ops..try_trait..FromResidual$LT$core..result..Result$LT$core..convert..Infallible$C$E$GT$$GT$$GT$13from_residual17hb5bf42379d4bb9e1E', symObjAddr: 0x1160, symBinAddr: 0x21B98, symSize: 0x48 }
  - { offset: 0x9D0CF, size: 0x8, addend: 0x0, symName: '__ZN153_$LT$core..result..Result$LT$T$C$F$GT$$u20$as$u20$core..ops..try_trait..FromResidual$LT$core..result..Result$LT$core..convert..Infallible$C$E$GT$$GT$$GT$13from_residual17hc379f913494177bdE', symObjAddr: 0x1288, symBinAddr: 0x21BE0, symSize: 0x48 }
  - { offset: 0x9D154, size: 0x8, addend: 0x0, symName: '__ZN153_$LT$core..result..Result$LT$T$C$F$GT$$u20$as$u20$core..ops..try_trait..FromResidual$LT$core..result..Result$LT$core..convert..Infallible$C$E$GT$$GT$$GT$13from_residual17he499c05d541f1570E', symObjAddr: 0x1360, symBinAddr: 0x21C28, symSize: 0x48 }
  - { offset: 0x9D1D9, size: 0x8, addend: 0x0, symName: '__ZN153_$LT$core..result..Result$LT$T$C$F$GT$$u20$as$u20$core..ops..try_trait..FromResidual$LT$core..result..Result$LT$core..convert..Infallible$C$E$GT$$GT$$GT$13from_residual17he91a253019bd9d0aE', symObjAddr: 0x13F0, symBinAddr: 0x21C70, symSize: 0x48 }
  - { offset: 0x9D25E, size: 0x8, addend: 0x0, symName: '__ZN153_$LT$core..result..Result$LT$T$C$F$GT$$u20$as$u20$core..ops..try_trait..FromResidual$LT$core..result..Result$LT$core..convert..Infallible$C$E$GT$$GT$$GT$13from_residual17hf9f20ac2cd67b1f7E', symObjAddr: 0x14E8, symBinAddr: 0x21CB8, symSize: 0x58 }
  - { offset: 0x9F04A, size: 0x8, addend: 0x0, symName: '__ZN79_$LT$core..result..Result$LT$T$C$E$GT$$u20$as$u20$core..ops..try_trait..Try$GT$11from_output17hbf9edc0ef01317e2E', symObjAddr: 0x88B4, symBinAddr: 0x229FC, symSize: 0x18 }
  - { offset: 0x9F08A, size: 0x8, addend: 0x0, symName: '__ZN79_$LT$core..result..Result$LT$T$C$E$GT$$u20$as$u20$core..ops..try_trait..Try$GT$6branch17h020ce3738146cf91E', symObjAddr: 0x88CC, symBinAddr: 0x22A14, symSize: 0x44 }
  - { offset: 0x9F105, size: 0x8, addend: 0x0, symName: '__ZN79_$LT$core..result..Result$LT$T$C$E$GT$$u20$as$u20$core..ops..try_trait..Try$GT$6branch17h0346d0c616d4c0a4E', symObjAddr: 0x8910, symBinAddr: 0x22A58, symSize: 0x80 }
  - { offset: 0x9F183, size: 0x8, addend: 0x0, symName: '__ZN79_$LT$core..result..Result$LT$T$C$E$GT$$u20$as$u20$core..ops..try_trait..Try$GT$6branch17h1ecc365620562721E', symObjAddr: 0x8BE8, symBinAddr: 0x22AD8, symSize: 0x80 }
  - { offset: 0x9F201, size: 0x8, addend: 0x0, symName: '__ZN79_$LT$core..result..Result$LT$T$C$E$GT$$u20$as$u20$core..ops..try_trait..Try$GT$6branch17h2f7d4b0233396e87E', symObjAddr: 0x8D70, symBinAddr: 0x22B58, symSize: 0x8C }
  - { offset: 0x9F27F, size: 0x8, addend: 0x0, symName: '__ZN79_$LT$core..result..Result$LT$T$C$E$GT$$u20$as$u20$core..ops..try_trait..Try$GT$6branch17h3c98655388e5580fE', symObjAddr: 0x8F10, symBinAddr: 0x22BE4, symSize: 0x94 }
  - { offset: 0x9F2FC, size: 0x8, addend: 0x0, symName: '__ZN79_$LT$core..result..Result$LT$T$C$E$GT$$u20$as$u20$core..ops..try_trait..Try$GT$6branch17h48576d7998d31982E', symObjAddr: 0x8FA4, symBinAddr: 0x22C78, symSize: 0x94 }
  - { offset: 0x9F379, size: 0x8, addend: 0x0, symName: '__ZN79_$LT$core..result..Result$LT$T$C$E$GT$$u20$as$u20$core..ops..try_trait..Try$GT$6branch17h4ccb4a02b9ab776bE', symObjAddr: 0x9038, symBinAddr: 0x22D0C, symSize: 0x94 }
  - { offset: 0x9F3F7, size: 0x8, addend: 0x0, symName: '__ZN79_$LT$core..result..Result$LT$T$C$E$GT$$u20$as$u20$core..ops..try_trait..Try$GT$6branch17h4f23ded57bea56beE', symObjAddr: 0x90CC, symBinAddr: 0x22DA0, symSize: 0x80 }
  - { offset: 0x9F475, size: 0x8, addend: 0x0, symName: '__ZN79_$LT$core..result..Result$LT$T$C$E$GT$$u20$as$u20$core..ops..try_trait..Try$GT$6branch17h5614f4c8a492fc73E', symObjAddr: 0x914C, symBinAddr: 0x22E20, symSize: 0x80 }
  - { offset: 0x9F4F3, size: 0x8, addend: 0x0, symName: '__ZN79_$LT$core..result..Result$LT$T$C$E$GT$$u20$as$u20$core..ops..try_trait..Try$GT$6branch17h5a31d64eb3bb7919E', symObjAddr: 0x9258, symBinAddr: 0x22EA0, symSize: 0x94 }
  - { offset: 0x9F570, size: 0x8, addend: 0x0, symName: '__ZN79_$LT$core..result..Result$LT$T$C$E$GT$$u20$as$u20$core..ops..try_trait..Try$GT$6branch17h80cb79b71cd85bafE', symObjAddr: 0x946C, symBinAddr: 0x22F34, symSize: 0x88 }
  - { offset: 0x9F5EE, size: 0x8, addend: 0x0, symName: '__ZN79_$LT$core..result..Result$LT$T$C$E$GT$$u20$as$u20$core..ops..try_trait..Try$GT$6branch17h822481a714c7fe7cE', symObjAddr: 0x94F4, symBinAddr: 0x22FBC, symSize: 0x94 }
  - { offset: 0x9F66B, size: 0x8, addend: 0x0, symName: '__ZN79_$LT$core..result..Result$LT$T$C$E$GT$$u20$as$u20$core..ops..try_trait..Try$GT$6branch17ha41fc0bb4cbab433E', symObjAddr: 0x9798, symBinAddr: 0x23050, symSize: 0xB8 }
  - { offset: 0x9F6E8, size: 0x8, addend: 0x0, symName: '__ZN79_$LT$core..result..Result$LT$T$C$E$GT$$u20$as$u20$core..ops..try_trait..Try$GT$6branch17ha8dfd97ddf8d13d2E', symObjAddr: 0x9850, symBinAddr: 0x23108, symSize: 0x94 }
  - { offset: 0x9F765, size: 0x8, addend: 0x0, symName: '__ZN79_$LT$core..result..Result$LT$T$C$E$GT$$u20$as$u20$core..ops..try_trait..Try$GT$6branch17hb102267cca83adfbE', symObjAddr: 0x99E0, symBinAddr: 0x2319C, symSize: 0x28 }
  - { offset: 0x9F7C3, size: 0x8, addend: 0x0, symName: '__ZN79_$LT$core..result..Result$LT$T$C$E$GT$$u20$as$u20$core..ops..try_trait..Try$GT$6branch17hbb6f2361238c7148E', symObjAddr: 0x9A88, symBinAddr: 0x231C4, symSize: 0x80 }
  - { offset: 0x9F841, size: 0x8, addend: 0x0, symName: '__ZN79_$LT$core..result..Result$LT$T$C$E$GT$$u20$as$u20$core..ops..try_trait..Try$GT$6branch17hc09cc0726597442fE', symObjAddr: 0x9B08, symBinAddr: 0x23244, symSize: 0xAC }
  - { offset: 0x9F8BE, size: 0x8, addend: 0x0, symName: '__ZN79_$LT$core..result..Result$LT$T$C$E$GT$$u20$as$u20$core..ops..try_trait..Try$GT$6branch17hc71ec3b05a939290E', symObjAddr: 0x9C3C, symBinAddr: 0x232F0, symSize: 0x70 }
  - { offset: 0x9F93B, size: 0x8, addend: 0x0, symName: '__ZN79_$LT$core..result..Result$LT$T$C$E$GT$$u20$as$u20$core..ops..try_trait..Try$GT$6branch17hc99badbbf5ddcbc7E', symObjAddr: 0x9D2C, symBinAddr: 0x23360, symSize: 0x80 }
  - { offset: 0x9F9B9, size: 0x8, addend: 0x0, symName: '__ZN79_$LT$core..result..Result$LT$T$C$E$GT$$u20$as$u20$core..ops..try_trait..Try$GT$6branch17hcbee734b139d2f4fE', symObjAddr: 0x9DAC, symBinAddr: 0x233E0, symSize: 0x28 }
  - { offset: 0x9FA17, size: 0x8, addend: 0x0, symName: '__ZN79_$LT$core..result..Result$LT$T$C$E$GT$$u20$as$u20$core..ops..try_trait..Try$GT$6branch17hdadb33a1318befd8E', symObjAddr: 0x9E0C, symBinAddr: 0x23408, symSize: 0x80 }
  - { offset: 0x9FA95, size: 0x8, addend: 0x0, symName: '__ZN79_$LT$core..result..Result$LT$T$C$E$GT$$u20$as$u20$core..ops..try_trait..Try$GT$6branch17he032ac3c7ff278a1E', symObjAddr: 0x9F20, symBinAddr: 0x23488, symSize: 0x80 }
  - { offset: 0x9FB13, size: 0x8, addend: 0x0, symName: '__ZN79_$LT$core..result..Result$LT$T$C$E$GT$$u20$as$u20$core..ops..try_trait..Try$GT$6branch17he16f69020a573bd1E', symObjAddr: 0x9FA0, symBinAddr: 0x23508, symSize: 0xB0 }
  - { offset: 0x9FB90, size: 0x8, addend: 0x0, symName: '__ZN79_$LT$core..result..Result$LT$T$C$E$GT$$u20$as$u20$core..ops..try_trait..Try$GT$6branch17hfc9c905609f1f035E', symObjAddr: 0xA250, symBinAddr: 0x235B8, symSize: 0x8C }
  - { offset: 0x9FC0E, size: 0x8, addend: 0x0, symName: '__ZN79_$LT$core..result..Result$LT$T$C$E$GT$$u20$as$u20$core..ops..try_trait..Try$GT$6branch17hfdb27600a8e7cc30E', symObjAddr: 0xA2DC, symBinAddr: 0x23644, symSize: 0x8C }
  - { offset: 0xA2E49, size: 0x8, addend: 0x0, symName: '__ZN4core6result19Result$LT$T$C$E$GT$2ok17h0c5b4e8d367c42ccE', symObjAddr: 0x1C2C, symBinAddr: 0x21D10, symSize: 0x64 }
  - { offset: 0xA2E9D, size: 0x8, addend: 0x0, symName: '__ZN4core6result19Result$LT$T$C$E$GT$2ok17h29593222108bd5ccE', symObjAddr: 0x1C90, symBinAddr: 0x21D74, symSize: 0x58 }
  - { offset: 0xA2EF0, size: 0x8, addend: 0x0, symName: '__ZN4core6result19Result$LT$T$C$E$GT$2or17h86551edd29f2f5c2E', symObjAddr: 0x1CE8, symBinAddr: 0x21DCC, symSize: 0x70 }
  - { offset: 0xA2F95, size: 0x8, addend: 0x0, symName: '__ZN4core6result19Result$LT$T$C$E$GT$3map17ha5605472be3237adE', symObjAddr: 0x1EFC, symBinAddr: 0x21E3C, symSize: 0x8C }
  - { offset: 0xA3028, size: 0x8, addend: 0x0, symName: '__ZN4core6result19Result$LT$T$C$E$GT$3map17ha65971d049070617E', symObjAddr: 0x1F88, symBinAddr: 0x21EC8, symSize: 0x8C }
  - { offset: 0xA30BB, size: 0x8, addend: 0x0, symName: '__ZN4core6result19Result$LT$T$C$E$GT$6expect17h0f23f7757cf55488E', symObjAddr: 0x2234, symBinAddr: 0x21F54, symSize: 0x84 }
  - { offset: 0xA311C, size: 0x8, addend: 0x0, symName: '__ZN4core6result19Result$LT$T$C$E$GT$6expect17h2b3ca50286410b70E', symObjAddr: 0x2360, symBinAddr: 0x21FD8, symSize: 0x9C }
  - { offset: 0xA317F, size: 0x8, addend: 0x0, symName: '__ZN4core6result19Result$LT$T$C$E$GT$6expect17h65221e7bc21fbc56E', symObjAddr: 0x24B4, symBinAddr: 0x22074, symSize: 0x84 }
  - { offset: 0xA31E0, size: 0x8, addend: 0x0, symName: '__ZN4core6result19Result$LT$T$C$E$GT$6expect17h72169e07a820e143E', symObjAddr: 0x25BC, symBinAddr: 0x220F8, symSize: 0xA4 }
  - { offset: 0xA3242, size: 0x8, addend: 0x0, symName: '__ZN4core6result19Result$LT$T$C$E$GT$6expect17h799270461aa5c839E', symObjAddr: 0x2660, symBinAddr: 0x2219C, symSize: 0xA8 }
  - { offset: 0xA32A5, size: 0x8, addend: 0x0, symName: '__ZN4core6result19Result$LT$T$C$E$GT$6expect17h886db9166c875766E', symObjAddr: 0x2708, symBinAddr: 0x22244, symSize: 0x8C }
  - { offset: 0xA3307, size: 0x8, addend: 0x0, symName: '__ZN4core6result19Result$LT$T$C$E$GT$6expect17h89dbb8494e62f3b6E', symObjAddr: 0x283C, symBinAddr: 0x222D0, symSize: 0x98 }
  - { offset: 0xA336A, size: 0x8, addend: 0x0, symName: '__ZN4core6result19Result$LT$T$C$E$GT$6expect17hc7bc024c727de257E', symObjAddr: 0x297C, symBinAddr: 0x22368, symSize: 0x78 }
  - { offset: 0xA33CB, size: 0x8, addend: 0x0, symName: '__ZN4core6result19Result$LT$T$C$E$GT$6expect17hebe10845c17ae7f4E', symObjAddr: 0x2B14, symBinAddr: 0x223E0, symSize: 0xBC }
  - { offset: 0xA3469, size: 0x8, addend: 0x0, symName: '__ZN4core6result19Result$LT$T$C$E$GT$7map_err17h44d92b385410cb97E', symObjAddr: 0x43BC, symBinAddr: 0x2249C, symSize: 0xB0 }
  - { offset: 0xA34FC, size: 0x8, addend: 0x0, symName: '__ZN4core6result19Result$LT$T$C$E$GT$7map_err17h74800f13c72cecebE', symObjAddr: 0x59E8, symBinAddr: 0x2254C, symSize: 0xB0 }
  - { offset: 0xA35B4, size: 0x8, addend: 0x0, symName: '__ZN4core6result19Result$LT$T$C$E$GT$7map_err17h8d3dea534af6c683E', symObjAddr: 0x621C, symBinAddr: 0x225FC, symSize: 0x88 }
  - { offset: 0xA3646, size: 0x8, addend: 0x0, symName: '__ZN4core6result19Result$LT$T$C$E$GT$7map_err17haaaa4136c7f900b9E', symObjAddr: 0x6B10, symBinAddr: 0x22684, symSize: 0x70 }
  - { offset: 0xA36D7, size: 0x8, addend: 0x0, symName: '__ZN4core6result19Result$LT$T$C$E$GT$7map_err17hbcd7ec1b3d8e8616E', symObjAddr: 0x7118, symBinAddr: 0x226F4, symSize: 0xBC }
  - { offset: 0xA376A, size: 0x8, addend: 0x0, symName: '__ZN4core6result19Result$LT$T$C$E$GT$7map_err17hf05205451e71a85aE', symObjAddr: 0x7DC4, symBinAddr: 0x227B0, symSize: 0x9C }
  - { offset: 0xA37FD, size: 0x8, addend: 0x0, symName: '__ZN4core6result19Result$LT$T$C$E$GT$7map_err17hf1cd8296b1b89e13E', symObjAddr: 0x7F04, symBinAddr: 0x2284C, symSize: 0xA4 }
  - { offset: 0xA38A8, size: 0x8, addend: 0x0, symName: '__ZN4core6result19Result$LT$T$C$E$GT$9unwrap_or17h07744d3eaca80085E', symObjAddr: 0x8708, symBinAddr: 0x228F0, symSize: 0x90 }
  - { offset: 0xA390B, size: 0x8, addend: 0x0, symName: '__ZN4core6result19Result$LT$T$C$E$GT$9unwrap_or17ha50d3c41edf1e26eE', symObjAddr: 0x8818, symBinAddr: 0x22980, symSize: 0x7C }
  - { offset: 0xA3CDE, size: 0x8, addend: 0x0, symName: __ZN4pyo315internal_tricks16extract_c_string17hc5a751dbb888dc7bE, symObjAddr: 0x1484, symBinAddr: 0x241EC, symSize: 0x1EC }
  - { offset: 0xA3DC9, size: 0x8, addend: 0x0, symName: '__ZN4pyo315internal_tricks16extract_c_string28_$u7b$$u7b$closure$u7d$$u7d$17hb49f1ecc7c6102fdE', symObjAddr: 0x1670, symBinAddr: 0x243D8, symSize: 0x34 }
  - { offset: 0xA3E01, size: 0x8, addend: 0x0, symName: '__ZN4pyo315internal_tricks16extract_c_string28_$u7b$$u7b$closure$u7d$$u7d$17h1bc67907aeb08bb3E', symObjAddr: 0x16A4, symBinAddr: 0x2440C, symSize: 0x64 }
  - { offset: 0xA3ECF, size: 0x8, addend: 0x0, symName: '__ZN4pyo35impl_7pyclass16lazy_type_object19LazyTypeObjectInner15get_or_try_init28_$u7b$$u7b$closure$u7d$$u7d$17h1bee4abe0f796f69E', symObjAddr: 0x3024, symBinAddr: 0x24508, symSize: 0x130 }
  - { offset: 0xA3F90, size: 0x8, addend: 0x0, symName: '__ZN4pyo35impl_7pyclass16lazy_type_object19LazyTypeObjectInner15get_or_try_init28_$u7b$$u7b$closure$u7d$$u7d$28_$u7b$$u7b$closure$u7d$$u7d$17h7c61acec82aec918E', symObjAddr: 0x3154, symBinAddr: 0x24638, symSize: 0x2C }
  - { offset: 0xA3FCD, size: 0x8, addend: 0x0, symName: '__ZN4pyo35impl_7pyclass16lazy_type_object19LazyTypeObjectInner15get_or_try_init28_$u7b$$u7b$closure$u7d$$u7d$17hc05c4d3e896cbcd6E', symObjAddr: 0x3180, symBinAddr: 0x24664, symSize: 0x10C }
  - { offset: 0xA40C1, size: 0x8, addend: 0x0, symName: '__ZN135_$LT$pyo3..impl_..pyclass..lazy_type_object..LazyTypeObjectInner..ensure_init..InitializationGuard$u20$as$u20$core..ops..drop..Drop$GT$4drop17h80333627f7c5b68aE', symObjAddr: 0x3B1C, symBinAddr: 0x25000, symSize: 0x98 }
  - { offset: 0xA4103, size: 0x8, addend: 0x0, symName: '__ZN135_$LT$pyo3..impl_..pyclass..lazy_type_object..LazyTypeObjectInner..ensure_init..InitializationGuard$u20$as$u20$core..ops..drop..Drop$GT$4drop28_$u7b$$u7b$closure$u7d$$u7d$17h435a6dcbc231c90aE', symObjAddr: 0x3BB4, symBinAddr: 0x25098, symSize: 0x38 }
  - { offset: 0xA4142, size: 0x8, addend: 0x0, symName: '__ZN4pyo35impl_7pyclass16lazy_type_object19LazyTypeObjectInner11ensure_init28_$u7b$$u7b$closure$u7d$$u7d$17hf79bd5fec7cdc967E', symObjAddr: 0x3BEC, symBinAddr: 0x250D0, symSize: 0x164 }
  - { offset: 0xA41F2, size: 0x8, addend: 0x0, symName: __ZN4pyo35impl_7pyclass16lazy_type_object18initialize_tp_dict17hb3846f3092f8383cE, symObjAddr: 0x3D50, symBinAddr: 0x25234, symSize: 0x21C }
  - { offset: 0xA429F, size: 0x8, addend: 0x0, symName: __ZN4pyo35impl_7pyclass16lazy_type_object21wrap_in_runtime_error17h1e5c9a701a56ae93E, symObjAddr: 0x3F6C, symBinAddr: 0x92C2C, symSize: 0xE0 }
  - { offset: 0xA5EC9, size: 0x8, addend: 0x0, symName: '__ZN4core3fmt3num52_$LT$impl$u20$core..fmt..Debug$u20$for$u20$isize$GT$3fmt17h110af008747a69d2E', symObjAddr: 0x540, symBinAddr: 0x239D0, symSize: 0x90 }
  - { offset: 0xA5F43, size: 0x8, addend: 0x0, symName: '__ZN4core3fmt3num52_$LT$impl$u20$core..fmt..Debug$u20$for$u20$usize$GT$3fmt17h3068856c4d2de46dE', symObjAddr: 0x5D0, symBinAddr: 0x23A60, symSize: 0x90 }
  - { offset: 0xA60BB, size: 0x8, addend: 0x0, symName: '__ZN4core5slice29_$LT$impl$u20$$u5b$T$u5d$$GT$8contains17h570b7c4e50e20dadE', symObjAddr: 0xCB4, symBinAddr: 0x23F0C, symSize: 0x48 }
  - { offset: 0xA61C3, size: 0x8, addend: 0x0, symName: '__ZN53_$LT$T$u20$as$u20$core..slice..cmp..SliceContains$GT$14slice_contains17he538c6cc339f0595E', symObjAddr: 0xE04, symBinAddr: 0x24024, symSize: 0x78 }
  - { offset: 0xA63CD, size: 0x8, addend: 0x0, symName: '__ZN31_$LT$dyn$u20$core..any..Any$GT$2is17h5f23cae10b8e4387E', symObjAddr: 0xB0, symBinAddr: 0x236F0, symSize: 0x10C }
  - { offset: 0xA6505, size: 0x8, addend: 0x0, symName: '__ZN31_$LT$dyn$u20$core..any..Any$GT$2is17hceca0ebe831a6debE', symObjAddr: 0x1BC, symBinAddr: 0x237FC, symSize: 0x10C }
  - { offset: 0xA668D, size: 0x8, addend: 0x0, symName: '__ZN54_$LT$dyn$u20$core..any..Any$u2b$core..marker..Send$GT$12downcast_ref17h9b50a98fbf2d26daE', symObjAddr: 0xE7C, symBinAddr: 0x2409C, symSize: 0x60 }
  - { offset: 0xA66E2, size: 0x8, addend: 0x0, symName: '__ZN54_$LT$dyn$u20$core..any..Any$u2b$core..marker..Send$GT$12downcast_ref17hacdfa4d0fa526c63E', symObjAddr: 0xEDC, symBinAddr: 0x240FC, symSize: 0x60 }
  - { offset: 0xA684B, size: 0x8, addend: 0x0, symName: __ZN4core3cmp9PartialEq2ne17h2086e2477210a0b5E, symObjAddr: 0x450, symBinAddr: 0x239A0, symSize: 0x30 }
  - { offset: 0xA6EE8, size: 0x8, addend: 0x0, symName: __ZN4core3mem4drop17hd082441a275acd22E, symObjAddr: 0x660, symBinAddr: 0x23AF0, symSize: 0x28 }
  - { offset: 0xA6F5D, size: 0x8, addend: 0x0, symName: __ZN4core3mem4take17h37706875ecb00135E, symObjAddr: 0x688, symBinAddr: 0x23B18, symSize: 0x54 }
  - { offset: 0xA7057, size: 0x8, addend: 0x0, symName: __ZN4core3mem4take17h9d48b8df8c498281E, symObjAddr: 0x6DC, symBinAddr: 0x23B6C, symSize: 0x58 }
  - { offset: 0xA7151, size: 0x8, addend: 0x0, symName: __ZN4core3mem4take17hc9ca9430530ec179E, symObjAddr: 0x734, symBinAddr: 0x23BC4, symSize: 0x54 }
  - { offset: 0xA7209, size: 0x8, addend: 0x0, symName: __ZN4core3mem6forget17h1275beadf9759b47E, symObjAddr: 0x788, symBinAddr: 0x23C18, symSize: 0x14 }
  - { offset: 0xA723A, size: 0x8, addend: 0x0, symName: __ZN4core3mem6forget17h13f82179c45381d7E, symObjAddr: 0x79C, symBinAddr: 0x23C2C, symSize: 0x4 }
  - { offset: 0xA7268, size: 0x8, addend: 0x0, symName: __ZN4core3mem6forget17h2fe22d194e72dd49E, symObjAddr: 0x7B0, symBinAddr: 0x23C30, symSize: 0x10 }
  - { offset: 0xA7299, size: 0x8, addend: 0x0, symName: __ZN4core3mem6forget17h3893035167776c6cE, symObjAddr: 0x7C0, symBinAddr: 0x23C40, symSize: 0x10 }
  - { offset: 0xA72CA, size: 0x8, addend: 0x0, symName: __ZN4core3mem6forget17h451f76ef2b00fbe9E, symObjAddr: 0x7E0, symBinAddr: 0x23C50, symSize: 0x10 }
  - { offset: 0xA72FB, size: 0x8, addend: 0x0, symName: __ZN4core3mem6forget17h6d4a1fe1c17e3546E, symObjAddr: 0x804, symBinAddr: 0x23C60, symSize: 0x14 }
  - { offset: 0xA732C, size: 0x8, addend: 0x0, symName: __ZN4core3mem6forget17h726cc457f369d29bE, symObjAddr: 0x818, symBinAddr: 0x23C74, symSize: 0x10 }
  - { offset: 0xA735D, size: 0x8, addend: 0x0, symName: __ZN4core3mem6forget17h9377652edda85ccfE, symObjAddr: 0x828, symBinAddr: 0x23C84, symSize: 0x10 }
  - { offset: 0xA742D, size: 0x8, addend: 0x0, symName: __ZN4core4char7methods15encode_utf8_raw17h8b58125b85b9f9edE, symObjAddr: 0x85C, symBinAddr: 0x23C94, symSize: 0x228 }
  - { offset: 0xA75F3, size: 0x8, addend: 0x0, symName: __ZN4core5alloc6layout6Layout25from_size_align_unchecked18precondition_check17ha261dda4036c030aE, symObjAddr: 0xC64, symBinAddr: 0x23EBC, symSize: 0x50 }
  - { offset: 0xA7694, size: 0x8, addend: 0x0, symName: __ZN4core9core_arch7aarch644neon9generated8vcgez_s817h390a06f20c497595E, symObjAddr: 0xCFC, symBinAddr: 0x23F54, symSize: 0x68 }
  - { offset: 0xA7736, size: 0x8, addend: 0x0, symName: __ZN4core9core_arch7aarch644neon9generated8vcltz_s817h8a3c3bfaa956140eE, symObjAddr: 0xD64, symBinAddr: 0x23FBC, symSize: 0x68 }
  - { offset: 0xA8075, size: 0x8, addend: 0x0, symName: __ZN8pyo3_ffi7objimpl12PyType_IS_GC17hee4604d82d694ad6E, symObjAddr: 0x1090, symBinAddr: 0x241C0, symSize: 0x2C }
  - { offset: 0xA8643, size: 0x8, addend: 0x0, symName: '__ZN62_$LT$std..thread..ThreadId$u20$as$u20$core..cmp..PartialEq$GT$2eq17h0459a2c56c25836eE', symObjAddr: 0xF90, symBinAddr: 0x2415C, symSize: 0x64 }
  - { offset: 0xA8D91, size: 0x8, addend: 0x0, symName: __ZN16parking_lot_core11parking_lot8deadlock16acquire_resource17h37102f4436f27c1dE, symObjAddr: 0x90, symBinAddr: 0x236D0, symSize: 0x10 }
  - { offset: 0xA8DBB, size: 0x8, addend: 0x0, symName: __ZN16parking_lot_core11parking_lot8deadlock16release_resource17hcbe965fde6a46398E, symObjAddr: 0xA0, symBinAddr: 0x236E0, symSize: 0x10 }
  - { offset: 0xA9064, size: 0x8, addend: 0x0, symName: __ZN3std6thread6Thread2id17hef74a32783f2fd9fE, symObjAddr: 0x388, symBinAddr: 0x23908, symSize: 0x98 }
  - { offset: 0xA9763, size: 0x8, addend: 0x0, symName: __ZN4pyo35impl_7pyclass16lazy_type_object19LazyTypeObjectInner15get_or_try_init17h583f0546c9218f70E, symObjAddr: 0x2F8C, symBinAddr: 0x24470, symSize: 0x98 }
  - { offset: 0xA980B, size: 0x8, addend: 0x0, symName: __ZN4pyo35impl_7pyclass16lazy_type_object19LazyTypeObjectInner11ensure_init17h5acea458e6c3d800E, symObjAddr: 0x328C, symBinAddr: 0x24770, symSize: 0x890 }
  - { offset: 0xA9D88, size: 0x8, addend: 0x0, symName: '__ZN146_$LT$core..ops..range..Range$LT$usize$GT$$u20$as$u20$core..iter..adapters..step_by..SpecRangeSetup$LT$core..ops..range..Range$LT$usize$GT$$GT$$GT$5setup17h0f10d222234f197dE', symObjAddr: 0x0, symBinAddr: 0x25450, symSize: 0x12C }
  - { offset: 0xAA033, size: 0x8, addend: 0x0, symName: '__ZN59_$LT$alloc..alloc..Global$u20$as$u20$core..clone..Clone$GT$5clone17h4e5d02c3a0021077E', symObjAddr: 0xD24, symBinAddr: 0x258F0, symSize: 0x10 }
  - { offset: 0xAA05C, size: 0x8, addend: 0x0, symName: __ZN5alloc5alloc12alloc_zeroed17hdae44a08ab063c61E, symObjAddr: 0xD34, symBinAddr: 0x25900, symSize: 0x88 }
  - { offset: 0xAA12C, size: 0x8, addend: 0x0, symName: '__ZN63_$LT$alloc..alloc..Global$u20$as$u20$core..alloc..Allocator$GT$10deallocate17h4ce8138fe08695d8E', symObjAddr: 0x10A8, symBinAddr: 0x25C74, symSize: 0x8C }
  - { offset: 0xAA210, size: 0x8, addend: 0x0, symName: '__ZN63_$LT$alloc..alloc..Global$u20$as$u20$core..alloc..Allocator$GT$8allocate17h46204b1b771e49d6E', symObjAddr: 0x1134, symBinAddr: 0x25D00, symSize: 0x34 }
  - { offset: 0xAA24E, size: 0x8, addend: 0x0, symName: __ZN5alloc5alloc15exchange_malloc17h361326f2d0217e73E, symObjAddr: 0xDBC, symBinAddr: 0x25988, symSize: 0xA8 }
  - { offset: 0xAA35D, size: 0x8, addend: 0x0, symName: __ZN5alloc5alloc5alloc17h9f604d617a942fadE, symObjAddr: 0xE64, symBinAddr: 0x25A30, symSize: 0x88 }
  - { offset: 0xACD1D, size: 0x8, addend: 0x0, symName: '__ZN146_$LT$core..ops..range..Range$LT$usize$GT$$u20$as$u20$core..iter..adapters..step_by..SpecRangeSetup$LT$core..ops..range..Range$LT$usize$GT$$GT$$GT$5setup17h0f10d222234f197dE', symObjAddr: 0x0, symBinAddr: 0x25450, symSize: 0x12C }
  - { offset: 0xACE9D, size: 0x8, addend: 0x0, symName: '__ZN4core3ops8function5impls79_$LT$impl$u20$core..ops..function..FnMut$LT$A$GT$$u20$for$u20$$RF$mut$u20$F$GT$8call_mut17h6f57a2ac71e7c683E', symObjAddr: 0xABC, symBinAddr: 0x25718, symSize: 0x38 }
  - { offset: 0xACEEC, size: 0x8, addend: 0x0, symName: '__ZN4core3ops8function5impls79_$LT$impl$u20$core..ops..function..FnMut$LT$A$GT$$u20$for$u20$$RF$mut$u20$F$GT$8call_mut17hc0d803fa012cb828E', symObjAddr: 0xAF4, symBinAddr: 0x25750, symSize: 0x38 }
  - { offset: 0xAD3C0, size: 0x8, addend: 0x0, symName: '__ZN48_$LT$$RF$A$u20$as$u20$core..alloc..Allocator$GT$10deallocate17hb313375bb7ae4968E', symObjAddr: 0xA3C, symBinAddr: 0x256E0, symSize: 0x38 }
  - { offset: 0xAD4AA, size: 0x8, addend: 0x0, symName: '__ZN4core3str6traits99_$LT$impl$u20$core..slice..index..SliceIndex$LT$str$GT$$u20$for$u20$core..ops..range..RangeFull$GT$5index17hc7af0986e8351005E', symObjAddr: 0xB2C, symBinAddr: 0x25788, symSize: 0x18 }
  - { offset: 0xAD555, size: 0x8, addend: 0x0, symName: __ZN4core4char7convert18from_u32_unchecked18precondition_check17h04fad45fefc82f50E, symObjAddr: 0xB44, symBinAddr: 0x257A0, symSize: 0x98 }
  - { offset: 0xAE5DF, size: 0x8, addend: 0x0, symName: '__ZN4core5slice29_$LT$impl$u20$$u5b$T$u5d$$GT$4iter17he55f3719b5d3a637E', symObjAddr: 0xC6C, symBinAddr: 0x25838, symSize: 0x28 }
  - { offset: 0xAE736, size: 0x8, addend: 0x0, symName: '__ZN50_$LT$T$u20$as$u20$core..convert..Into$LT$U$GT$$GT$4into17h3588710c2e4e5491E', symObjAddr: 0xC94, symBinAddr: 0x25860, symSize: 0x24 }
  - { offset: 0xAE776, size: 0x8, addend: 0x0, symName: '__ZN50_$LT$T$u20$as$u20$core..convert..Into$LT$U$GT$$GT$4into17h6296c5838a3141f7E', symObjAddr: 0xCB8, symBinAddr: 0x25884, symSize: 0x24 }
  - { offset: 0xAE7B6, size: 0x8, addend: 0x0, symName: '__ZN50_$LT$T$u20$as$u20$core..convert..Into$LT$U$GT$$GT$4into17hc683b934301c61edE', symObjAddr: 0xCDC, symBinAddr: 0x258A8, symSize: 0x24 }
  - { offset: 0xAE7F6, size: 0x8, addend: 0x0, symName: '__ZN50_$LT$T$u20$as$u20$core..convert..Into$LT$U$GT$$GT$4into17hfa8acdd78a1fa970E', symObjAddr: 0xD00, symBinAddr: 0x258CC, symSize: 0x24 }
  - { offset: 0xAEB1B, size: 0x8, addend: 0x0, symName: __ZN4pyo38instance12PyNativeType2py17h24faa9e44f97db30E, symObjAddr: 0x3400, symBinAddr: 0x26820, symSize: 0x20 }
  - { offset: 0xAEB4C, size: 0x8, addend: 0x0, symName: __ZN4pyo38instance12PyNativeType2py17h8176ff1cbca18aa0E, symObjAddr: 0x3420, symBinAddr: 0x26840, symSize: 0x20 }
  - { offset: 0xAEB7D, size: 0x8, addend: 0x0, symName: __ZN4pyo38instance12PyNativeType18unchecked_downcast17h1cbcd7fc91e6244fE, symObjAddr: 0x3440, symBinAddr: 0x26860, symSize: 0x24 }
  - { offset: 0xAEBB2, size: 0x8, addend: 0x0, symName: __ZN4pyo38instance12PyNativeType18unchecked_downcast17h23ace9ac94dabf65E, symObjAddr: 0x3464, symBinAddr: 0x26884, symSize: 0x24 }
  - { offset: 0xAEBE7, size: 0x8, addend: 0x0, symName: __ZN4pyo38instance12PyNativeType18unchecked_downcast17h3586c870d38913fbE, symObjAddr: 0x3488, symBinAddr: 0x268A8, symSize: 0x24 }
  - { offset: 0xAECCD, size: 0x8, addend: 0x0, symName: __ZN4pyo35types10typeobject6PyType4name8INTERNED17h620caf300327d576E, symObjAddr: 0xB0A0, symBinAddr: 0xE4488, symSize: 0x0 }
  - { offset: 0xAECE1, size: 0x8, addend: 0x0, symName: '__ZN103_$LT$pyo3..types..typeobject..PyType$u20$as$u20$core..convert..AsRef$LT$pyo3..types..any..PyAny$GT$$GT$6as_ref17h8ef5d0daa9813f00E', symObjAddr: 0x8F70, symBinAddr: 0x29B50, symSize: 0x14 }
  - { offset: 0xAED13, size: 0x8, addend: 0x0, symName: '__ZN75_$LT$pyo3..types..typeobject..PyType$u20$as$u20$core..ops..deref..Deref$GT$5deref17hb1a08d47fd9fe9f3E', symObjAddr: 0x8F84, symBinAddr: 0x29B64, symSize: 0x14 }
  - { offset: 0xAED45, size: 0x8, addend: 0x0, symName: '__ZN81_$LT$pyo3..types..typeobject..PyType$u20$as$u20$pyo3..conversion..AsPyPointer$GT$6as_ptr17h5c8649d86afef54fE', symObjAddr: 0x8F98, symBinAddr: 0x29B78, symSize: 0x24 }
  - { offset: 0xAED77, size: 0x8, addend: 0x0, symName: '__ZN68_$LT$pyo3..types..typeobject..PyType$u20$as$u20$core..fmt..Debug$GT$3fmt17h59d8227674ab0469E', symObjAddr: 0x8FBC, symBinAddr: 0x29B9C, symSize: 0x100 }
  - { offset: 0xAEF88, size: 0x8, addend: 0x0, symName: '__ZN101_$LT$pyo3..types..string..PyString$u20$as$u20$core..convert..AsRef$LT$pyo3..types..any..PyAny$GT$$GT$6as_ref17h665e62bffd28089bE', symObjAddr: 0x8A50, symBinAddr: 0x29ACC, symSize: 0x14 }
  - { offset: 0xAEFBA, size: 0x8, addend: 0x0, symName: '__ZN73_$LT$pyo3..types..string..PyString$u20$as$u20$core..ops..deref..Deref$GT$5deref17hc5ef2e101c751937E', symObjAddr: 0x8A64, symBinAddr: 0x29AE0, symSize: 0x14 }
  - { offset: 0xAEFEC, size: 0x8, addend: 0x0, symName: '__ZN141_$LT$$RF$pyo3..types..string..PyString$u20$as$u20$pyo3..conversion..IntoPy$LT$pyo3..instance..Py$LT$pyo3..types..string..PyString$GT$$GT$$GT$7into_py17h79ea40529fa6466cE', symObjAddr: 0x8A78, symBinAddr: 0x29AF4, symSize: 0x2C }
  - { offset: 0xAF036, size: 0x8, addend: 0x0, symName: '__ZN79_$LT$pyo3..types..string..PyString$u20$as$u20$pyo3..type_object..PyTypeInfo$GT$10is_type_of17h65303ca90f1b6779E', symObjAddr: 0x8E40, symBinAddr: 0x29B20, symSize: 0x30 }
  - { offset: 0xAF121, size: 0x8, addend: 0x0, symName: '__ZN75_$LT$pyo3..types..capsule..PyCapsule$u20$as$u20$core..ops..deref..Deref$GT$5deref17h2e7c79c98bcf081eE', symObjAddr: 0x7DE8, symBinAddr: 0x29A60, symSize: 0x14 }
  - { offset: 0xAF153, size: 0x8, addend: 0x0, symName: '__ZN81_$LT$pyo3..types..capsule..PyCapsule$u20$as$u20$pyo3..type_object..PyTypeInfo$GT$10is_type_of17h43c72cd5a17ac000E', symObjAddr: 0x8198, symBinAddr: 0x29A74, symSize: 0x30 }
  - { offset: 0xAF202, size: 0x8, addend: 0x0, symName: '__ZN106_$LT$pyo3..types..function..PyCFunction$u20$as$u20$core..convert..AsRef$LT$pyo3..types..any..PyAny$GT$$GT$6as_ref17h621e1fdff1445621E', symObjAddr: 0x8204, symBinAddr: 0x29AA4, symSize: 0x14 }
  - { offset: 0xAF234, size: 0x8, addend: 0x0, symName: '__ZN78_$LT$pyo3..types..function..PyCFunction$u20$as$u20$core..ops..deref..Deref$GT$5deref17h2c5bc5e54abb7a2dE', symObjAddr: 0x8218, symBinAddr: 0x29AB8, symSize: 0x14 }
  - { offset: 0xAF306, size: 0x8, addend: 0x0, symName: '__ZN107_$LT$$RF$T$u20$as$u20$pyo3..conversion..IntoPy$LT$pyo3..instance..Py$LT$pyo3..types..any..PyAny$GT$$GT$$GT$7into_py17h8b6f983194cd5f0cE', symObjAddr: 0x1258, symBinAddr: 0x25D44, symSize: 0x2C }
  - { offset: 0xAF35D, size: 0x8, addend: 0x0, symName: '__ZN49_$LT$T$u20$as$u20$pyo3..conversion..PyTryFrom$GT$8try_from17h98de425c44b21a25E', symObjAddr: 0x13B4, symBinAddr: 0x25D70, symSize: 0x98 }
  - { offset: 0xAF3BB, size: 0x8, addend: 0x0, symName: '__ZN49_$LT$T$u20$as$u20$pyo3..conversion..PyTryFrom$GT$8try_from17hd2292a0b2ca5436bE', symObjAddr: 0x157C, symBinAddr: 0x25E08, symSize: 0x98 }
  - { offset: 0xAF419, size: 0x8, addend: 0x0, symName: '__ZN49_$LT$T$u20$as$u20$pyo3..conversion..PyTryFrom$GT$18try_from_unchecked17h2093bd91e009a09cE', symObjAddr: 0x1644, symBinAddr: 0x25EA0, symSize: 0x30 }
  - { offset: 0xAF459, size: 0x8, addend: 0x0, symName: '__ZN49_$LT$T$u20$as$u20$pyo3..conversion..PyTryFrom$GT$18try_from_unchecked17h7dfa86a26c739c02E', symObjAddr: 0x16A4, symBinAddr: 0x25ED0, symSize: 0x30 }
  - { offset: 0xAF49F, size: 0x8, addend: 0x0, symName: __ZN4pyo310conversion13FromPyPointer23from_owned_ptr_or_panic17h2a8271324d6463aeE, symObjAddr: 0x1734, symBinAddr: 0x25F00, symSize: 0x34 }
  - { offset: 0xAF4F0, size: 0x8, addend: 0x0, symName: __ZN4pyo310conversion13FromPyPointer14from_owned_ptr17hfdf9f9cc7cc067ccE, symObjAddr: 0x1768, symBinAddr: 0x25F34, symSize: 0x24 }
  - { offset: 0xAF541, size: 0x8, addend: 0x0, symName: __ZN4pyo310conversion13FromPyPointer21from_owned_ptr_or_err17h48414f0f872b3840E, symObjAddr: 0x178C, symBinAddr: 0x25F58, symSize: 0x34 }
  - { offset: 0xAF592, size: 0x8, addend: 0x0, symName: __ZN4pyo310conversion13FromPyPointer21from_owned_ptr_or_err17hcbf9825079964f89E, symObjAddr: 0x17C0, symBinAddr: 0x25F8C, symSize: 0x34 }
  - { offset: 0xAF5E3, size: 0x8, addend: 0x0, symName: __ZN4pyo310conversion13FromPyPointer26from_borrowed_ptr_or_panic17h7b2a6c1fe439562eE, symObjAddr: 0x17F4, symBinAddr: 0x25FC0, symSize: 0x34 }
  - { offset: 0xAF634, size: 0x8, addend: 0x0, symName: __ZN4pyo310conversion13FromPyPointer17from_borrowed_ptr17hd96087bf4ee29d40E, symObjAddr: 0x1828, symBinAddr: 0x25FF4, symSize: 0x24 }
  - { offset: 0xAF68B, size: 0x8, addend: 0x0, symName: '__ZN53_$LT$T$u20$as$u20$pyo3..conversion..FromPyPointer$GT$21from_owned_ptr_or_opt17h60f6655c21c2aa62E', symObjAddr: 0x184C, symBinAddr: 0x26018, symSize: 0x70 }
  - { offset: 0xAF6F9, size: 0x8, addend: 0x0, symName: '__ZN53_$LT$T$u20$as$u20$pyo3..conversion..FromPyPointer$GT$21from_owned_ptr_or_opt17hb093cdf1e2d8e556E', symObjAddr: 0x18BC, symBinAddr: 0x26088, symSize: 0x70 }
  - { offset: 0xAF767, size: 0x8, addend: 0x0, symName: '__ZN53_$LT$T$u20$as$u20$pyo3..conversion..FromPyPointer$GT$24from_borrowed_ptr_or_opt17h3c95ac0c0e2e14c5E', symObjAddr: 0x192C, symBinAddr: 0x260F8, symSize: 0x28 }
  - { offset: 0xAF7C4, size: 0x8, addend: 0x0, symName: __ZN4pyo35impl_16extract_argument25argument_extraction_error17hdf14af2891910809E, symObjAddr: 0x1B2C, symBinAddr: 0x92F70, symSize: 0x224 }
  - { offset: 0xAFAA0, size: 0x8, addend: 0x0, symName: '__ZN4pyo35impl_16extract_argument19FunctionDescription34missing_required_keyword_arguments28_$u7b$$u7b$closure$u7d$$u7d$17h1c9de69c96aa6a41E', symObjAddr: 0x2C14, symBinAddr: 0x262B0, symSize: 0x84 }
  - { offset: 0xAFB10, size: 0x8, addend: 0x0, symName: '__ZN4pyo35impl_16extract_argument19FunctionDescription37missing_required_positional_arguments28_$u7b$$u7b$closure$u7d$$u7d$17h09416960d395bfd3E', symObjAddr: 0x2DE0, symBinAddr: 0x26334, symSize: 0x78 }
  - { offset: 0xAFB7C, size: 0x8, addend: 0x0, symName: __ZN4pyo35impl_16extract_argument19push_parameter_list17hbab239a404949bc9E, symObjAddr: 0x2E58, symBinAddr: 0x263AC, symSize: 0x168 }
  - { offset: 0xAFC91, size: 0x8, addend: 0x0, symName: '__ZN4pyo35impl_8pymodule9ModuleDef11make_module28_$u7b$$u7b$closure$u7d$$u7d$17hd488e24efe5a3e04E', symObjAddr: 0x3268, symBinAddr: 0x26688, symSize: 0x168 }
  - { offset: 0xAFD3D, size: 0x8, addend: 0x0, symName: '__ZN4pyo35impl_8pymodule9ModuleDef11make_module28_$u7b$$u7b$closure$u7d$$u7d$17hbbf63f8c06ab8a2cE', symObjAddr: 0x33D0, symBinAddr: 0x267F0, symSize: 0x30 }
  - { offset: 0xB0139, size: 0x8, addend: 0x0, symName: __ZN4pyo37pyclass18create_type_object18create_type_object5inner17hb07082f5f7770806E, symObjAddr: 0x3518, symBinAddr: 0x268CC, symSize: 0x28C }
  - { offset: 0xB0612, size: 0x8, addend: 0x0, symName: '__ZN4pyo37pyclass18create_type_object13PyTypeBuilder31finalize_methods_and_properties28_$u7b$$u7b$closure$u7d$$u7d$17hef0d128df2267ab7E', symObjAddr: 0x45B4, symBinAddr: 0x27968, symSize: 0x1B4 }
  - { offset: 0xB0707, size: 0x8, addend: 0x0, symName: __ZN4pyo37pyclass18create_type_object23py_class_qualified_name17h327293cf9d3698eeE, symObjAddr: 0x5408, symBinAddr: 0x287BC, symSize: 0x184 }
  - { offset: 0xB0884, size: 0x8, addend: 0x0, symName: __ZN4pyo37pyclass18create_type_object22no_constructor_defined17h9fd967600ab01594E, symObjAddr: 0x558C, symBinAddr: 0x28940, symSize: 0x38 }
  - { offset: 0xB08D5, size: 0x8, addend: 0x0, symName: '__ZN4pyo37pyclass18create_type_object22no_constructor_defined28_$u7b$$u7b$closure$u7d$$u7d$17h76f65435ef8f97a3E', symObjAddr: 0x55C4, symBinAddr: 0x28978, symSize: 0x50 }
  - { offset: 0xB091C, size: 0x8, addend: 0x0, symName: __ZN4pyo37pyclass18create_type_object13GetSetDefType21create_py_get_set_def6getter17ha04f76dbe3f295f6E, symObjAddr: 0x5C90, symBinAddr: 0x29044, symSize: 0x48 }
  - { offset: 0xB097C, size: 0x8, addend: 0x0, symName: '__ZN4pyo37pyclass18create_type_object13GetSetDefType21create_py_get_set_def6getter28_$u7b$$u7b$closure$u7d$$u7d$17h5c6c6217441130b6E', symObjAddr: 0x5CD8, symBinAddr: 0x2908C, symSize: 0x34 }
  - { offset: 0xB09DA, size: 0x8, addend: 0x0, symName: __ZN4pyo37pyclass18create_type_object13GetSetDefType21create_py_get_set_def6setter17h98874d04ae31d548E, symObjAddr: 0x5D0C, symBinAddr: 0x290C0, symSize: 0x5C }
  - { offset: 0xB0A49, size: 0x8, addend: 0x0, symName: '__ZN4pyo37pyclass18create_type_object13GetSetDefType21create_py_get_set_def6setter28_$u7b$$u7b$closure$u7d$$u7d$17hc7e19c794ad32581E', symObjAddr: 0x5D68, symBinAddr: 0x2911C, symSize: 0x38 }
  - { offset: 0xB0AB6, size: 0x8, addend: 0x0, symName: __ZN4pyo37pyclass18create_type_object13GetSetDefType21create_py_get_set_def13getset_getter17he637e4f821152920E, symObjAddr: 0x5DA0, symBinAddr: 0x29154, symSize: 0x4C }
  - { offset: 0xB0B16, size: 0x8, addend: 0x0, symName: '__ZN4pyo37pyclass18create_type_object13GetSetDefType21create_py_get_set_def13getset_getter28_$u7b$$u7b$closure$u7d$$u7d$17hd1f50701d55a8723E', symObjAddr: 0x5DEC, symBinAddr: 0x291A0, symSize: 0x34 }
  - { offset: 0xB0B74, size: 0x8, addend: 0x0, symName: __ZN4pyo37pyclass18create_type_object13GetSetDefType21create_py_get_set_def13getset_setter17h2f499e2b6949f59cE, symObjAddr: 0x5E20, symBinAddr: 0x291D4, symSize: 0x5C }
  - { offset: 0xB0BE3, size: 0x8, addend: 0x0, symName: '__ZN4pyo37pyclass18create_type_object13GetSetDefType21create_py_get_set_def13getset_setter28_$u7b$$u7b$closure$u7d$$u7d$17h92f1eb7b5c43111dE', symObjAddr: 0x5E7C, symBinAddr: 0x29230, symSize: 0x38 }
  - { offset: 0xB0C57, size: 0x8, addend: 0x0, symName: '__ZN94_$LT$pyo3..pyclass..create_type_object..GetSetDefBuilder$u20$as$u20$core..default..Default$GT$7default17hc6d156152ac8f163E', symObjAddr: 0x7978, symBinAddr: 0x29A0C, symSize: 0x54 }
  - { offset: 0xB1BAF, size: 0x8, addend: 0x0, symName: '__ZN78_$LT$$u21$$u20$as$u20$std..sys..thread_local..native..lazy..DestroyedState$GT$13register_dtor17hb596b158940533eaE', symObjAddr: 0x11A4, symBinAddr: 0x25D34, symSize: 0x10 }
  - { offset: 0xB1C9A, size: 0x8, addend: 0x0, symName: __ZN15portable_atomic5utils32assert_compare_exchange_ordering17hf6b2c361bd53fe39E, symObjAddr: 0x12C, symBinAddr: 0x2557C, symSize: 0x98 }
  - { offset: 0xB1E6E, size: 0x8, addend: 0x0, symName: '__ZN3std3sys12thread_local6native4lazy20Storage$LT$T$C$D$GT$10initialize17h2de4c159364a60efE', symObjAddr: 0x4C4, symBinAddr: 0x92D0C, symSize: 0x264 }
  - { offset: 0xB20E2, size: 0x8, addend: 0x0, symName: '__ZN3std3sys12thread_local6native4lazy20Storage$LT$T$C$D$GT$11get_or_init17h6fb08f453b7f5ae7E', symObjAddr: 0x728, symBinAddr: 0x25614, symSize: 0xCC }
  - { offset: 0xB24E6, size: 0x8, addend: 0x0, symName: __ZN5alloc5alloc6Global10alloc_impl17h7b0e14837d756684E, symObjAddr: 0xEEC, symBinAddr: 0x25AB8, symSize: 0x1BC }
  - { offset: 0xB2AA8, size: 0x8, addend: 0x0, symName: __ZN4pyo35impl_16extract_argument19FunctionDescription9full_name17hc4ec1d7e1c89dd8dE, symObjAddr: 0x1D50, symBinAddr: 0x26120, symSize: 0x190 }
  - { offset: 0xB2DBD, size: 0x8, addend: 0x0, symName: __ZN4pyo35impl_16extract_argument19FunctionDescription29too_many_positional_arguments17h40efb48844dcde78E, symObjAddr: 0x1EE0, symBinAddr: 0x93194, symSize: 0x498 }
  - { offset: 0xB3337, size: 0x8, addend: 0x0, symName: __ZN4pyo35impl_16extract_argument19FunctionDescription28multiple_values_for_argument17h121bb2fad4d922ebE, symObjAddr: 0x2378, symBinAddr: 0x9362C, symSize: 0x164 }
  - { offset: 0xB3549, size: 0x8, addend: 0x0, symName: __ZN4pyo35impl_16extract_argument19FunctionDescription27unexpected_keyword_argument17hc92b70d3465f61e2E, symObjAddr: 0x24DC, symBinAddr: 0x93790, symSize: 0x174 }
  - { offset: 0xB36BB, size: 0x8, addend: 0x0, symName: __ZN4pyo35impl_16extract_argument19FunctionDescription33positional_only_keyword_arguments17hcf5eb37b04aef406E, symObjAddr: 0x2650, symBinAddr: 0x93904, symSize: 0x190 }
  - { offset: 0xB37C1, size: 0x8, addend: 0x0, symName: __ZN4pyo35impl_16extract_argument19FunctionDescription26missing_required_arguments17h0e24cb76b96f2ac6E, symObjAddr: 0x27E0, symBinAddr: 0x93A94, symSize: 0x2B0 }
  - { offset: 0xB3A9E, size: 0x8, addend: 0x0, symName: __ZN4pyo35impl_16extract_argument19FunctionDescription34missing_required_keyword_arguments17h88145b202b6f0245E, symObjAddr: 0x2A90, symBinAddr: 0x93D44, symSize: 0x184 }
  - { offset: 0xB3B34, size: 0x8, addend: 0x0, symName: __ZN4pyo35impl_16extract_argument19FunctionDescription37missing_required_positional_arguments17h0bd734f878b32eb8E, symObjAddr: 0x2C98, symBinAddr: 0x93EC8, symSize: 0x148 }
  - { offset: 0xB3C12, size: 0x8, addend: 0x0, symName: __ZN4pyo35impl_8pymodule9ModuleDef11make_module17h569fc0ef635b2c77E, symObjAddr: 0x30F4, symBinAddr: 0x26514, symSize: 0x174 }
  - { offset: 0xB3DFB, size: 0x8, addend: 0x0, symName: __ZN4pyo37pyclass18create_type_object13PyTypeBuilder9push_slot17h2ec0cb332b56a5d4E, symObjAddr: 0x37A4, symBinAddr: 0x26B58, symSize: 0x110 }
  - { offset: 0xB3E42, size: 0x8, addend: 0x0, symName: __ZN4pyo37pyclass18create_type_object13PyTypeBuilder9push_slot17h331950012e9f360fE, symObjAddr: 0x38B4, symBinAddr: 0x26C68, symSize: 0x110 }
  - { offset: 0xB3E89, size: 0x8, addend: 0x0, symName: __ZN4pyo37pyclass18create_type_object13PyTypeBuilder9push_slot17h33d112a706fcaedaE, symObjAddr: 0x39C4, symBinAddr: 0x26D78, symSize: 0x110 }
  - { offset: 0xB3F4F, size: 0x8, addend: 0x0, symName: __ZN4pyo37pyclass18create_type_object13PyTypeBuilder17push_raw_vec_slot17h8e3dc0678d6cc61cE, symObjAddr: 0x3AD4, symBinAddr: 0x26E88, symSize: 0x1A4 }
  - { offset: 0xB4102, size: 0x8, addend: 0x0, symName: __ZN4pyo37pyclass18create_type_object13PyTypeBuilder17push_raw_vec_slot17he2c71c651635bcbbE, symObjAddr: 0x3C78, symBinAddr: 0x2702C, symSize: 0x1BC }
  - { offset: 0xB42B5, size: 0x8, addend: 0x0, symName: __ZN4pyo37pyclass18create_type_object13PyTypeBuilder17push_raw_vec_slot17he96866fa28b70171E, symObjAddr: 0x3E34, symBinAddr: 0x271E8, symSize: 0x1BC }
  - { offset: 0xB44B4, size: 0x8, addend: 0x0, symName: __ZN4pyo37pyclass18create_type_object13PyTypeBuilder12pymethod_def17he28dc4893e4de97bE, symObjAddr: 0x3FF0, symBinAddr: 0x273A4, symSize: 0x2D0 }
  - { offset: 0xB45AC, size: 0x8, addend: 0x0, symName: __ZN4pyo37pyclass18create_type_object13PyTypeBuilder31finalize_methods_and_properties17h922213272b2adb6cE, symObjAddr: 0x42C0, symBinAddr: 0x27674, symSize: 0x2F4 }
  - { offset: 0xB4728, size: 0x8, addend: 0x0, symName: __ZN4pyo37pyclass18create_type_object13PyTypeBuilder15set_is_basetype17h9babe34f4dee5513E, symObjAddr: 0x4768, symBinAddr: 0x27B1C, symSize: 0x54 }
  - { offset: 0xB47B6, size: 0x8, addend: 0x0, symName: __ZN4pyo37pyclass18create_type_object13PyTypeBuilder11class_items17hd7e1c7048db555e1E, symObjAddr: 0x47BC, symBinAddr: 0x27B70, symSize: 0x224 }
  - { offset: 0xB4889, size: 0x8, addend: 0x0, symName: __ZN4pyo37pyclass18create_type_object13PyTypeBuilder8type_doc17hfc871ba7c0cd6a2aE, symObjAddr: 0x49E0, symBinAddr: 0x27D94, symSize: 0xE0 }
  - { offset: 0xB48D2, size: 0x8, addend: 0x0, symName: __ZN4pyo37pyclass18create_type_object13PyTypeBuilder7offsets17hd70270ea60e51e78E, symObjAddr: 0x4AC0, symBinAddr: 0x27E74, symSize: 0x204 }
  - { offset: 0xB4A8E, size: 0x8, addend: 0x0, symName: __ZN4pyo37pyclass18create_type_object13PyTypeBuilder5build17h9efe4b377640659aE, symObjAddr: 0x4CC4, symBinAddr: 0x28078, symSize: 0x744 }
  - { offset: 0xB4DB9, size: 0x8, addend: 0x0, symName: __ZN4pyo37pyclass18create_type_object16GetSetDefBuilder10add_getter17hadfec28ed415f018E, symObjAddr: 0x5614, symBinAddr: 0x289C8, symSize: 0x7C }
  - { offset: 0xB4DF8, size: 0x8, addend: 0x0, symName: __ZN4pyo37pyclass18create_type_object16GetSetDefBuilder10add_setter17h7afc6007df3579f2E, symObjAddr: 0x5690, symBinAddr: 0x28A44, symSize: 0x7C }
  - { offset: 0xB4E5B, size: 0x8, addend: 0x0, symName: __ZN4pyo37pyclass18create_type_object16GetSetDefBuilder14as_get_set_def17h66b6ab6b1d703569E, symObjAddr: 0x570C, symBinAddr: 0x28AC0, symSize: 0x3EC }
  - { offset: 0xB503A, size: 0x8, addend: 0x0, symName: __ZN4pyo37pyclass18create_type_object13GetSetDefType21create_py_get_set_def17h64b49ed38af46ab2E, symObjAddr: 0x5AF8, symBinAddr: 0x28EAC, symSize: 0x198 }
  - { offset: 0xB5177, size: 0x8, addend: 0x0, symName: __ZN4pyo35types7capsule9PyCapsule7pointer17hb46f8cb4668dc5b2E, symObjAddr: 0x60D4, symBinAddr: 0x29268, symSize: 0x68 }
  - { offset: 0xB51AE, size: 0x8, addend: 0x0, symName: __ZN4pyo35types7capsule9PyCapsule21name_ptr_ignore_error17h3982449dca85dcdeE, symObjAddr: 0x6284, symBinAddr: 0x292D0, symSize: 0x50 }
  - { offset: 0xB520C, size: 0x8, addend: 0x0, symName: __ZN4pyo35types8function11PyCFunction12internal_new17h303d9c19414cd73bE, symObjAddr: 0x6468, symBinAddr: 0x29320, symSize: 0x32C }
  - { offset: 0xB547A, size: 0x8, addend: 0x0, symName: __ZN4pyo35types6string8PyString3new17h186e8cd126f8af38E, symObjAddr: 0x7280, symBinAddr: 0x2964C, symSize: 0x54 }
  - { offset: 0xB54EE, size: 0x8, addend: 0x0, symName: __ZN4pyo35types6string8PyString6intern17h06a65eb2aeffcd50E, symObjAddr: 0x72D4, symBinAddr: 0x296A0, symSize: 0x78 }
  - { offset: 0xB557F, size: 0x8, addend: 0x0, symName: __ZN4pyo35types6string8PyString6to_str17hb5ba580101b9e3deE, symObjAddr: 0x73D4, symBinAddr: 0x29718, symSize: 0xC8 }
  - { offset: 0xB55E8, size: 0x8, addend: 0x0, symName: __ZN4pyo35types6string8PyString15to_string_lossy17hb90534cc6cc3a8daE, symObjAddr: 0x749C, symBinAddr: 0x297E0, symSize: 0x128 }
  - { offset: 0xB5651, size: 0x8, addend: 0x0, symName: __ZN4pyo35types10typeobject6PyType11as_type_ptr17h3533807e7dc61f3eE, symObjAddr: 0x7768, symBinAddr: 0x29908, symSize: 0x28 }
  - { offset: 0xB5673, size: 0x8, addend: 0x0, symName: __ZN4pyo35types10typeobject6PyType13from_type_ptr17h41720b184614d8ecE, symObjAddr: 0x7790, symBinAddr: 0x29930, symSize: 0x24 }
  - { offset: 0xB56AD, size: 0x8, addend: 0x0, symName: __ZN4pyo35types10typeobject6PyType4name17h676ee0c65f17fd7fE, symObjAddr: 0x77B4, symBinAddr: 0x29954, symSize: 0xB8 }
  - { offset: 0xB6819, size: 0x8, addend: 0x0, symName: '__ZN106_$LT$core..iter..adapters..GenericShunt$LT$I$C$R$GT$$u20$as$u20$core..iter..traits..iterator..Iterator$GT$4next17hffd12a3b62e70380E', symObjAddr: 0x40, symBinAddr: 0x29C9C, symSize: 0x9C }
  - { offset: 0xB68A7, size: 0x8, addend: 0x0, symName: '__ZN106_$LT$core..iter..adapters..GenericShunt$LT$I$C$R$GT$$u20$as$u20$core..iter..traits..iterator..Iterator$GT$8try_fold17h95848a11c4aabdaeE', symObjAddr: 0x154, symBinAddr: 0x29D38, symSize: 0xA4 }
  - { offset: 0xB6963, size: 0x8, addend: 0x0, symName: '__ZN106_$LT$core..iter..adapters..GenericShunt$LT$I$C$R$GT$$u20$as$u20$core..iter..traits..iterator..Iterator$GT$8try_fold28_$u7b$$u7b$closure$u7d$$u7d$17h0badb281fc0ec58aE', symObjAddr: 0x1F8, symBinAddr: 0x29DDC, symSize: 0x1F4 }
  - { offset: 0xB6A56, size: 0x8, addend: 0x0, symName: '__ZN106_$LT$core..iter..adapters..GenericShunt$LT$I$C$R$GT$$u20$as$u20$core..iter..traits..iterator..Iterator$GT$9size_hint17h70d4ec712cbb47eeE', symObjAddr: 0x4E8, symBinAddr: 0x29FD0, symSize: 0x9C }
  - { offset: 0xB6BC8, size: 0x8, addend: 0x0, symName: __ZN4core4iter8adapters3zip27TrustedRandomAccessNoCoerce4size17h59f5d0f467f7965fE, symObjAddr: 0x1B64, symBinAddr: 0x2A664, symSize: 0x2C }
  - { offset: 0xB6BFF, size: 0x8, addend: 0x0, symName: __ZN4core4iter8adapters3zip27TrustedRandomAccessNoCoerce4size17he9f80080e4bb1e49E, symObjAddr: 0x1BE8, symBinAddr: 0x2A690, symSize: 0x2C }
  - { offset: 0xB6D21, size: 0x8, addend: 0x0, symName: __ZN4core4iter8adapters11try_process17h6aee38b4c8b8d5ccE, symObjAddr: 0x189C, symBinAddr: 0x2A4DC, symSize: 0x188 }
  - { offset: 0xB6E3D, size: 0x8, addend: 0x0, symName: __ZN4core4iter6traits8iterator8Iterator3zip17hf384cf8de3e06d96E, symObjAddr: 0x1474, symBinAddr: 0x2A3A8, symSize: 0xC8 }
  - { offset: 0xB6EB3, size: 0x8, addend: 0x0, symName: __ZN4core4iter6traits8iterator8Iterator4take17h6530d55518ad5472E, symObjAddr: 0x153C, symBinAddr: 0x2A470, symSize: 0x2C }
  - { offset: 0xB6F1F, size: 0x8, addend: 0x0, symName: __ZN4core4iter6traits8iterator8Iterator9enumerate17h5332d6f80d004b21E, symObjAddr: 0x185C, symBinAddr: 0x2A49C, symSize: 0x18 }
  - { offset: 0xB6F50, size: 0x8, addend: 0x0, symName: __ZN4core4iter6traits8iterator8Iterator9enumerate17h5332d6f80d004b21E, symObjAddr: 0x185C, symBinAddr: 0x2A49C, symSize: 0x18 }
  - { offset: 0xB6F74, size: 0x8, addend: 0x0, symName: __ZN4core4iter6traits8iterator8Iterator9enumerate17hbc744569a2a409d3E, symObjAddr: 0x1874, symBinAddr: 0x2A4B4, symSize: 0x28 }
  - { offset: 0xB7025, size: 0x8, addend: 0x0, symName: '__ZN63_$LT$I$u20$as$u20$core..iter..traits..collect..IntoIterator$GT$9into_iter17hdeabed6e2b8bb4cbE', symObjAddr: 0x2134, symBinAddr: 0x2A94C, symSize: 0x30 }
  - { offset: 0xB8C38, size: 0x8, addend: 0x0, symName: '__ZN106_$LT$core..slice..iter..Iter$LT$T$GT$$u20$as$u20$core..iter..traits..double_ended..DoubleEndedIterator$GT$9next_back17h047d7dba8ad7ed80E', symObjAddr: 0x624, symBinAddr: 0x2A06C, symSize: 0x114 }
  - { offset: 0xB8EE8, size: 0x8, addend: 0x0, symName: '__ZN91_$LT$core..slice..iter..Iter$LT$T$GT$$u20$as$u20$core..iter..traits..iterator..Iterator$GT$24__iterator_get_unchecked17hc5810df9d510ad7eE', symObjAddr: 0x23E0, symBinAddr: 0x2AB2C, symSize: 0x28 }
  - { offset: 0xB8F72, size: 0x8, addend: 0x0, symName: '__ZN91_$LT$core..slice..iter..Iter$LT$T$GT$$u20$as$u20$core..iter..traits..iterator..Iterator$GT$24__iterator_get_unchecked17he04eb33fb3821c6bE', symObjAddr: 0x2408, symBinAddr: 0x2AB54, symSize: 0x30 }
  - { offset: 0xB8FFC, size: 0x8, addend: 0x0, symName: '__ZN91_$LT$core..slice..iter..Iter$LT$T$GT$$u20$as$u20$core..iter..traits..iterator..Iterator$GT$3any17hd24a040d006c369dE', symObjAddr: 0x2438, symBinAddr: 0x2AB84, symSize: 0xB4 }
  - { offset: 0xB9061, size: 0x8, addend: 0x0, symName: '__ZN91_$LT$core..slice..iter..Iter$LT$T$GT$$u20$as$u20$core..iter..traits..iterator..Iterator$GT$4next17h0e9bb57ffb1b9504E', symObjAddr: 0x26B8, symBinAddr: 0x2AC38, symSize: 0xCC }
  - { offset: 0xB91C2, size: 0x8, addend: 0x0, symName: '__ZN91_$LT$core..slice..iter..Iter$LT$T$GT$$u20$as$u20$core..iter..traits..iterator..Iterator$GT$4next17hb83bd45bc470c134E', symObjAddr: 0x2850, symBinAddr: 0x2AD04, symSize: 0xCC }
  - { offset: 0xB9323, size: 0x8, addend: 0x0, symName: '__ZN91_$LT$core..slice..iter..Iter$LT$T$GT$$u20$as$u20$core..iter..traits..iterator..Iterator$GT$4next17hc245e91d5e409ae5E', symObjAddr: 0x291C, symBinAddr: 0x2ADD0, symSize: 0xCC }
  - { offset: 0xB9484, size: 0x8, addend: 0x0, symName: '__ZN91_$LT$core..slice..iter..Iter$LT$T$GT$$u20$as$u20$core..iter..traits..iterator..Iterator$GT$4next17hc25917891dd2ef84E', symObjAddr: 0x29E8, symBinAddr: 0x2AE9C, symSize: 0xCC }
  - { offset: 0xB95E5, size: 0x8, addend: 0x0, symName: '__ZN91_$LT$core..slice..iter..Iter$LT$T$GT$$u20$as$u20$core..iter..traits..iterator..Iterator$GT$4next17hd8a0d3eae241e780E', symObjAddr: 0x2B80, symBinAddr: 0x2AF68, symSize: 0xCC }
  - { offset: 0xB9746, size: 0x8, addend: 0x0, symName: '__ZN91_$LT$core..slice..iter..Iter$LT$T$GT$$u20$as$u20$core..iter..traits..iterator..Iterator$GT$9size_hint17h0244815e2682e4d1E', symObjAddr: 0x2C4C, symBinAddr: 0x2B034, symSize: 0xC0 }
  - { offset: 0xB982B, size: 0x8, addend: 0x0, symName: '__ZN91_$LT$core..slice..iter..Iter$LT$T$GT$$u20$as$u20$core..iter..traits..iterator..Iterator$GT$9size_hint17hf11408fdda561f88E', symObjAddr: 0x2E8C, symBinAddr: 0x2B0F4, symSize: 0xC0 }
  - { offset: 0xB9910, size: 0x8, addend: 0x0, symName: '__ZN91_$LT$core..slice..iter..Iter$LT$T$GT$$u20$as$u20$core..iter..traits..iterator..Iterator$GT$9size_hint17hf37e4051da01933fE', symObjAddr: 0x2F4C, symBinAddr: 0x2B1B4, symSize: 0xC0 }
  - { offset: 0xB9C55, size: 0x8, addend: 0x0, symName: '__ZN94_$LT$core..slice..iter..IterMut$LT$T$GT$$u20$as$u20$core..iter..traits..iterator..Iterator$GT$4next17h33b9cfc9554f5729E', symObjAddr: 0x31C4, symBinAddr: 0x2B36C, symSize: 0xCC }
  - { offset: 0xB9F8C, size: 0x8, addend: 0x0, symName: __ZN4core5slice6memchr6memchr17h07c82bee8fad3f4fE, symObjAddr: 0x2008, symBinAddr: 0x2A838, symSize: 0x114 }
  - { offset: 0xBA13B, size: 0x8, addend: 0x0, symName: '__ZN82_$LT$core..array..iter..IntoIter$LT$T$C$_$GT$$u20$as$u20$core..ops..drop..Drop$GT$4drop17h32ea4ee462c8d8e6E', symObjAddr: 0x2294, symBinAddr: 0x2AAAC, symSize: 0x28 }
  - { offset: 0xBA1E4, size: 0x8, addend: 0x0, symName: '__ZN99_$LT$core..array..iter..IntoIter$LT$T$C$_$GT$$u20$as$u20$core..iter..traits..iterator..Iterator$GT$4next17h560455dc3e6dd12aE', symObjAddr: 0x33EC, symBinAddr: 0x2B438, symSize: 0x150 }
  - { offset: 0xBA46B, size: 0x8, addend: 0x0, symName: __ZN4core4hash11BuildHasher8hash_one17h1234983aaa854c46E, symObjAddr: 0x1214, symBinAddr: 0x2A270, symSize: 0x84 }
  - { offset: 0xBA4DB, size: 0x8, addend: 0x0, symName: '__ZN4core4hash5impls50_$LT$impl$u20$core..hash..Hash$u20$for$u20$str$GT$4hash17h7265bf45e970ec27E', symObjAddr: 0x1298, symBinAddr: 0x2A2F4, symSize: 0x48 }
  - { offset: 0xBA523, size: 0x8, addend: 0x0, symName: '__ZN4core4hash5impls52_$LT$impl$u20$core..hash..Hash$u20$for$u20$$RF$T$GT$4hash17ha282c26c9a44c808E', symObjAddr: 0x12E0, symBinAddr: 0x2A33C, symSize: 0x30 }
  - { offset: 0xBA56E, size: 0x8, addend: 0x0, symName: '__ZN4core4hash5impls52_$LT$impl$u20$core..hash..Hash$u20$for$u20$$RF$T$GT$4hash17hc8745dd0f43c8f11E', symObjAddr: 0x1310, symBinAddr: 0x2A36C, symSize: 0x3C }
  - { offset: 0xBAF00, size: 0x8, addend: 0x0, symName: '__ZN3std4hash6random11RandomState3new28_$u7b$$u7b$closure$u7d$$u7d$17h4095a041d78c552dE', symObjAddr: 0x1000, symBinAddr: 0x2A180, symSize: 0x6C }
  - { offset: 0xBB093, size: 0x8, addend: 0x0, symName: '__ZN3std4hash6random11RandomState3new4KEYS29_$u7b$$u7b$constant$u7d$$u7d$28_$u7b$$u7b$closure$u7d$$u7d$17h382479ba79aecb44E', symObjAddr: 0x106C, symBinAddr: 0x2A1EC, symSize: 0x3C }
  - { offset: 0xBB0D1, size: 0x8, addend: 0x0, symName: __ZN3std4hash6random11RandomState3new4KEYS6__init17h4843ae7588e19d3dE, symObjAddr: 0x10A8, symBinAddr: 0x2A228, symSize: 0x24 }
  - { offset: 0xBB0FD, size: 0x8, addend: 0x0, symName: '__ZN71_$LT$std..hash..random..DefaultHasher$u20$as$u20$core..hash..Hasher$GT$6finish17hdd60c1e164baa70fE', symObjAddr: 0x2164, symBinAddr: 0x2A97C, symSize: 0x2C }
  - { offset: 0xBB146, size: 0x8, addend: 0x0, symName: '__ZN71_$LT$std..hash..random..DefaultHasher$u20$as$u20$core..hash..Hasher$GT$9write_str17h8f53aef216fee850E', symObjAddr: 0x2190, symBinAddr: 0x2A9A8, symSize: 0x38 }
  - { offset: 0xBB1A7, size: 0x8, addend: 0x0, symName: '__ZN74_$LT$std..hash..random..RandomState$u20$as$u20$core..hash..BuildHasher$GT$12build_hasher17hfae2bc28773031e8E', symObjAddr: 0x21C8, symBinAddr: 0x2A9E0, symSize: 0xCC }
  - { offset: 0xBB9D5, size: 0x8, addend: 0x0, symName: '__ZN54_$LT$$RF$T$u20$as$u20$pyo3..conversion..ToPyObject$GT$9to_object17h89ce23f26c95a6a4E', symObjAddr: 0x390C, symBinAddr: 0x2B7B8, symSize: 0x30 }
  - { offset: 0xBBA2D, size: 0x8, addend: 0x0, symName: '__ZN4pyo310conversion13FromPyPointer23from_owned_ptr_or_panic28_$u7b$$u7b$closure$u7d$$u7d$17h05f14bb2b253c1e8E', symObjAddr: 0x39B4, symBinAddr: 0x2B7E8, symSize: 0x14 }
  - { offset: 0xBBA6F, size: 0x8, addend: 0x0, symName: '__ZN4pyo310conversion13FromPyPointer23from_owned_ptr_or_panic28_$u7b$$u7b$closure$u7d$$u7d$17h0b59576563f5f85bE', symObjAddr: 0x39DC, symBinAddr: 0x2B7FC, symSize: 0x14 }
  - { offset: 0xBBAB1, size: 0x8, addend: 0x0, symName: '__ZN4pyo310conversion13FromPyPointer23from_owned_ptr_or_panic28_$u7b$$u7b$closure$u7d$$u7d$17h3de8496b9e69511dE', symObjAddr: 0x3A18, symBinAddr: 0x2B810, symSize: 0x14 }
  - { offset: 0xBBAF3, size: 0x8, addend: 0x0, symName: '__ZN4pyo310conversion13FromPyPointer23from_owned_ptr_or_panic28_$u7b$$u7b$closure$u7d$$u7d$17h8a726476c087f98cE', symObjAddr: 0x3A54, symBinAddr: 0x2B824, symSize: 0x14 }
  - { offset: 0xBBB87, size: 0x8, addend: 0x0, symName: '__ZN4pyo310conversion13FromPyPointer21from_owned_ptr_or_err28_$u7b$$u7b$closure$u7d$$u7d$17h1288e4941a9a9614E', symObjAddr: 0x3AB8, symBinAddr: 0x2B838, symSize: 0x20 }
  - { offset: 0xBBBC9, size: 0x8, addend: 0x0, symName: '__ZN4pyo310conversion13FromPyPointer21from_owned_ptr_or_err28_$u7b$$u7b$closure$u7d$$u7d$17h9100d249b23c0e07E', symObjAddr: 0x3B38, symBinAddr: 0x2B858, symSize: 0x20 }
  - { offset: 0xBBC0B, size: 0x8, addend: 0x0, symName: '__ZN4pyo310conversion13FromPyPointer21from_owned_ptr_or_err28_$u7b$$u7b$closure$u7d$$u7d$17hbb1092767b89e5baE', symObjAddr: 0x3BF8, symBinAddr: 0x2B878, symSize: 0x20 }
  - { offset: 0xBBC8C, size: 0x8, addend: 0x0, symName: '__ZN4pyo310conversion13FromPyPointer26from_borrowed_ptr_or_panic28_$u7b$$u7b$closure$u7d$$u7d$17h2ef36aeed53bd2ccE', symObjAddr: 0x3CB8, symBinAddr: 0x2B898, symSize: 0x14 }
  - { offset: 0xBBCCE, size: 0x8, addend: 0x0, symName: '__ZN4pyo310conversion13FromPyPointer26from_borrowed_ptr_or_panic28_$u7b$$u7b$closure$u7d$$u7d$17h5a1762f5848863e7E', symObjAddr: 0x3CCC, symBinAddr: 0x2B8AC, symSize: 0x14 }
  - { offset: 0xBBD10, size: 0x8, addend: 0x0, symName: '__ZN4pyo310conversion13FromPyPointer26from_borrowed_ptr_or_panic28_$u7b$$u7b$closure$u7d$$u7d$17h655aae2419e85c5cE', symObjAddr: 0x3CE0, symBinAddr: 0x2B8C0, symSize: 0x14 }
  - { offset: 0xBBD97, size: 0x8, addend: 0x0, symName: '__ZN53_$LT$T$u20$as$u20$pyo3..conversion..FromPyPointer$GT$24from_borrowed_ptr_or_opt28_$u7b$$u7b$closure$u7d$$u7d$17h2d3158088d0fa481E', symObjAddr: 0x3D28, symBinAddr: 0x2B8D4, symSize: 0x1C }
  - { offset: 0xBBDD9, size: 0x8, addend: 0x0, symName: '__ZN53_$LT$T$u20$as$u20$pyo3..conversion..FromPyPointer$GT$24from_borrowed_ptr_or_opt28_$u7b$$u7b$closure$u7d$$u7d$17hb39ab67c756d84c1E', symObjAddr: 0x3D60, symBinAddr: 0x2B8F0, symSize: 0x1C }
  - { offset: 0xBBE1B, size: 0x8, addend: 0x0, symName: '__ZN53_$LT$T$u20$as$u20$pyo3..conversion..FromPyPointer$GT$24from_borrowed_ptr_or_opt28_$u7b$$u7b$closure$u7d$$u7d$17hfbec1617ece70084E', symObjAddr: 0x3D7C, symBinAddr: 0x2B90C, symSize: 0x1C }
  - { offset: 0xBC3C1, size: 0x8, addend: 0x0, symName: '__ZN92_$LT$hashbrown..map..Iter$LT$K$C$V$GT$$u20$as$u20$core..iter..traits..iterator..Iterator$GT$4next17h47ea640f6dd928dbE', symObjAddr: 0x30CC, symBinAddr: 0x2B274, symSize: 0xF8 }
  - { offset: 0xBC63A, size: 0x8, addend: 0x0, symName: '__ZN9hashbrown3map11make_hasher28_$u7b$$u7b$closure$u7d$$u7d$17h5f8de5aa247c4c70E', symObjAddr: 0x3808, symBinAddr: 0x2B6B4, symSize: 0x3C }
  - { offset: 0xBC9A9, size: 0x8, addend: 0x0, symName: '__ZN88_$LT$hashbrown..scopeguard..ScopeGuard$LT$T$C$F$GT$$u20$as$u20$core..ops..drop..Drop$GT$4drop17h1c077d19ef7a266fE', symObjAddr: 0x2308, symBinAddr: 0x2AAD4, symSize: 0x2C }
  - { offset: 0xBC9E3, size: 0x8, addend: 0x0, symName: '__ZN88_$LT$hashbrown..scopeguard..ScopeGuard$LT$T$C$F$GT$$u20$as$u20$core..ops..drop..Drop$GT$4drop17h1d7118dc9f13bcf0E', symObjAddr: 0x2334, symBinAddr: 0x2AB00, symSize: 0x2C }
  - { offset: 0xBCFA1, size: 0x8, addend: 0x0, symName: '__ZN4core3mem13manually_drop21ManuallyDrop$LT$T$GT$4drop17h35312d43de5f7382E', symObjAddr: 0x11F0, symBinAddr: 0x2A24C, symSize: 0x24 }
  - { offset: 0xBD178, size: 0x8, addend: 0x0, symName: '__ZN4core5array4iter21IntoIter$LT$T$C$_$GT$12as_mut_slice17hc639e8f26587bc93E', symObjAddr: 0x1DB0, symBinAddr: 0x2A6BC, symSize: 0xD4 }
  - { offset: 0xBD36B, size: 0x8, addend: 0x0, symName: '__ZN4core5slice4iter13Iter$LT$T$GT$3new17h94532dad822547daE', symObjAddr: 0x1F10, symBinAddr: 0x2A790, symSize: 0x58 }
  - { offset: 0xBD538, size: 0x8, addend: 0x0, symName: '__ZN4core5slice4iter13Iter$LT$T$GT$3new17he2f317a0212f8649E', symObjAddr: 0x1F68, symBinAddr: 0x2A7E8, symSize: 0x50 }
  - { offset: 0xBDFDC, size: 0x8, addend: 0x0, symName: '__ZN9hashbrown11rustc_entry62_$LT$impl$u20$hashbrown..map..HashMap$LT$K$C$V$C$S$C$A$GT$$GT$11rustc_entry17he751d526b6e59849E', symObjAddr: 0x36DC, symBinAddr: 0x2B588, symSize: 0x12C }
  - { offset: 0xBE1BD, size: 0x8, addend: 0x0, symName: '__ZN9hashbrown3map28HashMap$LT$K$C$V$C$S$C$A$GT$4iter17h60d3c7819d3b8d6cE', symObjAddr: 0x3844, symBinAddr: 0x2B6F0, symSize: 0xC8 }
  - { offset: 0xBE51D, size: 0x8, addend: 0x0, symName: '__ZN9hashbrown3raw21RawTable$LT$T$C$A$GT$14reserve_rehash28_$u7b$$u7b$closure$u7d$$u7d$17h08422fc835ca26c3E', symObjAddr: 0x2D4C, symBinAddr: 0x2D92C, symSize: 0xC4 }
  - { offset: 0xBE6EC, size: 0x8, addend: 0x0, symName: '__ZN9hashbrown3raw21RawTable$LT$T$C$A$GT$4find28_$u7b$$u7b$closure$u7d$$u7d$17h5ee83f61ac4fb2b6E', symObjAddr: 0x3158, symBinAddr: 0x2DD38, symSize: 0xC8 }
  - { offset: 0xBEEA0, size: 0x8, addend: 0x0, symName: '__ZN79_$LT$hashbrown..raw..RawTable$LT$T$C$A$GT$$u20$as$u20$core..ops..drop..Drop$GT$4drop17h5e89ec7147c221f2E', symObjAddr: 0x680, symBinAddr: 0x2BD20, symSize: 0x3C }
  - { offset: 0xBF2D2, size: 0x8, addend: 0x0, symName: '__ZN9hashbrown3raw13RawTableInner14prepare_resize28_$u7b$$u7b$closure$u7d$$u7d$17h082db6f6f7d91b09E', symObjAddr: 0xAE0, symBinAddr: 0x2BFCC, symSize: 0xBC }
  - { offset: 0xBF4B0, size: 0x8, addend: 0x0, symName: '__ZN9hashbrown3raw13RawTableInner15rehash_in_place28_$u7b$$u7b$closure$u7d$$u7d$17h195ce74beb30c462E', symObjAddr: 0x1228, symBinAddr: 0x2C714, symSize: 0x260 }
  - { offset: 0xBFABB, size: 0x8, addend: 0x0, symName: __ZN9hashbrown3raw19capacity_to_buckets17h2cfa548b21d79d6dE, symObjAddr: 0x1E5C, symBinAddr: 0x2D348, symSize: 0x19C }
  - { offset: 0xC2947, size: 0x8, addend: 0x0, symName: __ZN4core3cmp6max_by17he8e2b753e01cdb42E, symObjAddr: 0x3C0, symBinAddr: 0x2BAF4, symSize: 0xC0 }
  - { offset: 0xC29A5, size: 0x8, addend: 0x0, symName: __ZN4core3cmp6min_by17h378468bc352e0262E, symObjAddr: 0x480, symBinAddr: 0x2BBB4, symSize: 0xC8 }
  - { offset: 0xC305E, size: 0x8, addend: 0x0, symName: '__ZN110_$LT$core..iter..adapters..enumerate..Enumerate$LT$I$GT$$u20$as$u20$core..iter..traits..iterator..Iterator$GT$4next17hce4434a7b20a5c07E', symObjAddr: 0xEC, symBinAddr: 0x2B928, symSize: 0xEC }
  - { offset: 0xC3140, size: 0x8, addend: 0x0, symName: '__ZN110_$LT$core..iter..adapters..enumerate..Enumerate$LT$I$GT$$u20$as$u20$core..iter..traits..iterator..Iterator$GT$4next17he68a828b8e056c42E', symObjAddr: 0x1D8, symBinAddr: 0x2BA14, symSize: 0xE0 }
  - { offset: 0xC335E, size: 0x8, addend: 0x0, symName: '__ZN63_$LT$I$u20$as$u20$core..iter..traits..collect..IntoIterator$GT$9into_iter17hb209428bb9fcdec6E', symObjAddr: 0x654, symBinAddr: 0x2BCF4, symSize: 0x18 }
  - { offset: 0xC3395, size: 0x8, addend: 0x0, symName: '__ZN63_$LT$I$u20$as$u20$core..iter..traits..collect..IntoIterator$GT$9into_iter17hf5b78ed341004011E', symObjAddr: 0x66C, symBinAddr: 0x2BD0C, symSize: 0x14 }
  - { offset: 0xC34F0, size: 0x8, addend: 0x0, symName: __ZN4core9core_arch10arm_shared4neon9generated18vreinterpret_s8_u817h52ae506307ee446aE, symObjAddr: 0x578, symBinAddr: 0x2BC7C, symSize: 0xC }
  - { offset: 0xC351E, size: 0x8, addend: 0x0, symName: __ZN4core9core_arch10arm_shared4neon9generated19vreinterpret_u64_u817he6d91be7254169edE, symObjAddr: 0x584, symBinAddr: 0x2BC88, symSize: 0xC }
  - { offset: 0xC354C, size: 0x8, addend: 0x0, symName: __ZN4core9core_arch10arm_shared4neon9generated7vceq_u817h03518681e8649c62E, symObjAddr: 0x590, symBinAddr: 0x2BC94, symSize: 0x14 }
  - { offset: 0xC3589, size: 0x8, addend: 0x0, symName: __ZN4core9core_arch10arm_shared4neon9generated7vorr_u817h5c5aec33f5c21153E, symObjAddr: 0x5A4, symBinAddr: 0x2BCA8, symSize: 0x14 }
  - { offset: 0xC361D, size: 0x8, addend: 0x0, symName: '__ZN53_$LT$T$u20$as$u20$core..slice..cmp..SliceContains$GT$14slice_contains28_$u7b$$u7b$closure$u7d$$u7d$17h306b407354460b0eE', symObjAddr: 0x5B8, symBinAddr: 0x2BCBC, symSize: 0x38 }
  - { offset: 0xC44A1, size: 0x8, addend: 0x0, symName: __ZN8pyo3_ffi9pycapsule20PyCapsule_CheckExact17h4583c880cbe0265eE, symObjAddr: 0x788, symBinAddr: 0x2BD5C, symSize: 0x34 }
  - { offset: 0xC4A55, size: 0x8, addend: 0x0, symName: __ZN9hashbrown3raw11TableLayout20calculate_layout_for17h87a27b3d15071462E, symObjAddr: 0x8A4, symBinAddr: 0x2BD90, symSize: 0x214 }
  - { offset: 0xC4E34, size: 0x8, addend: 0x0, symName: __ZN9hashbrown3raw13RawTableInner13drop_elements17h9e4883c98bcdfd45E, symObjAddr: 0xAB8, symBinAddr: 0x2BFA4, symSize: 0x28 }
  - { offset: 0xC5311, size: 0x8, addend: 0x0, symName: __ZN9hashbrown3raw13RawTableInner15fix_insert_slot17hc6d464335f7823d8E, symObjAddr: 0xB9C, symBinAddr: 0x2C088, symSize: 0x118 }
  - { offset: 0xC57EE, size: 0x8, addend: 0x0, symName: __ZN9hashbrown3raw13RawTableInner15rehash_in_place17h78e7aa1517409514E, symObjAddr: 0xCB4, symBinAddr: 0x2C1A0, symSize: 0x574 }
  - { offset: 0xC648E, size: 0x8, addend: 0x0, symName: __ZN9hashbrown3raw13RawTableInner16drop_inner_table17h46735d6f466320eeE, symObjAddr: 0x1488, symBinAddr: 0x2C974, symSize: 0xBC }
  - { offset: 0xC6725, size: 0x8, addend: 0x0, symName: __ZN9hashbrown3raw13RawTableInner16find_insert_slot17h8f56c09a3db6fc13E, symObjAddr: 0x1544, symBinAddr: 0x2CA30, symSize: 0x10C }
  - { offset: 0xC6937, size: 0x8, addend: 0x0, symName: __ZN9hashbrown3raw13RawTableInner17new_uninitialized17h0ba2d26d284e61e6E, symObjAddr: 0x1650, symBinAddr: 0x2CB3C, symSize: 0x1B0 }
  - { offset: 0xC6B7A, size: 0x8, addend: 0x0, symName: __ZN9hashbrown3raw13RawTableInner22fallible_with_capacity17h7b2b51293d8131a5E, symObjAddr: 0x1800, symBinAddr: 0x2CCEC, symSize: 0x2A0 }
  - { offset: 0xC7035, size: 0x8, addend: 0x0, symName: __ZN9hashbrown3raw13RawTableInner23prepare_rehash_in_place17ha6ca53dd6b3c963eE, symObjAddr: 0x1AA0, symBinAddr: 0x2CF8C, symSize: 0x25C }
  - { offset: 0xC7716, size: 0x8, addend: 0x0, symName: __ZN9hashbrown3raw13RawTableInner25find_insert_slot_in_group17heaf60e02a1b2433aE, symObjAddr: 0x1CFC, symBinAddr: 0x2D1E8, symSize: 0x160 }
  - { offset: 0xC7868, size: 0x8, addend: 0x0, symName: '__ZN9hashbrown3raw21RawIterRange$LT$T$GT$3new17h1dbd60b35bd57c87E', symObjAddr: 0x1FF8, symBinAddr: 0x2D4E4, symSize: 0xA4 }
  - { offset: 0xC7B59, size: 0x8, addend: 0x0, symName: '__ZN9hashbrown3raw21RawIterRange$LT$T$GT$9next_impl17h8ed048f497ddde4fE', symObjAddr: 0x209C, symBinAddr: 0x2D588, symSize: 0x1C8 }
  - { offset: 0xC8038, size: 0x8, addend: 0x0, symName: '__ZN9hashbrown3raw21RawTable$LT$T$C$A$GT$14insert_no_grow17h2691ef8badff9c65E', symObjAddr: 0x2264, symBinAddr: 0x2D750, symSize: 0x1DC }
  - { offset: 0xC89C8, size: 0x8, addend: 0x0, symName: '__ZN9hashbrown3raw21RawTable$LT$T$C$A$GT$14reserve_rehash17h3b723b3e0aadd7a0E', symObjAddr: 0x2440, symBinAddr: 0x94010, symSize: 0x90C }
  - { offset: 0xC991B, size: 0x8, addend: 0x0, symName: '__ZN9hashbrown3raw21RawTable$LT$T$C$A$GT$4find17h0d5d7c8e8aeb3604E', symObjAddr: 0x2E10, symBinAddr: 0x2D9F0, symSize: 0x348 }
  - { offset: 0xC9F7A, size: 0x8, addend: 0x0, symName: '__ZN9hashbrown3raw21RawTable$LT$T$C$A$GT$7reserve17hdca69d1539adcffeE', symObjAddr: 0x3220, symBinAddr: 0x2DE00, symSize: 0xCC }
  - { offset: 0xCA0F5, size: 0x8, addend: 0x0, symName: '__ZN104_$LT$core..ops..index_range..IndexRange$u20$as$u20$core..slice..index..SliceIndex$LT$$u5b$T$u5d$$GT$$GT$17get_unchecked_mut18precondition_check17h5aa960a6833aa91eE', symObjAddr: 0x0, symBinAddr: 0x2DECC, symSize: 0x40 }
  - { offset: 0xCA182, size: 0x8, addend: 0x0, symName: '__ZN4pyo33err9err_state10PyErrState4lazy28_$u7b$$u7b$closure$u7d$$u7d$17h43f5eba95beffa03E', symObjAddr: 0x325C, symBinAddr: 0x2F388, symSize: 0x70 }
  - { offset: 0xCA272, size: 0x8, addend: 0x0, symName: '__ZN4pyo33err9err_state20PyErrStateNormalized10ptraceback28_$u7b$$u7b$closure$u7d$$u7d$17hcde89f9b1feff8cbE', symObjAddr: 0x2F5C, symBinAddr: 0x2F0AC, symSize: 0x30 }
  - { offset: 0xCA2D0, size: 0x8, addend: 0x0, symName: '__ZN58_$LT$T$u20$as$u20$pyo3..err..err_state..PyErrArguments$GT$9arguments17h555de6bc45b7f272E', symObjAddr: 0x3098, symBinAddr: 0x2F1E8, symSize: 0x28 }
  - { offset: 0xCA31D, size: 0x8, addend: 0x0, symName: '__ZN58_$LT$T$u20$as$u20$pyo3..err..err_state..PyErrArguments$GT$9arguments17hd5bcae65eefa7a1dE', symObjAddr: 0x30E4, symBinAddr: 0x2F210, symSize: 0x28 }
  - { offset: 0xCA36A, size: 0x8, addend: 0x0, symName: '__ZN58_$LT$T$u20$as$u20$pyo3..err..err_state..PyErrArguments$GT$9arguments17hd9e22396c118952eE', symObjAddr: 0x310C, symBinAddr: 0x2F238, symSize: 0x24 }
  - { offset: 0xCA4B7, size: 0x8, addend: 0x0, symName: __ZN4pyo33err9err_state30lazy_into_normalized_ffi_tuple17h5486db90c4d293d3E, symObjAddr: 0x3974, symBinAddr: 0x2FAA0, symSize: 0x9C }
  - { offset: 0xCA647, size: 0x8, addend: 0x0, symName: __ZN4pyo33err9err_state10raise_lazy17hec7b7be83045335bE, symObjAddr: 0x3A10, symBinAddr: 0x2FB3C, symSize: 0x140 }
  - { offset: 0xCA709, size: 0x8, addend: 0x0, symName: '__ZN81_$LT$pyo3..err..err_state..PyErrStateNormalized$u20$as$u20$core..clone..Clone$GT$5clone17h2c0e5aab981cedb9E', symObjAddr: 0x79C8, symBinAddr: 0x32028, symSize: 0xC0 }
  - { offset: 0xCAFEB, size: 0x8, addend: 0x0, symName: '__ZN4pyo38instance11Py$LT$T$GT$21from_owned_ptr_or_opt28_$u7b$$u7b$closure$u7d$$u7d$17h1ecf92b1b0b94a3cE', symObjAddr: 0x5AA0, symBinAddr: 0x31348, symSize: 0x14 }
  - { offset: 0xCB02D, size: 0x8, addend: 0x0, symName: '__ZN4pyo38instance11Py$LT$T$GT$21from_owned_ptr_or_opt28_$u7b$$u7b$closure$u7d$$u7d$17h301c84e465d31336E', symObjAddr: 0x5AB4, symBinAddr: 0x3135C, symSize: 0x14 }
  - { offset: 0xCB06F, size: 0x8, addend: 0x0, symName: '__ZN4pyo38instance11Py$LT$T$GT$21from_owned_ptr_or_opt28_$u7b$$u7b$closure$u7d$$u7d$17ha4963cc38db28d1cE', symObjAddr: 0x5AC8, symBinAddr: 0x31370, symSize: 0x14 }
  - { offset: 0xCB0B1, size: 0x8, addend: 0x0, symName: '__ZN4pyo38instance11Py$LT$T$GT$21from_owned_ptr_or_opt28_$u7b$$u7b$closure$u7d$$u7d$17he6de7475b82d7545E', symObjAddr: 0x5ADC, symBinAddr: 0x31384, symSize: 0x14 }
  - { offset: 0xCB115, size: 0x8, addend: 0x0, symName: '__ZN4pyo38instance11Py$LT$T$GT$24from_borrowed_ptr_or_opt28_$u7b$$u7b$closure$u7d$$u7d$17h867bddeefaebb9b8E', symObjAddr: 0x5E9C, symBinAddr: 0x31604, symSize: 0xC4 }
  - { offset: 0xCB17B, size: 0x8, addend: 0x0, symName: '__ZN4pyo38instance11Py$LT$T$GT$24from_borrowed_ptr_or_opt28_$u7b$$u7b$closure$u7d$$u7d$17ha75979728788056cE', symObjAddr: 0x5F60, symBinAddr: 0x316C8, symSize: 0xC4 }
  - { offset: 0xCB1E1, size: 0x8, addend: 0x0, symName: '__ZN4pyo38instance11Py$LT$T$GT$24from_borrowed_ptr_or_opt28_$u7b$$u7b$closure$u7d$$u7d$17haa26a8b3df8d33bcE', symObjAddr: 0x6024, symBinAddr: 0x3178C, symSize: 0xC4 }
  - { offset: 0xCB247, size: 0x8, addend: 0x0, symName: '__ZN4pyo38instance11Py$LT$T$GT$24from_borrowed_ptr_or_opt28_$u7b$$u7b$closure$u7d$$u7d$17hb36f022671ec5d59E', symObjAddr: 0x60E8, symBinAddr: 0x31850, symSize: 0xC4 }
  - { offset: 0xCB2AD, size: 0x8, addend: 0x0, symName: '__ZN4pyo38instance11Py$LT$T$GT$24from_borrowed_ptr_or_opt28_$u7b$$u7b$closure$u7d$$u7d$17hee265f55051ae7beE', symObjAddr: 0x61AC, symBinAddr: 0x31914, symSize: 0xC4 }
  - { offset: 0xCB31A, size: 0x8, addend: 0x0, symName: '__ZN76_$LT$pyo3..instance..Py$LT$T$GT$$u20$as$u20$pyo3..conversion..ToPyObject$GT$9to_object17h48b8db7bf92c1f36E', symObjAddr: 0x6320, symBinAddr: 0x31A54, symSize: 0x28 }
  - { offset: 0xCB371, size: 0x8, addend: 0x0, symName: '__ZN129_$LT$pyo3..instance..Py$LT$T$GT$$u20$as$u20$pyo3..conversion..IntoPy$LT$pyo3..instance..Py$LT$pyo3..types..any..PyAny$GT$$GT$$GT$7into_py17h2a9d1b958408224bE', symObjAddr: 0x6348, symBinAddr: 0x31A7C, symSize: 0x28 }
  - { offset: 0xCB3C8, size: 0x8, addend: 0x0, symName: '__ZN124_$LT$pyo3..instance..Py$LT$pyo3..types..any..PyAny$GT$$u20$as$u20$core..convert..From$LT$$RF$pyo3..types..any..PyAny$GT$$GT$4from17h1b3ddb7dbc6683f4E', symObjAddr: 0x6370, symBinAddr: 0x31AA4, symSize: 0x34 }
  - { offset: 0xCB3FC, size: 0x8, addend: 0x0, symName: '__ZN102_$LT$pyo3..instance..Py$LT$pyo3..types..any..PyAny$GT$$u20$as$u20$core..convert..From$LT$$RF$T$GT$$GT$4from17h5dc8fed82b8bf1ecE', symObjAddr: 0x6414, symBinAddr: 0x31AD8, symSize: 0x38 }
  - { offset: 0xCB433, size: 0x8, addend: 0x0, symName: '__ZN102_$LT$pyo3..instance..Py$LT$pyo3..types..any..PyAny$GT$$u20$as$u20$core..convert..From$LT$$RF$T$GT$$GT$4from17h9c2bbe98fe6dbccaE', symObjAddr: 0x644C, symBinAddr: 0x31B10, symSize: 0x38 }
  - { offset: 0xCB46A, size: 0x8, addend: 0x0, symName: '__ZN102_$LT$pyo3..instance..Py$LT$pyo3..types..any..PyAny$GT$$u20$as$u20$core..convert..From$LT$$RF$T$GT$$GT$4from17he25e4e8ba70dde5eE', symObjAddr: 0x64BC, symBinAddr: 0x31B48, symSize: 0x38 }
  - { offset: 0xCB4A7, size: 0x8, addend: 0x0, symName: '__ZN124_$LT$pyo3..instance..Py$LT$pyo3..types..any..PyAny$GT$$u20$as$u20$core..convert..From$LT$pyo3..instance..Py$LT$T$GT$$GT$$GT$4from17h41d8b82e4fcaaa59E', symObjAddr: 0x64F4, symBinAddr: 0x31B80, symSize: 0x28 }
  - { offset: 0xCB4E4, size: 0x8, addend: 0x0, symName: '__ZN66_$LT$pyo3..instance..Py$LT$T$GT$$u20$as$u20$core..clone..Clone$GT$5clone17h0ed3beebc1e683bbE', symObjAddr: 0x6544, symBinAddr: 0x31BA8, symSize: 0x34 }
  - { offset: 0xCB51B, size: 0x8, addend: 0x0, symName: '__ZN66_$LT$pyo3..instance..Py$LT$T$GT$$u20$as$u20$core..clone..Clone$GT$5clone17h19fc797c677e2952E', symObjAddr: 0x6578, symBinAddr: 0x31BDC, symSize: 0x34 }
  - { offset: 0xCB552, size: 0x8, addend: 0x0, symName: '__ZN66_$LT$pyo3..instance..Py$LT$T$GT$$u20$as$u20$core..clone..Clone$GT$5clone17heec6f81de394f9c9E', symObjAddr: 0x65AC, symBinAddr: 0x31C10, symSize: 0x34 }
  - { offset: 0xCB58F, size: 0x8, addend: 0x0, symName: '__ZN69_$LT$pyo3..instance..Py$LT$T$GT$$u20$as$u20$core..ops..drop..Drop$GT$4drop17h0abb5caf7c2af34eE', symObjAddr: 0x65E0, symBinAddr: 0x31C44, symSize: 0x28 }
  - { offset: 0xCB5C2, size: 0x8, addend: 0x0, symName: '__ZN69_$LT$pyo3..instance..Py$LT$T$GT$$u20$as$u20$core..ops..drop..Drop$GT$4drop17h18a35d236a97a984E', symObjAddr: 0x6608, symBinAddr: 0x31C6C, symSize: 0x28 }
  - { offset: 0xCB5F5, size: 0x8, addend: 0x0, symName: '__ZN69_$LT$pyo3..instance..Py$LT$T$GT$$u20$as$u20$core..ops..drop..Drop$GT$4drop17h3662c2040ea22278E', symObjAddr: 0x6658, symBinAddr: 0x31C94, symSize: 0x28 }
  - { offset: 0xCB628, size: 0x8, addend: 0x0, symName: '__ZN69_$LT$pyo3..instance..Py$LT$T$GT$$u20$as$u20$core..ops..drop..Drop$GT$4drop17h6b26e2caf4c1f660E', symObjAddr: 0x66A8, symBinAddr: 0x31CBC, symSize: 0x28 }
  - { offset: 0xCB65B, size: 0x8, addend: 0x0, symName: '__ZN69_$LT$pyo3..instance..Py$LT$T$GT$$u20$as$u20$core..ops..drop..Drop$GT$4drop17h886078050bb012afE', symObjAddr: 0x66F8, symBinAddr: 0x31CE4, symSize: 0x28 }
  - { offset: 0xCB68E, size: 0x8, addend: 0x0, symName: '__ZN69_$LT$pyo3..instance..Py$LT$T$GT$$u20$as$u20$core..ops..drop..Drop$GT$4drop17h8d0ed28d9dad9705E', symObjAddr: 0x6720, symBinAddr: 0x31D0C, symSize: 0x28 }
  - { offset: 0xCB6C1, size: 0x8, addend: 0x0, symName: '__ZN69_$LT$pyo3..instance..Py$LT$T$GT$$u20$as$u20$core..ops..drop..Drop$GT$4drop17hd2c7b739c2ad0fb0E', symObjAddr: 0x6798, symBinAddr: 0x31D34, symSize: 0x28 }
  - { offset: 0xCB735, size: 0x8, addend: 0x0, symName: '__ZN4pyo35types6string146_$LT$impl$u20$core..convert..From$LT$$RF$pyo3..types..string..PyString$GT$$u20$for$u20$pyo3..instance..Py$LT$pyo3..types..string..PyString$GT$$GT$4from17hd1c55403a98ab321E', symObjAddr: 0x7B64, symBinAddr: 0x321C4, symSize: 0x38 }
  - { offset: 0xCB782, size: 0x8, addend: 0x0, symName: '__ZN4pyo35types10typeobject150_$LT$impl$u20$core..convert..From$LT$$RF$pyo3..types..typeobject..PyType$GT$$u20$for$u20$pyo3..instance..Py$LT$pyo3..types..typeobject..PyType$GT$$GT$4from17ha8cabc0a4fe6ecd4E', symObjAddr: 0x7C18, symBinAddr: 0x321FC, symSize: 0x38 }
  - { offset: 0xCBA18, size: 0x8, addend: 0x0, symName: __ZN4pyo33gil5START17h77a0deef89f33aecE, symObjAddr: 0x40DCE, symBinAddr: 0xE48C0, symSize: 0x0 }
  - { offset: 0xCBA33, size: 0x8, addend: 0x0, symName: __ZN4pyo33gil4POOL17h8f62ae5420770d44E, symObjAddr: 0x91A0, symBinAddr: 0xE44A0, symSize: 0x0 }
  - { offset: 0xCBAB6, size: 0x8, addend: 0x0, symName: '__ZN4pyo33gil9GIL_COUNT29_$u7b$$u7b$constant$u7d$$u7d$28_$u7b$$u7b$closure$u7d$$u7d$3VAL17h3221efef01a99bd1E', symObjAddr: 0x920C, symBinAddr: 0xE4548, symSize: 0x0 }
  - { offset: 0xCBAC5, size: 0x8, addend: 0x0, symName: '__ZN4pyo33gil9GIL_COUNT29_$u7b$$u7b$constant$u7d$$u7d$28_$u7b$$u7b$closure$u7d$$u7d$17hb75ef64199df39faE', symObjAddr: 0x7C50, symBinAddr: 0x32234, symSize: 0x34 }
  - { offset: 0xCBB1C, size: 0x8, addend: 0x0, symName: '__ZN4pyo33gil13OWNED_OBJECTS29_$u7b$$u7b$constant$u7d$$u7d$28_$u7b$$u7b$closure$u7d$$u7d$3VAL17hd6ee9f2969c806c1E', symObjAddr: 0x9224, symBinAddr: 0xE4560, symSize: 0x0 }
  - { offset: 0xCBB2B, size: 0x8, addend: 0x0, symName: '__ZN4pyo33gil13OWNED_OBJECTS29_$u7b$$u7b$constant$u7d$$u7d$28_$u7b$$u7b$closure$u7d$$u7d$17hb2f5618ca6c7cb30E', symObjAddr: 0x7C84, symBinAddr: 0x32268, symSize: 0x38 }
  - { offset: 0xCBBED, size: 0x8, addend: 0x0, symName: '__ZN4pyo33gil15gil_is_acquired28_$u7b$$u7b$closure$u7d$$u7d$17h67227cf7386942e0E', symObjAddr: 0x3B50, symBinAddr: 0x2FC7C, symSize: 0x2C }
  - { offset: 0xCBC2B, size: 0x8, addend: 0x0, symName: __ZN4pyo33gil27prepare_freethreaded_python17h88eb30b6283cf0a5E, symObjAddr: 0x3B7C, symBinAddr: 0x2FCA8, symSize: 0x1C }
  - { offset: 0xCBC49, size: 0x8, addend: 0x0, symName: '__ZN4pyo33gil27prepare_freethreaded_python28_$u7b$$u7b$closure$u7d$$u7d$17h37487868622294f4E', symObjAddr: 0x3B98, symBinAddr: 0x2FCC4, symSize: 0x38 }
  - { offset: 0xCBC94, size: 0x8, addend: 0x0, symName: '__ZN61_$LT$pyo3..gil..GILGuard$u20$as$u20$core..ops..drop..Drop$GT$4drop17hc0a93d1d28d3be89E', symObjAddr: 0x3CE4, symBinAddr: 0x2FE10, symSize: 0x34 }
  - { offset: 0xCBD21, size: 0x8, addend: 0x0, symName: '__ZN4pyo33gil7GILPool3new28_$u7b$$u7b$closure$u7d$$u7d$17h26edc3062ade36e0E', symObjAddr: 0x4590, symBinAddr: 0x30480, symSize: 0x94 }
  - { offset: 0xCBD75, size: 0x8, addend: 0x0, symName: '__ZN60_$LT$pyo3..gil..GILPool$u20$as$u20$core..ops..drop..Drop$GT$4drop17h81d45008339943d2E', symObjAddr: 0x4644, symBinAddr: 0x30534, symSize: 0x210 }
  - { offset: 0xCBE58, size: 0x8, addend: 0x0, symName: '__ZN60_$LT$pyo3..gil..GILPool$u20$as$u20$core..ops..drop..Drop$GT$4drop28_$u7b$$u7b$closure$u7d$$u7d$17h697ce89fc2bcdf8fE', symObjAddr: 0x4854, symBinAddr: 0x30744, symSize: 0xFC }
  - { offset: 0xCBEAF, size: 0x8, addend: 0x0, symName: __ZN4pyo33gil15register_incref17he7171eef00b14c0fE, symObjAddr: 0x4950, symBinAddr: 0x30840, symSize: 0xF4 }
  - { offset: 0xCBF0C, size: 0x8, addend: 0x0, symName: __ZN4pyo33gil15register_decref17h5997134a412b96cfE, symObjAddr: 0x4A44, symBinAddr: 0x30934, symSize: 0x138 }
  - { offset: 0xCBF69, size: 0x8, addend: 0x0, symName: __ZN4pyo33gil14register_owned17hb561ff135ef35dc8E, symObjAddr: 0x4B7C, symBinAddr: 0x30A6C, symSize: 0x68 }
  - { offset: 0xCBFC7, size: 0x8, addend: 0x0, symName: '__ZN4pyo33gil14register_owned28_$u7b$$u7b$closure$u7d$$u7d$17hf4e568c664ad835fE', symObjAddr: 0x4BE4, symBinAddr: 0x30AD4, symSize: 0xA0 }
  - { offset: 0xCC008, size: 0x8, addend: 0x0, symName: '__ZN4pyo33gil19increment_gil_count28_$u7b$$u7b$closure$u7d$$u7d$17he89fe32d2514ca0cE', symObjAddr: 0x4C84, symBinAddr: 0x30B74, symSize: 0x74 }
  - { offset: 0xCC060, size: 0x8, addend: 0x0, symName: '__ZN4pyo33gil19decrement_gil_count28_$u7b$$u7b$closure$u7d$$u7d$17h60b2878661569febE', symObjAddr: 0x4CF8, symBinAddr: 0x30BE8, symSize: 0x90 }
  - { offset: 0xCC0BD, size: 0x8, addend: 0x0, symName: '__ZN4pyo33gil8GILGuard7acquire28_$u7b$$u7b$closure$u7d$$u7d$17h9b1bd24f5324a818E', symObjAddr: 0x7AC0, symBinAddr: 0x32120, symSize: 0xA4 }
  - { offset: 0xCC89E, size: 0x8, addend: 0x0, symName: '__ZN4pyo310exceptions154_$LT$impl$u20$core..convert..From$LT$$RF$pyo3..exceptions..PyBaseException$GT$$u20$for$u20$pyo3..instance..Py$LT$pyo3..exceptions..PyBaseException$GT$$GT$4from17h2ed7f76e3673d9c4E', symObjAddr: 0x7A88, symBinAddr: 0x320E8, symSize: 0x38 }
  - { offset: 0xCE113, size: 0x8, addend: 0x0, symName: '__ZN4core3ptr9const_ptr33_$LT$impl$u20$$BP$const$u20$T$GT$6offset18precondition_check17h461f10a8c5c5de09E', symObjAddr: 0xDC4, symBinAddr: 0x2EB58, symSize: 0xB4 }
  - { offset: 0xCE33B, size: 0x8, addend: 0x0, symName: '__ZN4core3ptr9const_ptr33_$LT$impl$u20$$BP$const$u20$T$GT$7is_null17hd3ac2cf6a8944687E', symObjAddr: 0xE78, symBinAddr: 0x2EC0C, symSize: 0x1C }
  - { offset: 0xCE3AB, size: 0x8, addend: 0x0, symName: '__ZN4core3ptr9const_ptr33_$LT$impl$u20$$BP$const$u20$T$GT$7is_null17hdb467db146cac82eE', symObjAddr: 0xE94, symBinAddr: 0x2EC28, symSize: 0x1C }
  - { offset: 0xCE420, size: 0x8, addend: 0x0, symName: '__ZN4core3ptr9const_ptr33_$LT$impl$u20$$BP$const$u20$T$GT$7sub_ptr18precondition_check17hd9e4a26e72160fd7E', symObjAddr: 0xEB0, symBinAddr: 0x2EC44, symSize: 0x40 }
  - { offset: 0xCE525, size: 0x8, addend: 0x0, symName: '__ZN4core3ptr7mut_ptr31_$LT$impl$u20$$BP$mut$u20$T$GT$6offset18precondition_check17hfa112df2f7a7814aE', symObjAddr: 0xCF0, symBinAddr: 0x2EA84, symSize: 0xB4 }
  - { offset: 0xCE74D, size: 0x8, addend: 0x0, symName: '__ZN4core3ptr7mut_ptr31_$LT$impl$u20$$BP$mut$u20$T$GT$7is_null17h3b7403d995a0f2d4E', symObjAddr: 0xDA4, symBinAddr: 0x2EB38, symSize: 0x20 }
  - { offset: 0xCEB8B, size: 0x8, addend: 0x0, symName: '__ZN42_$LT$$RF$T$u20$as$u20$core..fmt..Debug$GT$3fmt17h471a2c960b9ef58aE', symObjAddr: 0xDC, symBinAddr: 0x2DF0C, symSize: 0x30 }
  - { offset: 0xCEBD1, size: 0x8, addend: 0x0, symName: '__ZN42_$LT$$RF$T$u20$as$u20$core..fmt..Debug$GT$3fmt17h808675f0dc7d9e42E', symObjAddr: 0x10C, symBinAddr: 0x2DF3C, symSize: 0x30 }
  - { offset: 0xCEC1D, size: 0x8, addend: 0x0, symName: '__ZN44_$LT$$RF$T$u20$as$u20$core..fmt..Display$GT$3fmt17hd16c6d811ed12e22E', symObjAddr: 0x16C, symBinAddr: 0x2DF6C, symSize: 0x3C }
  - { offset: 0xCEC69, size: 0x8, addend: 0x0, symName: '__ZN45_$LT$$LP$$RP$$u20$as$u20$core..fmt..Debug$GT$3fmt17h0ce0fc3f9839c6aaE', symObjAddr: 0x1A8, symBinAddr: 0x2DFA8, symSize: 0x40 }
  - { offset: 0xCEE4C, size: 0x8, addend: 0x0, symName: '__ZN53_$LT$core..fmt..Error$u20$as$u20$core..fmt..Debug$GT$3fmt17h92b2d251b847e5ccE', symObjAddr: 0x119C, symBinAddr: 0x2ED50, symSize: 0x40 }
  - { offset: 0xCEEC0, size: 0x8, addend: 0x0, symName: '__ZN104_$LT$core..ops..index_range..IndexRange$u20$as$u20$core..slice..index..SliceIndex$LT$$u5b$T$u5d$$GT$$GT$17get_unchecked_mut18precondition_check17h5aa960a6833aa91eE', symObjAddr: 0x0, symBinAddr: 0x2DECC, symSize: 0x40 }
  - { offset: 0xCEF02, size: 0x8, addend: 0x0, symName: '__ZN75_$LT$usize$u20$as$u20$core..slice..index..SliceIndex$LT$$u5b$T$u5d$$GT$$GT$13get_unchecked18precondition_check17hd7c4077be94c9742E', symObjAddr: 0x29C0, symBinAddr: 0x2EDE0, symSize: 0x40 }
  - { offset: 0xCEFC6, size: 0x8, addend: 0x0, symName: '__ZN4core5slice4iter87_$LT$impl$u20$core..iter..traits..collect..IntoIterator$u20$for$u20$$RF$$u5b$T$u5d$$GT$9into_iter17he4ac45cbc26914e6E', symObjAddr: 0x1104, symBinAddr: 0x2ECDC, symSize: 0x50 }
  - { offset: 0xCF127, size: 0x8, addend: 0x0, symName: '__ZN49_$LT$usize$u20$as$u20$core..iter..range..Step$GT$13steps_between17h7ed2dbe1600aac80E', symObjAddr: 0x1E8, symBinAddr: 0x2DFE8, symSize: 0x9C }
  - { offset: 0xCF182, size: 0x8, addend: 0x0, symName: '__ZN49_$LT$usize$u20$as$u20$core..iter..range..Step$GT$17forward_unchecked17h42947dda1f887dc0E', symObjAddr: 0x284, symBinAddr: 0x2E084, symSize: 0x48 }
  - { offset: 0xCF500, size: 0x8, addend: 0x0, symName: __ZN4core10intrinsics11write_bytes18precondition_check17h43d30247be0b196dE, symObjAddr: 0x308, symBinAddr: 0x2E0CC, symSize: 0x104 }
  - { offset: 0xCF622, size: 0x8, addend: 0x0, symName: __ZN4core10intrinsics19copy_nonoverlapping18precondition_check17h6399ffac2bee3748E, symObjAddr: 0x40C, symBinAddr: 0x2E1D0, symSize: 0x2F8 }
  - { offset: 0xCF8DE, size: 0x8, addend: 0x0, symName: __ZN4core10intrinsics4copy18precondition_check17h69d5479a18e6c491E, symObjAddr: 0x704, symBinAddr: 0x2E4C8, symSize: 0x1D4 }
  - { offset: 0xD0888, size: 0x8, addend: 0x0, symName: __ZN4core4hint21unreachable_unchecked18precondition_check17h8a86906313138b5dE, symObjAddr: 0xEF0, symBinAddr: 0x2EC84, symSize: 0x1C }
  - { offset: 0xD08B2, size: 0x8, addend: 0x0, symName: '__ZN4core5array4iter94_$LT$impl$u20$core..iter..traits..collect..IntoIterator$u20$for$u20$$u5b$T$u3b$$u20$N$u5d$$GT$9into_iter17hbcb56816d50cbe19E', symObjAddr: 0xF0C, symBinAddr: 0x2ECA0, symSize: 0x3C }
  - { offset: 0xD09E3, size: 0x8, addend: 0x0, symName: '__ZN50_$LT$T$u20$as$u20$core..convert..Into$LT$U$GT$$GT$4into17hb72a4ce68149b300E', symObjAddr: 0x1154, symBinAddr: 0x2ED2C, symSize: 0x24 }
  - { offset: 0xD0B4C, size: 0x8, addend: 0x0, symName: __ZN8pyo3_ffi6object12PyType_Check17hd191c6de5c192582E, symObjAddr: 0x2BBC, symBinAddr: 0x2EE20, symSize: 0x30 }
  - { offset: 0xD0B7A, size: 0x8, addend: 0x0, symName: __ZN8pyo3_ffi6object17PyType_HasFeature17h495865973b90a9acE, symObjAddr: 0x2BEC, symBinAddr: 0x2EE50, symSize: 0x68 }
  - { offset: 0xD0BB7, size: 0x8, addend: 0x0, symName: __ZN8pyo3_ffi6object19PyType_FastSubclass17h5d221ee0f28b734aE, symObjAddr: 0x2CD4, symBinAddr: 0x2EEB8, symSize: 0x28 }
  - { offset: 0xD0BF4, size: 0x8, addend: 0x0, symName: __ZN8pyo3_ffi6object7Py_None17hf9b79bf506406f8cE, symObjAddr: 0x2CFC, symBinAddr: 0x2EEE0, symSize: 0xC }
  - { offset: 0xD0C12, size: 0x8, addend: 0x0, symName: __ZN8pyo3_ffi6object7Py_SIZE17h2d1302a42c40db12E, symObjAddr: 0x2D08, symBinAddr: 0x2EEEC, symSize: 0x11C }
  - { offset: 0xD0CB7, size: 0x8, addend: 0x0, symName: __ZN8pyo3_ffi6object7Py_TYPE17hc5be43b4d9271eb9E, symObjAddr: 0x2E24, symBinAddr: 0x2F008, symSize: 0x54 }
  - { offset: 0xD1CA0, size: 0x8, addend: 0x0, symName: '__ZN5alloc3str56_$LT$impl$u20$alloc..borrow..ToOwned$u20$for$u20$str$GT$8to_owned17hd7ea3f343312e009E', symObjAddr: 0x2920, symBinAddr: 0x2ED90, symSize: 0x50 }
  - { offset: 0xD21E7, size: 0x8, addend: 0x0, symName: __ZN4core3fmt9Arguments6new_v117h06b58ecb4b9aed45E, symObjAddr: 0x8DC, symBinAddr: 0x2E69C, symSize: 0x50 }
  - { offset: 0xD2233, size: 0x8, addend: 0x0, symName: __ZN4core3fmt9Arguments6new_v117h0aecfbf2c99b17a1E, symObjAddr: 0x92C, symBinAddr: 0x2E6EC, symSize: 0x54 }
  - { offset: 0xD227F, size: 0x8, addend: 0x0, symName: __ZN4core3fmt9Arguments6new_v117h4fdbd73c9fc1151dE, symObjAddr: 0x980, symBinAddr: 0x2E740, symSize: 0x4C }
  - { offset: 0xD22CB, size: 0x8, addend: 0x0, symName: __ZN4core3fmt9Arguments6new_v117h64e06517ecdb72d4E, symObjAddr: 0x9CC, symBinAddr: 0x2E78C, symSize: 0x54 }
  - { offset: 0xD2331, size: 0x8, addend: 0x0, symName: __ZN4core3fmt9Arguments6new_v117h7008f8535e30a847E, symObjAddr: 0xA20, symBinAddr: 0x2E7E0, symSize: 0x54 }
  - { offset: 0xD237D, size: 0x8, addend: 0x0, symName: __ZN4core3fmt9Arguments6new_v117hd61059d20eb6dbb3E, symObjAddr: 0xA74, symBinAddr: 0x2E834, symSize: 0x50 }
  - { offset: 0xD23E3, size: 0x8, addend: 0x0, symName: __ZN4core3fmt9Arguments6new_v117hd8da3f2dde0e0e29E, symObjAddr: 0xAC4, symBinAddr: 0x2E884, symSize: 0x54 }
  - { offset: 0xD249C, size: 0x8, addend: 0x0, symName: __ZN4core3fmt9Formatter9write_fmt17h0cab0d0c8a52633aE, symObjAddr: 0xB18, symBinAddr: 0x2E8D8, symSize: 0x1AC }
  - { offset: 0xD2778, size: 0x8, addend: 0x0, symName: __ZN4pyo33err9err_state20PyErrStateNormalized5ptype17hf8bd204083a45306E, symObjAddr: 0x2F0C, symBinAddr: 0x2F05C, symSize: 0x24 }
  - { offset: 0xD27BF, size: 0x8, addend: 0x0, symName: __ZN4pyo33err9err_state20PyErrStateNormalized10ptraceback17h9ebe0c7876d6ea9dE, symObjAddr: 0x2F30, symBinAddr: 0x2F080, symSize: 0x2C }
  - { offset: 0xD27F9, size: 0x8, addend: 0x0, symName: __ZN4pyo33err9err_state20PyErrStateNormalized25from_normalized_ffi_tuple17h6af0716892a3ff0cE, symObjAddr: 0x2F8C, symBinAddr: 0x2F0DC, symSize: 0x10C }
  - { offset: 0xD28B1, size: 0x8, addend: 0x0, symName: __ZN4pyo33err9err_state10PyErrState4lazy17h40231396b20ba673E, symObjAddr: 0x3130, symBinAddr: 0x2F25C, symSize: 0x12C }
  - { offset: 0xD2932, size: 0x8, addend: 0x0, symName: __ZN4pyo33err9err_state10PyErrState10normalized17h7ed5d458f962935eE, symObjAddr: 0x32CC, symBinAddr: 0x2F3F8, symSize: 0x12C }
  - { offset: 0xD2954, size: 0x8, addend: 0x0, symName: __ZN4pyo33err9err_state10PyErrState9normalize17hce4b9a3e8727af72E, symObjAddr: 0x33F8, symBinAddr: 0x2F524, symSize: 0x25C }
  - { offset: 0xD2B2D, size: 0x8, addend: 0x0, symName: __ZN4pyo33err9err_state10PyErrState7restore17h6a9294d78d4135ecE, symObjAddr: 0x3654, symBinAddr: 0x2F780, symSize: 0x320 }
  - { offset: 0xD2D25, size: 0x8, addend: 0x0, symName: __ZN4pyo33gil8GILGuard7acquire17h46615afd3e4798c8E, symObjAddr: 0x3BD0, symBinAddr: 0x2FCFC, symSize: 0x80 }
  - { offset: 0xD2D4D, size: 0x8, addend: 0x0, symName: __ZN4pyo33gil8GILGuard17acquire_unchecked17hacb6652ef8f88a55E, symObjAddr: 0x3C50, symBinAddr: 0x2FD7C, symSize: 0x94 }
  - { offset: 0xD2DBB, size: 0x8, addend: 0x0, symName: __ZN4pyo33gil13ReferencePool15register_incref17h70258bdd2d8d3f45E, symObjAddr: 0x3D18, symBinAddr: 0x2FE44, symSize: 0x94 }
  - { offset: 0xD2DED, size: 0x8, addend: 0x0, symName: __ZN4pyo33gil13ReferencePool15register_decref17h4b4d998ff0d9ef39E, symObjAddr: 0x3DAC, symBinAddr: 0x2FED8, symSize: 0x98 }
  - { offset: 0xD2E3B, size: 0x8, addend: 0x0, symName: __ZN4pyo33gil13ReferencePool13update_counts17hc4afa2b48ebfc88cE, symObjAddr: 0x3E44, symBinAddr: 0x2FF70, symSize: 0x4D4 }
  - { offset: 0xD2F8C, size: 0x8, addend: 0x0, symName: __ZN4pyo33gil7LockGIL4bail17h4a6ed6d9a111a354E, symObjAddr: 0x4488, symBinAddr: 0x9491C, symSize: 0x64 }
  - { offset: 0xD2FAF, size: 0x8, addend: 0x0, symName: __ZN4pyo33gil7GILPool3new17h7157fc342ab37e7dE, symObjAddr: 0x4554, symBinAddr: 0x30444, symSize: 0x3C }
  - { offset: 0xD2FE5, size: 0x8, addend: 0x0, symName: __ZN4pyo33gil7GILPool6python17h8a300cbb648b21eeE, symObjAddr: 0x4624, symBinAddr: 0x30514, symSize: 0x20 }
  - { offset: 0xD3022, size: 0x8, addend: 0x0, symName: '__ZN4pyo38instance11Py$LT$T$GT$6as_ref17h2abb01b24702d0e2E', symObjAddr: 0x4D88, symBinAddr: 0x30C78, symSize: 0x30 }
  - { offset: 0xD3093, size: 0x8, addend: 0x0, symName: '__ZN4pyo38instance11Py$LT$T$GT$6as_ref17h3cce39675ffa99c9E', symObjAddr: 0x4DB8, symBinAddr: 0x30CA8, symSize: 0x30 }
  - { offset: 0xD3111, size: 0x8, addend: 0x0, symName: '__ZN4pyo38instance11Py$LT$T$GT$6as_ref17h44708c5200784f34E', symObjAddr: 0x4DE8, symBinAddr: 0x30CD8, symSize: 0x30 }
  - { offset: 0xD3182, size: 0x8, addend: 0x0, symName: '__ZN4pyo38instance11Py$LT$T$GT$6as_ref17h4a88ba0fc4b3f11eE', symObjAddr: 0x4E18, symBinAddr: 0x30D08, symSize: 0x30 }
  - { offset: 0xD31F3, size: 0x8, addend: 0x0, symName: '__ZN4pyo38instance11Py$LT$T$GT$6as_ref17h560f9d0175489afbE', symObjAddr: 0x4E48, symBinAddr: 0x30D38, symSize: 0x30 }
  - { offset: 0xD3264, size: 0x8, addend: 0x0, symName: '__ZN4pyo38instance11Py$LT$T$GT$6as_ref17hc235d9a65885ab5bE', symObjAddr: 0x4E78, symBinAddr: 0x30D68, symSize: 0x30 }
  - { offset: 0xD32E2, size: 0x8, addend: 0x0, symName: '__ZN4pyo38instance11Py$LT$T$GT$8into_ref17h81f317743215ae92E', symObjAddr: 0x4F00, symBinAddr: 0x30D98, symSize: 0x28 }
  - { offset: 0xD3328, size: 0x8, addend: 0x0, symName: '__ZN4pyo38instance11Py$LT$T$GT$6as_ptr17h0fcd1b16167d12aaE', symObjAddr: 0x4F44, symBinAddr: 0x30DC0, symSize: 0x1C }
  - { offset: 0xD3354, size: 0x8, addend: 0x0, symName: '__ZN4pyo38instance11Py$LT$T$GT$6as_ptr17h245377108198e54bE', symObjAddr: 0x4F60, symBinAddr: 0x30DDC, symSize: 0x1C }
  - { offset: 0xD3380, size: 0x8, addend: 0x0, symName: '__ZN4pyo38instance11Py$LT$T$GT$6as_ptr17h371ce51e9ea4781fE', symObjAddr: 0x4F7C, symBinAddr: 0x30DF8, symSize: 0x1C }
  - { offset: 0xD33AC, size: 0x8, addend: 0x0, symName: '__ZN4pyo38instance11Py$LT$T$GT$6as_ptr17h3f785c3b5ddb5663E', symObjAddr: 0x4F98, symBinAddr: 0x30E14, symSize: 0x1C }
  - { offset: 0xD33E5, size: 0x8, addend: 0x0, symName: '__ZN4pyo38instance11Py$LT$T$GT$6as_ptr17h812c042fca7955ebE', symObjAddr: 0x5040, symBinAddr: 0x30E30, symSize: 0x1C }
  - { offset: 0xD3411, size: 0x8, addend: 0x0, symName: '__ZN4pyo38instance11Py$LT$T$GT$6as_ptr17h94b7ab63c5444298E', symObjAddr: 0x505C, symBinAddr: 0x30E4C, symSize: 0x1C }
  - { offset: 0xD343D, size: 0x8, addend: 0x0, symName: '__ZN4pyo38instance11Py$LT$T$GT$8into_ptr17h158b3709d56cdf78E', symObjAddr: 0x5094, symBinAddr: 0x30E68, symSize: 0x88 }
  - { offset: 0xD34A5, size: 0x8, addend: 0x0, symName: '__ZN4pyo38instance11Py$LT$T$GT$8into_ptr17h2f6cce8d05ae826bE', symObjAddr: 0x511C, symBinAddr: 0x30EF0, symSize: 0x88 }
  - { offset: 0xD350D, size: 0x8, addend: 0x0, symName: '__ZN4pyo38instance11Py$LT$T$GT$8into_ptr17h6ae145ea87b04e8dE', symObjAddr: 0x51A4, symBinAddr: 0x30F78, symSize: 0x88 }
  - { offset: 0xD3575, size: 0x8, addend: 0x0, symName: '__ZN4pyo38instance11Py$LT$T$GT$8into_ptr17hd8c58e9c7a385bbdE', symObjAddr: 0x544C, symBinAddr: 0x31000, symSize: 0x88 }
  - { offset: 0xD35DD, size: 0x8, addend: 0x0, symName: '__ZN4pyo38instance11Py$LT$T$GT$9clone_ref17hcf7a34c06ad835d1E', symObjAddr: 0x54D4, symBinAddr: 0x31088, symSize: 0x2C }
  - { offset: 0xD3623, size: 0x8, addend: 0x0, symName: '__ZN4pyo38instance11Py$LT$T$GT$9clone_ref17hfce20bfca4235054E', symObjAddr: 0x5500, symBinAddr: 0x310B4, symSize: 0x2C }
  - { offset: 0xD3669, size: 0x8, addend: 0x0, symName: '__ZN4pyo38instance11Py$LT$T$GT$14from_owned_ptr17h22ae9ba4af0a2413E', symObjAddr: 0x56A8, symBinAddr: 0x310E0, symSize: 0x48 }
  - { offset: 0xD36AF, size: 0x8, addend: 0x0, symName: '__ZN4pyo38instance11Py$LT$T$GT$21from_owned_ptr_or_err17h1035e3c48703d921E', symObjAddr: 0x5780, symBinAddr: 0x31128, symSize: 0x80 }
  - { offset: 0xD3713, size: 0x8, addend: 0x0, symName: '__ZN4pyo38instance11Py$LT$T$GT$21from_owned_ptr_or_err17h33d077907293849fE', symObjAddr: 0x5800, symBinAddr: 0x311A8, symSize: 0x80 }
  - { offset: 0xD3777, size: 0x8, addend: 0x0, symName: '__ZN4pyo38instance11Py$LT$T$GT$21from_owned_ptr_or_err17hc9cb64227289b614E', symObjAddr: 0x5900, symBinAddr: 0x31228, symSize: 0x80 }
  - { offset: 0xD37DB, size: 0x8, addend: 0x0, symName: '__ZN4pyo38instance11Py$LT$T$GT$21from_owned_ptr_or_opt17h03e2a6ecf3f43bdbE', symObjAddr: 0x5A00, symBinAddr: 0x312A8, symSize: 0x28 }
  - { offset: 0xD3821, size: 0x8, addend: 0x0, symName: '__ZN4pyo38instance11Py$LT$T$GT$21from_owned_ptr_or_opt17h24792780ad9d5e7aE', symObjAddr: 0x5A28, symBinAddr: 0x312D0, symSize: 0x28 }
  - { offset: 0xD3867, size: 0x8, addend: 0x0, symName: '__ZN4pyo38instance11Py$LT$T$GT$21from_owned_ptr_or_opt17h3afe806943e86fb5E', symObjAddr: 0x5A50, symBinAddr: 0x312F8, symSize: 0x28 }
  - { offset: 0xD38AD, size: 0x8, addend: 0x0, symName: '__ZN4pyo38instance11Py$LT$T$GT$21from_owned_ptr_or_opt17hf440ba2fb2b93bd1E', symObjAddr: 0x5A78, symBinAddr: 0x31320, symSize: 0x28 }
  - { offset: 0xD38F3, size: 0x8, addend: 0x0, symName: '__ZN4pyo38instance11Py$LT$T$GT$17from_borrowed_ptr17h60ea93d8c2a99144E', symObjAddr: 0x5AF0, symBinAddr: 0x31398, symSize: 0x48 }
  - { offset: 0xD3939, size: 0x8, addend: 0x0, symName: '__ZN4pyo38instance11Py$LT$T$GT$17from_borrowed_ptr17ha32f89fb4bce8adaE', symObjAddr: 0x5B80, symBinAddr: 0x313E0, symSize: 0x48 }
  - { offset: 0xD397F, size: 0x8, addend: 0x0, symName: '__ZN4pyo38instance11Py$LT$T$GT$17from_borrowed_ptr17ha466aaa425ca4fccE', symObjAddr: 0x5BC8, symBinAddr: 0x31428, symSize: 0x48 }
  - { offset: 0xD39C5, size: 0x8, addend: 0x0, symName: '__ZN4pyo38instance11Py$LT$T$GT$17from_borrowed_ptr17hab85ef542a840779E', symObjAddr: 0x5C10, symBinAddr: 0x31470, symSize: 0x48 }
  - { offset: 0xD3A0B, size: 0x8, addend: 0x0, symName: '__ZN4pyo38instance11Py$LT$T$GT$17from_borrowed_ptr17he8cbd2384a88ba58E', symObjAddr: 0x5C58, symBinAddr: 0x314B8, symSize: 0x48 }
  - { offset: 0xD3A51, size: 0x8, addend: 0x0, symName: '__ZN4pyo38instance11Py$LT$T$GT$24from_borrowed_ptr_or_opt17h28a1b5684d6ab93dE', symObjAddr: 0x5CD4, symBinAddr: 0x31500, symSize: 0x34 }
  - { offset: 0xD3A97, size: 0x8, addend: 0x0, symName: '__ZN4pyo38instance11Py$LT$T$GT$24from_borrowed_ptr_or_opt17h3a67af39dc31e8c3E', symObjAddr: 0x5D08, symBinAddr: 0x31534, symSize: 0x34 }
  - { offset: 0xD3ADD, size: 0x8, addend: 0x0, symName: '__ZN4pyo38instance11Py$LT$T$GT$24from_borrowed_ptr_or_opt17h8f16df5a7073bedfE', symObjAddr: 0x5D3C, symBinAddr: 0x31568, symSize: 0x34 }
  - { offset: 0xD3B23, size: 0x8, addend: 0x0, symName: '__ZN4pyo38instance11Py$LT$T$GT$24from_borrowed_ptr_or_opt17hb7223ff14bb1574fE', symObjAddr: 0x5D70, symBinAddr: 0x3159C, symSize: 0x34 }
  - { offset: 0xD3B69, size: 0x8, addend: 0x0, symName: '__ZN4pyo38instance11Py$LT$T$GT$24from_borrowed_ptr_or_opt17he12b9b925b8691ecE', symObjAddr: 0x5DA4, symBinAddr: 0x315D0, symSize: 0x34 }
  - { offset: 0xD3BAF, size: 0x8, addend: 0x0, symName: '__ZN4pyo38instance11Py$LT$T$GT$13from_non_null17h821b51413bb00da8E', symObjAddr: 0x6270, symBinAddr: 0x319D8, symSize: 0x14 }
  - { offset: 0xD3BDB, size: 0x8, addend: 0x0, symName: '__ZN4pyo38instance11Py$LT$T$GT$13into_non_null17h3053d96580b68a8bE', symObjAddr: 0x6284, symBinAddr: 0x319EC, symSize: 0x34 }
  - { offset: 0xD3C25, size: 0x8, addend: 0x0, symName: '__ZN4pyo38instance11Py$LT$T$GT$13into_non_null17h46a4566cb50f5284E', symObjAddr: 0x62EC, symBinAddr: 0x31A20, symSize: 0x34 }
  - { offset: 0xD3C7C, size: 0x8, addend: 0x0, symName: __ZN4pyo36marker6Python8with_gil17hd6fa8f0d7c23a222E, symObjAddr: 0x6A10, symBinAddr: 0x31D5C, symSize: 0xDC }
  - { offset: 0xD3CD4, size: 0x8, addend: 0x0, symName: __ZN4pyo36marker6Python8get_type17h0bdbee1d4d215914E, symObjAddr: 0x70E8, symBinAddr: 0x31E38, symSize: 0x1C }
  - { offset: 0xD3D0B, size: 0x8, addend: 0x0, symName: __ZN4pyo36marker6Python8get_type17hf76cf0ecf4d1a881E, symObjAddr: 0x7120, symBinAddr: 0x31E54, symSize: 0x1C }
  - { offset: 0xD3D42, size: 0x8, addend: 0x0, symName: __ZN4pyo36marker6Python4None17h45666fb53aa612e2E, symObjAddr: 0x7188, symBinAddr: 0x31E70, symSize: 0x28 }
  - { offset: 0xD3D7D, size: 0x8, addend: 0x0, symName: __ZN4pyo36marker6Python14from_owned_ptr17h0e4444dc6e0f52feE, symObjAddr: 0x7304, symBinAddr: 0x31E98, symSize: 0x24 }
  - { offset: 0xD3DDD, size: 0x8, addend: 0x0, symName: __ZN4pyo36marker6Python14from_owned_ptr17h190896cf06c81646E, symObjAddr: 0x7370, symBinAddr: 0x31EBC, symSize: 0x24 }
  - { offset: 0xD3E57, size: 0x8, addend: 0x0, symName: __ZN4pyo36marker6Python14from_owned_ptr17hd10b8c6ef4d6d90eE, symObjAddr: 0x7448, symBinAddr: 0x31EE0, symSize: 0x24 }
  - { offset: 0xD3EAA, size: 0x8, addend: 0x0, symName: __ZN4pyo36marker6Python14from_owned_ptr17hf2c0932a68a48d5dE, symObjAddr: 0x7490, symBinAddr: 0x31F04, symSize: 0x24 }
  - { offset: 0xD3EF0, size: 0x8, addend: 0x0, symName: __ZN4pyo36marker6Python21from_owned_ptr_or_err17h4076cd7f989aaff4E, symObjAddr: 0x74FC, symBinAddr: 0x31F28, symSize: 0x24 }
  - { offset: 0xD3F36, size: 0x8, addend: 0x0, symName: __ZN4pyo36marker6Python21from_owned_ptr_or_err17h4729d8baf5c376feE, symObjAddr: 0x7520, symBinAddr: 0x31F4C, symSize: 0x24 }
  - { offset: 0xD3FD7, size: 0x8, addend: 0x0, symName: __ZN4pyo36marker6Python21from_owned_ptr_or_err17hf7d88da41b11dab0E, symObjAddr: 0x76AC, symBinAddr: 0x31F70, symSize: 0x24 }
  - { offset: 0xD402A, size: 0x8, addend: 0x0, symName: __ZN4pyo36marker6Python21from_owned_ptr_or_opt17h9b59f64143819046E, symObjAddr: 0x76F4, symBinAddr: 0x31F94, symSize: 0x24 }
  - { offset: 0xD407D, size: 0x8, addend: 0x0, symName: __ZN4pyo36marker6Python17from_borrowed_ptr17h4ac39787bdef3a27E, symObjAddr: 0x773C, symBinAddr: 0x31FB8, symSize: 0x24 }
  - { offset: 0xD40C3, size: 0x8, addend: 0x0, symName: __ZN4pyo36marker6Python17from_borrowed_ptr17h8f76a8c3cca20043E, symObjAddr: 0x7760, symBinAddr: 0x31FDC, symSize: 0x24 }
  - { offset: 0xD4109, size: 0x8, addend: 0x0, symName: __ZN4pyo36marker6Python17from_borrowed_ptr17haa0e933fed1cab46E, symObjAddr: 0x7784, symBinAddr: 0x32000, symSize: 0x24 }
  - { offset: 0xD415C, size: 0x8, addend: 0x0, symName: __ZN4pyo36marker6Python19assume_gil_acquired17h0c2cd15a9bad2c0bE, symObjAddr: 0x7818, symBinAddr: 0x32024, symSize: 0x4 }
  - { offset: 0xD43B2, size: 0x8, addend: 0x0, symName: '__ZN103_$LT$alloc..vec..into_iter..IntoIter$LT$T$C$A$GT$$u20$as$u20$core..iter..traits..iterator..Iterator$GT$4next17h3b628c636fec09ffE', symObjAddr: 0x0, symBinAddr: 0x322A0, symSize: 0xCC }
  - { offset: 0xD43E0, size: 0x8, addend: 0x0, symName: __ZN4pyo35types6module7__all__8INTERNED17he0718674412244a8E, symObjAddr: 0x6D98, symBinAddr: 0xE44D8, symSize: 0x0 }
  - { offset: 0xD4400, size: 0x8, addend: 0x0, symName: __ZN4pyo35types6module8__name__8INTERNED17hf2f6659156fe0ffbE, symObjAddr: 0x6DB0, symBinAddr: 0xE44F0, symSize: 0x0 }
  - { offset: 0xD45C4, size: 0x8, addend: 0x0, symName: __ZN4pyo35types6module7__all__17h19848e0e0d86db6bE, symObjAddr: 0x4600, symBinAddr: 0x344AC, symSize: 0x24 }
  - { offset: 0xD45FD, size: 0x8, addend: 0x0, symName: __ZN4pyo35types6module8__name__17h7ed5dec1b20dee03E, symObjAddr: 0x4624, symBinAddr: 0x344D0, symSize: 0x24 }
  - { offset: 0xD463B, size: 0x8, addend: 0x0, symName: '__ZN73_$LT$pyo3..types..module..PyModule$u20$as$u20$core..ops..deref..Deref$GT$5deref17hc79ed085482d3d8bE', symObjAddr: 0x54D4, symBinAddr: 0x34528, symSize: 0x14 }
  - { offset: 0xD4742, size: 0x8, addend: 0x0, symName: '__ZN71_$LT$pyo3..types..bytes..PyBytes$u20$as$u20$core..ops..deref..Deref$GT$5deref17h7d48d818ce7cae80E', symObjAddr: 0x4C1C, symBinAddr: 0x34514, symSize: 0x14 }
  - { offset: 0xD47F5, size: 0x8, addend: 0x0, symName: '__ZN97_$LT$pyo3..types..none..PyNone$u20$as$u20$core..convert..AsRef$LT$pyo3..types..any..PyAny$GT$$GT$6as_ref17h8898afcf8e47c1f1E', symObjAddr: 0x58F0, symBinAddr: 0x3453C, symSize: 0x14 }
  - { offset: 0xD4945, size: 0x8, addend: 0x0, symName: __ZN4pyo38instance12PyNativeType2py17h63c53fea93cb71b0E, symObjAddr: 0x2C80, symBinAddr: 0x33D60, symSize: 0x20 }
  - { offset: 0xD4976, size: 0x8, addend: 0x0, symName: __ZN4pyo38instance12PyNativeType18unchecked_downcast17hd895a4765750259cE, symObjAddr: 0x2D28, symBinAddr: 0x33D80, symSize: 0x24 }
  - { offset: 0xD4AB7, size: 0x8, addend: 0x0, symName: __ZN4pyo310conversion13FromPyPointer23from_owned_ptr_or_panic17h9b050489e9d60209E, symObjAddr: 0x2A00, symBinAddr: 0x33B74, symSize: 0x34 }
  - { offset: 0xD4B08, size: 0x8, addend: 0x0, symName: __ZN4pyo310conversion13FromPyPointer14from_owned_ptr17h8f2e5d6f5e99f5f3E, symObjAddr: 0x2A58, symBinAddr: 0x33BA8, symSize: 0x24 }
  - { offset: 0xD4B59, size: 0x8, addend: 0x0, symName: __ZN4pyo310conversion13FromPyPointer21from_owned_ptr_or_err17hdaacd8723e9b4bc3E, symObjAddr: 0x2A7C, symBinAddr: 0x33BCC, symSize: 0x34 }
  - { offset: 0xD4BAA, size: 0x8, addend: 0x0, symName: __ZN4pyo310conversion13FromPyPointer26from_borrowed_ptr_or_panic17h8ffce1ffd5923f91E, symObjAddr: 0x2AB0, symBinAddr: 0x33C00, symSize: 0x34 }
  - { offset: 0xD4BFB, size: 0x8, addend: 0x0, symName: __ZN4pyo310conversion13FromPyPointer17from_borrowed_ptr17hafb734afa5e1192dE, symObjAddr: 0x2AE4, symBinAddr: 0x33C34, symSize: 0x24 }
  - { offset: 0xD4C52, size: 0x8, addend: 0x0, symName: '__ZN53_$LT$T$u20$as$u20$pyo3..conversion..FromPyPointer$GT$21from_owned_ptr_or_opt17h3212b8a5f6369e10E', symObjAddr: 0x2B08, symBinAddr: 0x33C58, symSize: 0x70 }
  - { offset: 0xD4CC0, size: 0x8, addend: 0x0, symName: '__ZN53_$LT$T$u20$as$u20$pyo3..conversion..FromPyPointer$GT$21from_owned_ptr_or_opt17he2f27e079ce02f85E', symObjAddr: 0x2BE8, symBinAddr: 0x33CC8, symSize: 0x70 }
  - { offset: 0xD4D2E, size: 0x8, addend: 0x0, symName: '__ZN53_$LT$T$u20$as$u20$pyo3..conversion..FromPyPointer$GT$24from_borrowed_ptr_or_opt17h94d2642661bcb99cE', symObjAddr: 0x2C58, symBinAddr: 0x33D38, symSize: 0x28 }
  - { offset: 0xD68D8, size: 0x8, addend: 0x0, symName: __ZN4core3ptr13read_volatile18precondition_check17h1502ee40df6c52a6E, symObjAddr: 0x13F0, symBinAddr: 0x32C68, symSize: 0x104 }
  - { offset: 0xD69F5, size: 0x8, addend: 0x0, symName: __ZN4core3ptr14read_unaligned17h01c0835af2e21d5eE, symObjAddr: 0x14F4, symBinAddr: 0x32D6C, symSize: 0x8C }
  - { offset: 0xD6AC9, size: 0x8, addend: 0x0, symName: __ZN4core3ptr15write_unaligned17hc6482e4abafe6637E, symObjAddr: 0x1580, symBinAddr: 0x32DF8, symSize: 0x70 }
  - { offset: 0xD6D49, size: 0x8, addend: 0x0, symName: __ZN4core3ptr19swap_nonoverlapping17hd17692b3924d1464E, symObjAddr: 0x1740, symBinAddr: 0x32E68, symSize: 0x1E4 }
  - { offset: 0xD7218, size: 0x8, addend: 0x0, symName: __ZN4core3ptr19swap_nonoverlapping18precondition_check17h4749576ab2154e52E, symObjAddr: 0x1924, symBinAddr: 0x3304C, symSize: 0x314 }
  - { offset: 0xD74CF, size: 0x8, addend: 0x0, symName: __ZN4core3ptr5write17h9d31982cfef10268E, symObjAddr: 0x1C50, symBinAddr: 0x33360, symSize: 0x1C }
  - { offset: 0xD7516, size: 0x8, addend: 0x0, symName: __ZN4core3ptr7replace18precondition_check17hbd207348a82fabe8E, symObjAddr: 0x1C6C, symBinAddr: 0x3337C, symSize: 0x104 }
  - { offset: 0xD7956, size: 0x8, addend: 0x0, symName: '__ZN42_$LT$$RF$T$u20$as$u20$core..fmt..Debug$GT$3fmt17h943e8fdb5ad7f6e3E', symObjAddr: 0x9C8, symBinAddr: 0x32AA0, symSize: 0x30 }
  - { offset: 0xD7AB0, size: 0x8, addend: 0x0, symName: '__ZN50_$LT$$BP$mut$u20$T$u20$as$u20$core..fmt..Debug$GT$3fmt17h4e26672f69c77af1E', symObjAddr: 0x1FDC, symBinAddr: 0x336CC, symSize: 0x40 }
  - { offset: 0xD7B71, size: 0x8, addend: 0x0, symName: '__ZN4core3cmp5impls54_$LT$impl$u20$core..cmp..PartialEq$u20$for$u20$u64$GT$2eq17h3a5e97245c35f5f0E', symObjAddr: 0xAEC, symBinAddr: 0x32B60, symSize: 0x2C }
  - { offset: 0xD7BB4, size: 0x8, addend: 0x0, symName: '__ZN4core3cmp5impls50_$LT$impl$u20$core..cmp..Ord$u20$for$u20$usize$GT$3cmp17hcad243231337f561E', symObjAddr: 0xA30, symBinAddr: 0x32AD0, symSize: 0x38 }
  - { offset: 0xD7BF7, size: 0x8, addend: 0x0, symName: '__ZN4core3cmp5impls54_$LT$impl$u20$core..cmp..PartialEq$u20$for$u20$i32$GT$2ne17h26a1a9c1d9b248faE', symObjAddr: 0xA68, symBinAddr: 0x32B08, symSize: 0x2C }
  - { offset: 0xD7C3A, size: 0x8, addend: 0x0, symName: '__ZN4core3cmp5impls54_$LT$impl$u20$core..cmp..PartialEq$u20$for$u20$i64$GT$2ne17h62f21927dacdc888E', symObjAddr: 0xAC0, symBinAddr: 0x32B34, symSize: 0x2C }
  - { offset: 0xD7D01, size: 0x8, addend: 0x0, symName: '__ZN4core3cmp5impls69_$LT$impl$u20$core..cmp..PartialEq$LT$$RF$B$GT$$u20$for$u20$$RF$A$GT$2eq17he1853d6128828ccfE', symObjAddr: 0xBE8, symBinAddr: 0x32B8C, symSize: 0x44 }
  - { offset: 0xD7E61, size: 0x8, addend: 0x0, symName: '__ZN4core3num23_$LT$impl$u20$isize$GT$13unchecked_neg18precondition_check17h3d52b4a18f8972e8E', symObjAddr: 0x12B4, symBinAddr: 0x32BD0, symSize: 0x4C }
  - { offset: 0xD7F16, size: 0x8, addend: 0x0, symName: '__ZN4core3num23_$LT$impl$u20$usize$GT$13unchecked_add18precondition_check17hc241d625177a20a4E', symObjAddr: 0x1374, symBinAddr: 0x32C1C, symSize: 0x4C }
  - { offset: 0xD88E1, size: 0x8, addend: 0x0, symName: __ZN4core4iter6traits10exact_size17ExactSizeIterator3len17h5188011015f18919E, symObjAddr: 0x1D90, symBinAddr: 0x33480, symSize: 0xC4 }
  - { offset: 0xD89D3, size: 0x8, addend: 0x0, symName: __ZN4core4iter6traits10exact_size17ExactSizeIterator3len17h5400d5591a8c4c61E, symObjAddr: 0x1E54, symBinAddr: 0x33544, symSize: 0xC4 }
  - { offset: 0xD8AC5, size: 0x8, addend: 0x0, symName: __ZN4core4iter6traits10exact_size17ExactSizeIterator3len17hdb804cc5b08c76e4E, symObjAddr: 0x1F18, symBinAddr: 0x33608, symSize: 0xC4 }
  - { offset: 0xD8C3A, size: 0x8, addend: 0x0, symName: '__ZN50_$LT$T$u20$as$u20$core..convert..Into$LT$U$GT$$GT$4into17h43de472674d4feeeE', symObjAddr: 0x2040, symBinAddr: 0x3370C, symSize: 0x24 }
  - { offset: 0xD98E6, size: 0x8, addend: 0x0, symName: __ZN3std3sys12thread_local6native5eager7destroy17hd4c807c352178aaaE, symObjAddr: 0x928, symBinAddr: 0x32A00, symSize: 0x30 }
  - { offset: 0xD991C, size: 0x8, addend: 0x0, symName: '__ZN3std3sys12thread_local6native5eager7destroy28_$u7b$$u7b$closure$u7d$$u7d$17hed6cfed8b0d1e40aE', symObjAddr: 0x958, symBinAddr: 0x32A30, symSize: 0x70 }
  - { offset: 0xD9B2A, size: 0x8, addend: 0x0, symName: '__ZN103_$LT$alloc..vec..into_iter..IntoIter$LT$T$C$A$GT$$u20$as$u20$core..iter..traits..iterator..Iterator$GT$4next17h3b628c636fec09ffE', symObjAddr: 0x0, symBinAddr: 0x322A0, symSize: 0xCC }
  - { offset: 0xD9CDD, size: 0x8, addend: 0x0, symName: '__ZN103_$LT$alloc..vec..into_iter..IntoIter$LT$T$C$A$GT$$u20$as$u20$core..iter..traits..iterator..Iterator$GT$4next17hd6f4b825d57f306eE', symObjAddr: 0xCC, symBinAddr: 0x3236C, symSize: 0xC0 }
  - { offset: 0xD9E90, size: 0x8, addend: 0x0, symName: '__ZN103_$LT$alloc..vec..into_iter..IntoIter$LT$T$C$A$GT$$u20$as$u20$core..iter..traits..iterator..Iterator$GT$4next17hde63d064d3d6b42eE', symObjAddr: 0x18C, symBinAddr: 0x3242C, symSize: 0xE4 }
  - { offset: 0xDA046, size: 0x8, addend: 0x0, symName: '__ZN103_$LT$alloc..vec..into_iter..IntoIter$LT$T$C$A$GT$$u20$as$u20$core..iter..traits..iterator..Iterator$GT$9size_hint17h0b53faa9ece7a92aE', symObjAddr: 0x270, symBinAddr: 0x32510, symSize: 0xB8 }
  - { offset: 0xDA117, size: 0x8, addend: 0x0, symName: '__ZN103_$LT$alloc..vec..into_iter..IntoIter$LT$T$C$A$GT$$u20$as$u20$core..iter..traits..iterator..Iterator$GT$9size_hint17h1ec1e40e7b208e1fE', symObjAddr: 0x328, symBinAddr: 0x325C8, symSize: 0xB8 }
  - { offset: 0xDA1E8, size: 0x8, addend: 0x0, symName: '__ZN103_$LT$alloc..vec..into_iter..IntoIter$LT$T$C$A$GT$$u20$as$u20$core..iter..traits..iterator..Iterator$GT$9size_hint17h9af6740d8dcd0f63E', symObjAddr: 0x3E0, symBinAddr: 0x32680, symSize: 0xB8 }
  - { offset: 0xDA2C9, size: 0x8, addend: 0x0, symName: '__ZN157_$LT$$LT$alloc..vec..into_iter..IntoIter$LT$T$C$A$GT$$u20$as$u20$core..ops..drop..Drop$GT$..drop..DropGuard$LT$T$C$A$GT$$u20$as$u20$core..ops..drop..Drop$GT$4drop17h286bf511dbd45e94E', symObjAddr: 0x4BC, symBinAddr: 0x3275C, symSize: 0x88 }
  - { offset: 0xDA3D6, size: 0x8, addend: 0x0, symName: '__ZN157_$LT$$LT$alloc..vec..into_iter..IntoIter$LT$T$C$A$GT$$u20$as$u20$core..ops..drop..Drop$GT$..drop..DropGuard$LT$T$C$A$GT$$u20$as$u20$core..ops..drop..Drop$GT$4drop17h43ba1c35d5e55d41E', symObjAddr: 0x544, symBinAddr: 0x327E4, symSize: 0x88 }
  - { offset: 0xDA4E3, size: 0x8, addend: 0x0, symName: '__ZN157_$LT$$LT$alloc..vec..into_iter..IntoIter$LT$T$C$A$GT$$u20$as$u20$core..ops..drop..Drop$GT$..drop..DropGuard$LT$T$C$A$GT$$u20$as$u20$core..ops..drop..Drop$GT$4drop17h5d260cc9bf84b2e2E', symObjAddr: 0x5CC, symBinAddr: 0x3286C, symSize: 0x88 }
  - { offset: 0xDA667, size: 0x8, addend: 0x0, symName: '__ZN86_$LT$alloc..vec..into_iter..IntoIter$LT$T$C$A$GT$$u20$as$u20$core..ops..drop..Drop$GT$4drop17h7e760bc79f1af996E', symObjAddr: 0x2284, symBinAddr: 0x3377C, symSize: 0x98 }
  - { offset: 0xDA701, size: 0x8, addend: 0x0, symName: '__ZN86_$LT$alloc..vec..into_iter..IntoIter$LT$T$C$A$GT$$u20$as$u20$core..ops..drop..Drop$GT$4drop17h91ddcdf52a328a80E', symObjAddr: 0x231C, symBinAddr: 0x33814, symSize: 0x8C }
  - { offset: 0xDA79B, size: 0x8, addend: 0x0, symName: '__ZN86_$LT$alloc..vec..into_iter..IntoIter$LT$T$C$A$GT$$u20$as$u20$core..ops..drop..Drop$GT$4drop17hfc77aaccca6ff12cE', symObjAddr: 0x23A8, symBinAddr: 0x338A0, symSize: 0x98 }
  - { offset: 0xDAE7C, size: 0x8, addend: 0x0, symName: __ZN11parking_lot4util11unreachable17h36f8c9414cc99664E, symObjAddr: 0x498, symBinAddr: 0x32738, symSize: 0x24 }
  - { offset: 0xDB195, size: 0x8, addend: 0x0, symName: __ZN15portable_atomic3imp11core_atomic9AtomicI6416compare_exchange17hbdaf3333b85ac559E, symObjAddr: 0x654, symBinAddr: 0x328F4, symSize: 0x74 }
  - { offset: 0xDB30A, size: 0x8, addend: 0x0, symName: '__ZN3std3sys12thread_local6native5eager16Storage$LT$T$GT$10initialize17h86108e8eddbac3acE', symObjAddr: 0x80C, symBinAddr: 0x94980, symSize: 0x84 }
  - { offset: 0xDB43C, size: 0x8, addend: 0x0, symName: '__ZN3std3sys12thread_local6native5eager16Storage$LT$T$GT$3get17h6073ae3af799b6ecE', symObjAddr: 0x890, symBinAddr: 0x32968, symSize: 0x98 }
  - { offset: 0xDB827, size: 0x8, addend: 0x0, symName: '__ZN82_$LT$lock_api..mutex..MutexGuard$LT$R$C$T$GT$$u20$as$u20$core..ops..drop..Drop$GT$4drop17hca0cfc341f3d4ac1E', symObjAddr: 0x2238, symBinAddr: 0x33730, symSize: 0x28 }
  - { offset: 0xDB869, size: 0x8, addend: 0x0, symName: '__ZN84_$LT$lock_api..mutex..MutexGuard$LT$R$C$T$GT$$u20$as$u20$core..ops..deref..Deref$GT$5deref17h552db7825ab13146E', symObjAddr: 0x2260, symBinAddr: 0x33758, symSize: 0x24 }
  - { offset: 0xDB8AF, size: 0x8, addend: 0x0, symName: '__ZN87_$LT$lock_api..mutex..MutexGuard$LT$R$C$T$GT$$u20$as$u20$core..ops..deref..DerefMut$GT$9deref_mut17h492ee06a0b3e10b8E', symObjAddr: 0x2440, symBinAddr: 0x33938, symSize: 0x24 }
  - { offset: 0xDBBA6, size: 0x8, addend: 0x0, symName: '__ZN8lock_api5mutex18Mutex$LT$R$C$T$GT$20make_guard_unchecked17hd00d6e76bf3a174aE', symObjAddr: 0x2464, symBinAddr: 0x3395C, symSize: 0x14 }
  - { offset: 0xDBBDA, size: 0x8, addend: 0x0, symName: '__ZN8lock_api5mutex18Mutex$LT$R$C$T$GT$4lock17h941255efdeff0601E', symObjAddr: 0x2478, symBinAddr: 0x33970, symSize: 0x30 }
  - { offset: 0xDBC0E, size: 0x8, addend: 0x0, symName: __ZN9hashbrown3raw4neon5Group10match_byte17h8ee4e56fcc5b3e15E, symObjAddr: 0x24DC, symBinAddr: 0x339A0, symSize: 0x7C }
  - { offset: 0xDBC5C, size: 0x8, addend: 0x0, symName: __ZN9hashbrown3raw4neon5Group10match_full17hc4ab49bb185b71b8E, symObjAddr: 0x2558, symBinAddr: 0x33A1C, symSize: 0x68 }
  - { offset: 0xDBC94, size: 0x8, addend: 0x0, symName: __ZN9hashbrown3raw4neon5Group22match_empty_or_deleted17h70c8fbe45cde8688E, symObjAddr: 0x25C0, symBinAddr: 0x33A84, symSize: 0x68 }
  - { offset: 0xDBCCC, size: 0x8, addend: 0x0, symName: __ZN9hashbrown3raw4neon5Group44convert_special_to_empty_and_full_to_deleted17h76c0a8b64462b52cE, symObjAddr: 0x2628, symBinAddr: 0x33AEC, symSize: 0x88 }
  - { offset: 0xDBD49, size: 0x8, addend: 0x0, symName: __ZN4pyo35types5bytes7PyBytes8as_bytes17h4b2050a0555483cbE, symObjAddr: 0x2E0C, symBinAddr: 0x33DA4, symSize: 0x90 }
  - { offset: 0xDBDBD, size: 0x8, addend: 0x0, symName: __ZN4pyo35types6module8PyModule6import17hdc4ab034110b5833E, symObjAddr: 0x3318, symBinAddr: 0x33E34, symSize: 0x88 }
  - { offset: 0xDBE2F, size: 0x8, addend: 0x0, symName: __ZN4pyo35types6module8PyModule5index17h25061deddc248b1bE, symObjAddr: 0x398C, symBinAddr: 0x33EBC, symSize: 0x244 }
  - { offset: 0xDBECD, size: 0x8, addend: 0x0, symName: __ZN4pyo35types6module8PyModule4name17hc8585f930959b48dE, symObjAddr: 0x3BD0, symBinAddr: 0x34100, symSize: 0xD4 }
  - { offset: 0xDBF36, size: 0x8, addend: 0x0, symName: __ZN4pyo35types6module8PyModule3add17h49a55b0f746684d6E, symObjAddr: 0x3F10, symBinAddr: 0x341D4, symSize: 0x1A8 }
  - { offset: 0xDBF9C, size: 0x8, addend: 0x0, symName: __ZN4pyo35types6module8PyModule12add_function17h569c72cf3b6e88fbE, symObjAddr: 0x44D0, symBinAddr: 0x3437C, symSize: 0x130 }
  - { offset: 0xDC037, size: 0x8, addend: 0x0, symName: __ZN4pyo35types4none6PyNone3get17hc99b621559337151E, symObjAddr: 0x4648, symBinAddr: 0x344F4, symSize: 0x20 }
  - { offset: 0xDC2B0, size: 0x8, addend: 0x0, symName: '__ZN76_$LT$alloc..string..String$u20$as$u20$core..convert..From$LT$$RF$str$GT$$GT$4from17h1c1060ee71643acbE', symObjAddr: 0x2000, symBinAddr: 0x35C24, symSize: 0x50 }
  - { offset: 0xDC3C3, size: 0x8, addend: 0x0, symName: '__ZN51_$LT$$RF$str$u20$as$u20$alloc..string..ToString$GT$9to_string17hc258d423dddd5ab5E', symObjAddr: 0xD50, symBinAddr: 0x34B24, symSize: 0x5C }
  - { offset: 0xDC4F4, size: 0x8, addend: 0x0, symName: '__ZN58_$LT$alloc..string..String$u20$as$u20$core..fmt..Write$GT$10write_char17h5ccf16213f688c9dE', symObjAddr: 0xDD4, symBinAddr: 0x34B80, symSize: 0x30 }
  - { offset: 0xDC531, size: 0x8, addend: 0x0, symName: '__ZN58_$LT$alloc..string..String$u20$as$u20$core..fmt..Write$GT$9write_str17h4eb49f3d52e30d01E', symObjAddr: 0xE04, symBinAddr: 0x34BB0, symSize: 0x38 }
  - { offset: 0xDC592, size: 0x8, addend: 0x0, symName: '__ZN65_$LT$alloc..string..String$u20$as$u20$core..ops..deref..Deref$GT$5deref17hc1833ec631455fb1E', symObjAddr: 0x1350, symBinAddr: 0x34FA8, symSize: 0x24 }
  - { offset: 0xDC5C6, size: 0x8, addend: 0x0, symName: '__ZN60_$LT$alloc..string..String$u20$as$u20$core..fmt..Display$GT$3fmt17h4cefa6d79375c6dfE', symObjAddr: 0x1260, symBinAddr: 0x34F10, symSize: 0x98 }
  - { offset: 0xDC7A5, size: 0x8, addend: 0x0, symName: '__ZN74_$LT$alloc..string..String$u20$as$u20$core..ops..index..Index$LT$I$GT$$GT$5index17h2dfbd8c31360e9b3E', symObjAddr: 0x1DDC, symBinAddr: 0x35A00, symSize: 0x94 }
  - { offset: 0xDCCBA, size: 0x8, addend: 0x0, symName: '__ZN5alloc3str83_$LT$impl$u20$core..borrow..Borrow$LT$str$GT$$u20$for$u20$alloc..string..String$GT$6borrow17h0e1cf4dec6e6dbe1E', symObjAddr: 0xE3C, symBinAddr: 0x34BE8, symSize: 0x2C }
  - { offset: 0xDCE9F, size: 0x8, addend: 0x0, symName: '__ZN66_$LT$T$u20$as$u20$alloc..ffi..c_str..CString..new..SpecNewImpl$GT$13spec_new_impl17hd6ed23fe7e74e188E', symObjAddr: 0x1374, symBinAddr: 0x34FCC, symSize: 0x190 }
  - { offset: 0xDE45F, size: 0x8, addend: 0x0, symName: '__ZN4core4iter6traits8iterator8Iterator12try_for_each4call28_$u7b$$u7b$closure$u7d$$u7d$17hcadeff46eee1e0b6E', symObjAddr: 0x6E0, symBinAddr: 0x34888, symSize: 0x48 }
  - { offset: 0xDE4D0, size: 0x8, addend: 0x0, symName: '__ZN4core4iter6traits8iterator8Iterator8find_map5check28_$u7b$$u7b$closure$u7d$$u7d$17h200714af588aeb4dE', symObjAddr: 0x728, symBinAddr: 0x348D0, symSize: 0x7C }
  - { offset: 0xDE553, size: 0x8, addend: 0x0, symName: '__ZN4core4iter6traits8iterator8Iterator8find_map5check28_$u7b$$u7b$closure$u7d$$u7d$17h4537f88d4e856ee1E', symObjAddr: 0x7A4, symBinAddr: 0x3494C, symSize: 0x7C }
  - { offset: 0xDEAB9, size: 0x8, addend: 0x0, symName: __ZN4core3fmt5Write9write_fmt17h5ce38020a99e4e00E, symObjAddr: 0x3D4, symBinAddr: 0x345A8, symSize: 0x24 }
  - { offset: 0xDEB07, size: 0x8, addend: 0x0, symName: '__ZN75_$LT$$RF$mut$u20$W$u20$as$u20$core..fmt..Write..write_fmt..SpecWriteFmt$GT$14spec_write_fmt17ha7ec5928a83962fdE', symObjAddr: 0x1E70, symBinAddr: 0x35A94, symSize: 0x190 }
  - { offset: 0xDECDB, size: 0x8, addend: 0x0, symName: '__ZN36_$LT$T$u20$as$u20$core..any..Any$GT$7type_id17ha6adb3007d6b15b1E', symObjAddr: 0xEC, symBinAddr: 0x34550, symSize: 0x58 }
  - { offset: 0xDEEC4, size: 0x8, addend: 0x0, symName: __ZN4core4hash3sip9u8to64_le17h1ac8ee39b9af1ea0E, symObjAddr: 0x4B0, symBinAddr: 0x34658, symSize: 0x230 }
  - { offset: 0xDF0A6, size: 0x8, addend: 0x0, symName: '__ZN69_$LT$core..hash..sip..Sip13Rounds$u20$as$u20$core..hash..sip..Sip$GT$8c_rounds17h3155b891b6dacdaaE', symObjAddr: 0x1504, symBinAddr: 0x3515C, symSize: 0x170 }
  - { offset: 0xDF21C, size: 0x8, addend: 0x0, symName: '__ZN69_$LT$core..hash..sip..Sip13Rounds$u20$as$u20$core..hash..sip..Sip$GT$8d_rounds17h295320041c4fff8cE', symObjAddr: 0x1674, symBinAddr: 0x352CC, symSize: 0x408 }
  - { offset: 0xDF654, size: 0x8, addend: 0x0, symName: '__ZN71_$LT$core..hash..sip..Hasher$LT$S$GT$$u20$as$u20$core..hash..Hasher$GT$5write17hd9c83566ea16bed8E', symObjAddr: 0x1A7C, symBinAddr: 0x356D4, symSize: 0x230 }
  - { offset: 0xDF7F1, size: 0x8, addend: 0x0, symName: '__ZN71_$LT$core..hash..sip..Hasher$LT$S$GT$$u20$as$u20$core..hash..Hasher$GT$6finish17h14d71bba93058c04E', symObjAddr: 0x1CAC, symBinAddr: 0x35904, symSize: 0xA0 }
  - { offset: 0xDF864, size: 0x8, addend: 0x0, symName: '__ZN71_$LT$core..hash..sip..Hasher$LT$S$GT$$u20$as$u20$core..hash..Hasher$GT$9write_str17hd82e5efc8a452defE', symObjAddr: 0x1D4C, symBinAddr: 0x359A4, symSize: 0x5C }
  - { offset: 0xDF9E7, size: 0x8, addend: 0x0, symName: '__ZN4core5slice29_$LT$impl$u20$$u5b$T$u5d$$GT$4iter17h15d15f1b66073b4cE', symObjAddr: 0x8D8, symBinAddr: 0x349C8, symSize: 0x28 }
  - { offset: 0xDFA1E, size: 0x8, addend: 0x0, symName: '__ZN4core5slice29_$LT$impl$u20$$u5b$T$u5d$$GT$8is_empty17h76b52f2987433717E', symObjAddr: 0x928, symBinAddr: 0x349F0, symSize: 0x1C }
  - { offset: 0xDFD15, size: 0x8, addend: 0x0, symName: '__ZN4core7convert3num67_$LT$impl$u20$core..convert..TryFrom$LT$u64$GT$$u20$for$u20$u32$GT$8try_from17hcec37c9df0090159E', symObjAddr: 0xC14, symBinAddr: 0x34A0C, symSize: 0x5C }
  - { offset: 0xDFD47, size: 0x8, addend: 0x0, symName: '__ZN4core7convert3num71_$LT$impl$u20$core..convert..TryFrom$LT$usize$GT$$u20$for$u20$isize$GT$8try_from17h55b583aae44a0b50E', symObjAddr: 0xC70, symBinAddr: 0x34A68, symSize: 0x5C }
  - { offset: 0xDFD7A, size: 0x8, addend: 0x0, symName: '__ZN50_$LT$T$u20$as$u20$core..convert..Into$LT$U$GT$$GT$4into17h78ca567c70a9ffb5E', symObjAddr: 0xD3C, symBinAddr: 0x34B10, symSize: 0x14 }
  - { offset: 0xDFDD6, size: 0x8, addend: 0x0, symName: __ZN4core9core_arch10arm_shared4neon13vget_lane_u6417h48e49c290e815852E, symObjAddr: 0xCCC, symBinAddr: 0x34AC4, symSize: 0x18 }
  - { offset: 0xDFE50, size: 0x8, addend: 0x0, symName: __ZN4core9core_arch10arm_shared4neon9vdup_n_u817h52d00fd08f45868eE, symObjAddr: 0xCE4, symBinAddr: 0x34ADC, symSize: 0x34 }
  - { offset: 0xE0321, size: 0x8, addend: 0x0, symName: '__ZN4pyo311conversions3std6string62_$LT$impl$u20$pyo3..conversion..ToPyObject$u20$for$u20$str$GT$9to_object17he111944f428e1c4cE', symObjAddr: 0x3DEC, symBinAddr: 0x35E0C, symSize: 0x34 }
  - { offset: 0xE036B, size: 0x8, addend: 0x0, symName: '__ZN4pyo311conversions3std6string119_$LT$impl$u20$pyo3..conversion..IntoPy$LT$pyo3..instance..Py$LT$pyo3..types..any..PyAny$GT$$GT$$u20$for$u20$$RF$str$GT$7into_py17h0a8f74317ea3eb1dE', symObjAddr: 0x3E20, symBinAddr: 0x35E40, symSize: 0x34 }
  - { offset: 0xE03B5, size: 0x8, addend: 0x0, symName: '__ZN4pyo311conversions3std6string125_$LT$impl$u20$pyo3..conversion..IntoPy$LT$pyo3..instance..Py$LT$pyo3..types..string..PyString$GT$$GT$$u20$for$u20$$RF$str$GT$7into_py17h25c488256d119598E', symObjAddr: 0x3E54, symBinAddr: 0x35E74, symSize: 0x34 }
  - { offset: 0xE03FF, size: 0x8, addend: 0x0, symName: '__ZN4pyo311conversions3std6string80_$LT$impl$u20$pyo3..conversion..ToPyObject$u20$for$u20$alloc..string..String$GT$9to_object17h90514b1c9191e736E', symObjAddr: 0x3E88, symBinAddr: 0x35EA8, symSize: 0x34 }
  - { offset: 0xE0449, size: 0x8, addend: 0x0, symName: '__ZN4pyo311conversions3std6string133_$LT$impl$u20$pyo3..conversion..IntoPy$LT$pyo3..instance..Py$LT$pyo3..types..any..PyAny$GT$$GT$$u20$for$u20$alloc..string..String$GT$7into_py17h5b8b46c9bdbd93bcE', symObjAddr: 0x3F24, symBinAddr: 0x35EDC, symSize: 0x8C }
  - { offset: 0xE0494, size: 0x8, addend: 0x0, symName: '__ZN4pyo311conversions3std6string68_$LT$impl$u20$pyo3..conversion..FromPyObject$u20$for$u20$$RF$str$GT$7extract17h65351a06bd2d7e6bE', symObjAddr: 0x3FB0, symBinAddr: 0x35F68, symSize: 0x90 }
  - { offset: 0xE079F, size: 0x8, addend: 0x0, symName: __ZN4pyo35types5tuple16array_into_tuple17h95581fb9aa0d5b17E, symObjAddr: 0x4F48, symBinAddr: 0x36130, symSize: 0x1E8 }
  - { offset: 0xE0859, size: 0x8, addend: 0x0, symName: '__ZN71_$LT$pyo3..types..tuple..PyTuple$u20$as$u20$core..ops..deref..Deref$GT$5deref17he92e54807de70953E', symObjAddr: 0x663C, symBinAddr: 0x36318, symSize: 0x14 }
  - { offset: 0xE088B, size: 0x8, addend: 0x0, symName: '__ZN4pyo35types5tuple125_$LT$impl$u20$pyo3..conversion..IntoPy$LT$pyo3..instance..Py$LT$pyo3..types..any..PyAny$GT$$GT$$u20$for$u20$$LP$T0$C$$RP$$GT$7into_py17h3b5fca137208c89eE', symObjAddr: 0x6DE8, symBinAddr: 0x3632C, symSize: 0x48 }
  - { offset: 0xE08DC, size: 0x8, addend: 0x0, symName: '__ZN4pyo35types5tuple125_$LT$impl$u20$pyo3..conversion..IntoPy$LT$pyo3..instance..Py$LT$pyo3..types..any..PyAny$GT$$GT$$u20$for$u20$$LP$T0$C$$RP$$GT$7into_py17hf4a97343021e272cE', symObjAddr: 0x6E30, symBinAddr: 0x36374, symSize: 0x54 }
  - { offset: 0xE0A77, size: 0x8, addend: 0x0, symName: '__ZN58_$LT$T$u20$as$u20$pyo3..err..err_state..PyErrArguments$GT$9arguments17h5892d35ebf022f06E', symObjAddr: 0x428C, symBinAddr: 0x35FF8, symSize: 0x1C }
  - { offset: 0xE0AC5, size: 0x8, addend: 0x0, symName: '__ZN58_$LT$T$u20$as$u20$pyo3..err..err_state..PyErrArguments$GT$9arguments17h6832c4563b377ff0E', symObjAddr: 0x42A8, symBinAddr: 0x36014, symSize: 0x1C }
  - { offset: 0xE11D6, size: 0x8, addend: 0x0, symName: __ZN8pyo3_ffi7cpython11tupleobject16PyTuple_GET_ITEM17h0774dd595025f96bE, symObjAddr: 0x240C, symBinAddr: 0x35CA4, symSize: 0x9C }
  - { offset: 0xE1235, size: 0x8, addend: 0x0, symName: __ZN8pyo3_ffi7cpython11tupleobject16PyTuple_GET_SIZE17h4cef1139415fe4e5E, symObjAddr: 0x24A8, symBinAddr: 0x35D40, symSize: 0x24 }
  - { offset: 0xE1261, size: 0x8, addend: 0x0, symName: __ZN8pyo3_ffi7cpython11tupleobject16PyTuple_SET_ITEM17h5988d73a7ed3c7a7E, symObjAddr: 0x24CC, symBinAddr: 0x35D64, symSize: 0xA8 }
  - { offset: 0xE149B, size: 0x8, addend: 0x0, symName: __ZN8pyo3_ffi13unicodeobject15PyUnicode_Check17h645e9349d0711ee8E, symObjAddr: 0x22FC, symBinAddr: 0x35C74, symSize: 0x30 }
  - { offset: 0xE1A59, size: 0x8, addend: 0x0, symName: '__ZN4core4hash3sip15Hasher$LT$S$GT$5reset17h883b09f6d9476161E', symObjAddr: 0x424, symBinAddr: 0x345CC, symSize: 0x8C }
  - { offset: 0xE1D43, size: 0x8, addend: 0x0, symName: __ZN5alloc6string6String4push17hb3f5792a76fef8deE, symObjAddr: 0xF40, symBinAddr: 0x34C14, symSize: 0x190 }
  - { offset: 0xE223F, size: 0x8, addend: 0x0, symName: __ZN5alloc6string6String6as_str17h430d9b6d695e660aE, symObjAddr: 0x10D0, symBinAddr: 0x34DA4, symSize: 0x88 }
  - { offset: 0xE24AF, size: 0x8, addend: 0x0, symName: __ZN5alloc6string6String8push_str17h995897fe8cf7041bE, symObjAddr: 0x117C, symBinAddr: 0x34E2C, symSize: 0xE4 }
  - { offset: 0xE2CF0, size: 0x8, addend: 0x0, symName: __ZN4pyo35types5tuple7PyTuple3len17ha7070e1b42ef30fbE, symObjAddr: 0x4AF4, symBinAddr: 0x36030, symSize: 0x30 }
  - { offset: 0xE2D74, size: 0x8, addend: 0x0, symName: __ZN4pyo35types5tuple7PyTuple18get_item_unchecked17ha50c46ad577bee85E, symObjAddr: 0x4C58, symBinAddr: 0x36060, symSize: 0x5C }
  - { offset: 0xE2DE8, size: 0x8, addend: 0x0, symName: __ZN4pyo35types5tuple7PyTuple4iter17h660af846fa4bdeb3E, symObjAddr: 0x4D1C, symBinAddr: 0x360BC, symSize: 0x40 }
  - { offset: 0xE2E24, size: 0x8, addend: 0x0, symName: __ZN4pyo35types5tuple15PyTupleIterator8get_item17hf0d8fc1609951c4fE, symObjAddr: 0x4DAC, symBinAddr: 0x360FC, symSize: 0x34 }
  - { offset: 0xE2FB0, size: 0x8, addend: 0x0, symName: '__ZN102_$LT$$RF$mut$u20$alloc..vec..Vec$LT$T$C$A$GT$$u20$as$u20$core..iter..traits..collect..IntoIterator$GT$9into_iter17h914b5b0a43a2b287E', symObjAddr: 0x0, symBinAddr: 0x363C8, symSize: 0xB4 }
  - { offset: 0xE3022, size: 0x8, addend: 0x0, symName: '__ZN5alloc6string104_$LT$impl$u20$core..convert..From$LT$alloc..string..String$GT$$u20$for$u20$alloc..vec..Vec$LT$u8$GT$$GT$4from17h7fca9f0862633f0cE', symObjAddr: 0x2F24, symBinAddr: 0x38D2C, symSize: 0x18 }
  - { offset: 0xE3268, size: 0x8, addend: 0x0, symName: '__ZN102_$LT$$RF$mut$u20$alloc..vec..Vec$LT$T$C$A$GT$$u20$as$u20$core..iter..traits..collect..IntoIterator$GT$9into_iter17h914b5b0a43a2b287E', symObjAddr: 0x0, symBinAddr: 0x363C8, symSize: 0xB4 }
  - { offset: 0xE3754, size: 0x8, addend: 0x0, symName: '__ZN111_$LT$alloc..vec..Vec$LT$T$GT$$u20$as$u20$alloc..vec..spec_from_iter_nested..SpecFromIterNested$LT$T$C$I$GT$$GT$9from_iter17h335df7f85a8afe57E', symObjAddr: 0xB4, symBinAddr: 0x3647C, symSize: 0x250 }
  - { offset: 0xE3A66, size: 0x8, addend: 0x0, symName: '__ZN111_$LT$alloc..vec..Vec$LT$T$GT$$u20$as$u20$alloc..vec..spec_from_iter_nested..SpecFromIterNested$LT$T$C$I$GT$$GT$9from_iter17h74b4fffcc7db5ab7E', symObjAddr: 0x304, symBinAddr: 0x366CC, symSize: 0x25C }
  - { offset: 0xE3D7A, size: 0x8, addend: 0x0, symName: '__ZN111_$LT$alloc..vec..Vec$LT$T$GT$$u20$as$u20$alloc..vec..spec_from_iter_nested..SpecFromIterNested$LT$T$C$I$GT$$GT$9from_iter17h932b0a988668c7a8E', symObjAddr: 0x560, symBinAddr: 0x36928, symSize: 0x25C }
  - { offset: 0xE449F, size: 0x8, addend: 0x0, symName: '__ZN112_$LT$alloc..vec..Vec$LT$T$C$A$GT$..retain_mut..BackshiftOnDrop$LT$T$C$A$GT$$u20$as$u20$core..ops..drop..Drop$GT$4drop17h5c668b883995c2abE', symObjAddr: 0x7BC, symBinAddr: 0x36B84, symSize: 0x164 }
  - { offset: 0xE4709, size: 0x8, addend: 0x0, symName: '__ZN5alloc3vec16Vec$LT$T$C$A$GT$10retain_mut12process_loop17h01631f27c40933fcE', symObjAddr: 0x1218, symBinAddr: 0x37120, symSize: 0x1AC }
  - { offset: 0xE49C3, size: 0x8, addend: 0x0, symName: '__ZN5alloc3vec16Vec$LT$T$C$A$GT$10retain_mut12process_loop17hf73bc07a9202d1a0E', symObjAddr: 0x13C4, symBinAddr: 0x372CC, symSize: 0xE4 }
  - { offset: 0xE4BD9, size: 0x8, addend: 0x0, symName: '__ZN5alloc3vec16Vec$LT$T$C$A$GT$6retain28_$u7b$$u7b$closure$u7d$$u7d$17h1b10262b1d4df8f3E', symObjAddr: 0x29AC, symBinAddr: 0x387E0, symSize: 0x30 }
  - { offset: 0xE5384, size: 0x8, addend: 0x0, symName: '__ZN67_$LT$alloc..vec..Vec$LT$T$GT$$u20$as$u20$core..default..Default$GT$7default17h190186796652c071E', symObjAddr: 0x2FC4, symBinAddr: 0x38DCC, symSize: 0x28 }
  - { offset: 0xE542E, size: 0x8, addend: 0x0, symName: '__ZN67_$LT$alloc..vec..Vec$LT$T$GT$$u20$as$u20$core..default..Default$GT$7default17h2038d51751c91b5cE', symObjAddr: 0x2FEC, symBinAddr: 0x38DF4, symSize: 0x28 }
  - { offset: 0xE54D8, size: 0x8, addend: 0x0, symName: '__ZN67_$LT$alloc..vec..Vec$LT$T$GT$$u20$as$u20$core..default..Default$GT$7default17hc7d2abdd54b08385E', symObjAddr: 0x3014, symBinAddr: 0x38E1C, symSize: 0x28 }
  - { offset: 0xE5588, size: 0x8, addend: 0x0, symName: '__ZN70_$LT$alloc..vec..Vec$LT$T$C$A$GT$$u20$as$u20$core..ops..drop..Drop$GT$4drop17h632e538ce6031bd5E', symObjAddr: 0x303C, symBinAddr: 0x38E44, symSize: 0x3C }
  - { offset: 0xE5695, size: 0x8, addend: 0x0, symName: '__ZN70_$LT$alloc..vec..Vec$LT$T$C$A$GT$$u20$as$u20$core..ops..drop..Drop$GT$4drop17h6e83ab869f557074E', symObjAddr: 0x3078, symBinAddr: 0x38E80, symSize: 0x3C }
  - { offset: 0xE57A2, size: 0x8, addend: 0x0, symName: '__ZN70_$LT$alloc..vec..Vec$LT$T$C$A$GT$$u20$as$u20$core..ops..drop..Drop$GT$4drop17h84f73830dac937d0E', symObjAddr: 0x30B4, symBinAddr: 0x38EBC, symSize: 0x3C }
  - { offset: 0xE58AF, size: 0x8, addend: 0x0, symName: '__ZN70_$LT$alloc..vec..Vec$LT$T$C$A$GT$$u20$as$u20$core..ops..drop..Drop$GT$4drop17h96bf114df15895a2E', symObjAddr: 0x30F0, symBinAddr: 0x38EF8, symSize: 0x50 }
  - { offset: 0xE59BC, size: 0x8, addend: 0x0, symName: '__ZN70_$LT$alloc..vec..Vec$LT$T$C$A$GT$$u20$as$u20$core..ops..drop..Drop$GT$4drop17ha416800cba91052eE', symObjAddr: 0x3140, symBinAddr: 0x38F48, symSize: 0x3C }
  - { offset: 0xE5AC9, size: 0x8, addend: 0x0, symName: '__ZN70_$LT$alloc..vec..Vec$LT$T$C$A$GT$$u20$as$u20$core..ops..drop..Drop$GT$4drop17ha4953dbe944f4faaE', symObjAddr: 0x317C, symBinAddr: 0x38F84, symSize: 0x50 }
  - { offset: 0xE5BD6, size: 0x8, addend: 0x0, symName: '__ZN70_$LT$alloc..vec..Vec$LT$T$C$A$GT$$u20$as$u20$core..ops..drop..Drop$GT$4drop17hbd11a490312bc985E', symObjAddr: 0x31CC, symBinAddr: 0x38FD4, symSize: 0x3C }
  - { offset: 0xE5CE3, size: 0x8, addend: 0x0, symName: '__ZN70_$LT$alloc..vec..Vec$LT$T$C$A$GT$$u20$as$u20$core..ops..drop..Drop$GT$4drop17hc1d01800f50b9db9E', symObjAddr: 0x3208, symBinAddr: 0x39010, symSize: 0x50 }
  - { offset: 0xE5DF0, size: 0x8, addend: 0x0, symName: '__ZN70_$LT$alloc..vec..Vec$LT$T$C$A$GT$$u20$as$u20$core..ops..drop..Drop$GT$4drop17hd4ce1c6c52b42eceE', symObjAddr: 0x3258, symBinAddr: 0x39060, symSize: 0x3C }
  - { offset: 0xE5EFD, size: 0x8, addend: 0x0, symName: '__ZN70_$LT$alloc..vec..Vec$LT$T$C$A$GT$$u20$as$u20$core..ops..drop..Drop$GT$4drop17hf9570bcf0468d4c8E', symObjAddr: 0x3294, symBinAddr: 0x3909C, symSize: 0x3C }
  - { offset: 0xE6010, size: 0x8, addend: 0x0, symName: '__ZN72_$LT$alloc..vec..Vec$LT$T$C$A$GT$$u20$as$u20$core..ops..deref..Deref$GT$5deref17h1d8ef6661d3e3b76E', symObjAddr: 0x32D0, symBinAddr: 0x390D8, symSize: 0x24 }
  - { offset: 0xE6050, size: 0x8, addend: 0x0, symName: '__ZN72_$LT$alloc..vec..Vec$LT$T$C$A$GT$$u20$as$u20$core..ops..deref..Deref$GT$5deref17h9dbcef1e47728161E', symObjAddr: 0x32F4, symBinAddr: 0x390FC, symSize: 0x24 }
  - { offset: 0xE6090, size: 0x8, addend: 0x0, symName: '__ZN72_$LT$alloc..vec..Vec$LT$T$C$A$GT$$u20$as$u20$core..ops..deref..Deref$GT$5deref17hbba510aedc334f04E', symObjAddr: 0x3318, symBinAddr: 0x39120, symSize: 0x24 }
  - { offset: 0xE60D6, size: 0x8, addend: 0x0, symName: '__ZN90_$LT$alloc..vec..Vec$LT$T$C$A$GT$$u20$as$u20$core..iter..traits..collect..IntoIterator$GT$9into_iter17h233452c95d38232eE', symObjAddr: 0x3420, symBinAddr: 0x3916C, symSize: 0xF8 }
  - { offset: 0xE63A5, size: 0x8, addend: 0x0, symName: '__ZN90_$LT$alloc..vec..Vec$LT$T$C$A$GT$$u20$as$u20$core..iter..traits..collect..IntoIterator$GT$9into_iter17h2d38f19d4d20b929E', symObjAddr: 0x3518, symBinAddr: 0x39264, symSize: 0xF8 }
  - { offset: 0xE6674, size: 0x8, addend: 0x0, symName: '__ZN90_$LT$alloc..vec..Vec$LT$T$C$A$GT$$u20$as$u20$core..iter..traits..collect..IntoIterator$GT$9into_iter17hfdff6ed527967d7dE', symObjAddr: 0x3610, symBinAddr: 0x3935C, symSize: 0xF8 }
  - { offset: 0xE6949, size: 0x8, addend: 0x0, symName: '__ZN95_$LT$alloc..vec..Vec$LT$T$GT$$u20$as$u20$core..iter..traits..collect..FromIterator$LT$T$GT$$GT$9from_iter17h0eb630ca8232d1d1E', symObjAddr: 0x3708, symBinAddr: 0x39454, symSize: 0x3C }
  - { offset: 0xE698A, size: 0x8, addend: 0x0, symName: '__ZN95_$LT$alloc..vec..Vec$LT$T$GT$$u20$as$u20$core..iter..traits..collect..FromIterator$LT$T$GT$$GT$9from_iter17h418e0003b1191908E', symObjAddr: 0x3744, symBinAddr: 0x39490, symSize: 0x3C }
  - { offset: 0xE69CB, size: 0x8, addend: 0x0, symName: '__ZN95_$LT$alloc..vec..Vec$LT$T$GT$$u20$as$u20$core..iter..traits..collect..FromIterator$LT$T$GT$$GT$9from_iter17h7c885f1245c265e6E', symObjAddr: 0x3780, symBinAddr: 0x394CC, symSize: 0x3C }
  - { offset: 0xE6A17, size: 0x8, addend: 0x0, symName: '__ZN97_$LT$alloc..vec..Vec$LT$T$C$A$GT$$u20$as$u20$alloc..vec..spec_extend..SpecExtend$LT$T$C$I$GT$$GT$11spec_extend17h03dff1e43dfb6af9E', symObjAddr: 0x37BC, symBinAddr: 0x39508, symSize: 0x24 }
  - { offset: 0xE6A69, size: 0x8, addend: 0x0, symName: '__ZN97_$LT$alloc..vec..Vec$LT$T$C$A$GT$$u20$as$u20$alloc..vec..spec_extend..SpecExtend$LT$T$C$I$GT$$GT$11spec_extend17h297444d9d62599b5E', symObjAddr: 0x37E0, symBinAddr: 0x3952C, symSize: 0x24 }
  - { offset: 0xE6ABB, size: 0x8, addend: 0x0, symName: '__ZN97_$LT$alloc..vec..Vec$LT$T$C$A$GT$$u20$as$u20$alloc..vec..spec_extend..SpecExtend$LT$T$C$I$GT$$GT$11spec_extend17h93299ee6e566912fE', symObjAddr: 0x3804, symBinAddr: 0x39550, symSize: 0x24 }
  - { offset: 0xE6B19, size: 0x8, addend: 0x0, symName: '__ZN98_$LT$alloc..vec..Vec$LT$T$GT$$u20$as$u20$alloc..vec..spec_from_iter..SpecFromIter$LT$T$C$I$GT$$GT$9from_iter17h801ed9c6492ff300E', symObjAddr: 0x3828, symBinAddr: 0x39574, symSize: 0x14 }
  - { offset: 0xE6B58, size: 0x8, addend: 0x0, symName: '__ZN98_$LT$alloc..vec..Vec$LT$T$GT$$u20$as$u20$alloc..vec..spec_from_iter..SpecFromIter$LT$T$C$I$GT$$GT$9from_iter17h98e6ad373566d5b6E', symObjAddr: 0x383C, symBinAddr: 0x39588, symSize: 0x14 }
  - { offset: 0xE6B97, size: 0x8, addend: 0x0, symName: '__ZN98_$LT$alloc..vec..Vec$LT$T$GT$$u20$as$u20$alloc..vec..spec_from_iter..SpecFromIter$LT$T$C$I$GT$$GT$9from_iter17hfb5723df81cc1405E', symObjAddr: 0x3850, symBinAddr: 0x3959C, symSize: 0x14 }
  - { offset: 0xE7C65, size: 0x8, addend: 0x0, symName: __ZN5alloc3fmt6format17hc1e659832a207213E, symObjAddr: 0xF6C, symBinAddr: 0x36E74, symSize: 0xD4 }
  - { offset: 0xE7CC5, size: 0x8, addend: 0x0, symName: '__ZN5alloc3fmt6format28_$u7b$$u7b$closure$u7d$$u7d$17h80d32cc52f52bc46E', symObjAddr: 0x1040, symBinAddr: 0x36F48, symSize: 0x48 }
  - { offset: 0xEB4C1, size: 0x8, addend: 0x0, symName: '__ZN64_$LT$core..str..error..Utf8Error$u20$as$u20$core..fmt..Debug$GT$3fmt17h6ecdeaec6bac9b29E', symObjAddr: 0x2F3C, symBinAddr: 0x38D44, symSize: 0x88 }
  - { offset: 0xEB765, size: 0x8, addend: 0x0, symName: '__ZN4core5tuple66_$LT$impl$u20$core..default..Default$u20$for$u20$$LP$U$C$T$RP$$GT$7default17hc09846afae68bdb8E', symObjAddr: 0xEA0, symBinAddr: 0x36DC8, symSize: 0x8C }
  - { offset: 0xEB7C8, size: 0x8, addend: 0x0, symName: '__ZN4core7convert3num18ptr_try_from_impls69_$LT$impl$u20$core..convert..TryFrom$LT$u64$GT$$u20$for$u20$usize$GT$8try_from17h056845f53ea956c5E', symObjAddr: 0xF4C, symBinAddr: 0x36E54, symSize: 0x20 }
  - { offset: 0xEC2A3, size: 0x8, addend: 0x0, symName: __ZN8pyo3_ffi10modsupport15PyModule_Create17h62404f6f31540222E, symObjAddr: 0x33F8, symBinAddr: 0x39144, symSize: 0x28 }
  - { offset: 0xED36E, size: 0x8, addend: 0x0, symName: '__ZN4core4iter8adapters7step_by15StepBy$LT$I$GT$3new17hcc67d6187b33f589E', symObjAddr: 0xDC0, symBinAddr: 0x36CE8, symSize: 0xE0 }
  - { offset: 0xEDA5C, size: 0x8, addend: 0x0, symName: '__ZN5alloc3vec12Vec$LT$T$GT$13with_capacity17hb7507ca78c268056E', symObjAddr: 0x1088, symBinAddr: 0x36F90, symSize: 0x48 }
  - { offset: 0xEDB5D, size: 0x8, addend: 0x0, symName: '__ZN5alloc3vec12Vec$LT$T$GT$3new17h0e3068906c932e3aE', symObjAddr: 0x10D0, symBinAddr: 0x36FD8, symSize: 0x28 }
  - { offset: 0xEDC7F, size: 0x8, addend: 0x0, symName: '__ZN5alloc3vec12Vec$LT$T$GT$3new17h15a3dd9b40eb3167E', symObjAddr: 0x10F8, symBinAddr: 0x37000, symSize: 0x28 }
  - { offset: 0xEDD73, size: 0x8, addend: 0x0, symName: '__ZN5alloc3vec12Vec$LT$T$GT$3new17h1b4bfefa6afcf9a3E', symObjAddr: 0x1120, symBinAddr: 0x37028, symSize: 0x28 }
  - { offset: 0xEDE67, size: 0x8, addend: 0x0, symName: '__ZN5alloc3vec12Vec$LT$T$GT$3new17h1bbf66cd870a7c33E', symObjAddr: 0x1148, symBinAddr: 0x37050, symSize: 0x28 }
  - { offset: 0xEDF5B, size: 0x8, addend: 0x0, symName: '__ZN5alloc3vec12Vec$LT$T$GT$3new17h623d31215fcb1ea9E', symObjAddr: 0x1170, symBinAddr: 0x37078, symSize: 0x28 }
  - { offset: 0xEE04F, size: 0x8, addend: 0x0, symName: '__ZN5alloc3vec12Vec$LT$T$GT$3new17hc5fbb3534b8d3002E', symObjAddr: 0x1198, symBinAddr: 0x370A0, symSize: 0x28 }
  - { offset: 0xEE143, size: 0x8, addend: 0x0, symName: '__ZN5alloc3vec12Vec$LT$T$GT$3new17hf5e2df0d9f7205c3E', symObjAddr: 0x11C0, symBinAddr: 0x370C8, symSize: 0x28 }
  - { offset: 0xEE285, size: 0x8, addend: 0x0, symName: '__ZN5alloc3vec16Vec$LT$T$C$A$GT$10as_mut_ptr17h5cd66d32557c8cc4E', symObjAddr: 0x11E8, symBinAddr: 0x370F0, symSize: 0x30 }
  - { offset: 0xEE5C1, size: 0x8, addend: 0x0, symName: '__ZN5alloc3vec16Vec$LT$T$C$A$GT$10retain_mut17h1a13951d5d8dbb45E', symObjAddr: 0x14A8, symBinAddr: 0x373B0, symSize: 0xE4 }
  - { offset: 0xEE9D3, size: 0x8, addend: 0x0, symName: '__ZN5alloc3vec16Vec$LT$T$C$A$GT$16extend_desugared17h1a90da18a626d479E', symObjAddr: 0x158C, symBinAddr: 0x37494, symSize: 0x1BC }
  - { offset: 0xEEE61, size: 0x8, addend: 0x0, symName: '__ZN5alloc3vec16Vec$LT$T$C$A$GT$16extend_desugared17h3c4ba4a2875eb271E', symObjAddr: 0x1748, symBinAddr: 0x37650, symSize: 0x1B0 }
  - { offset: 0xEF2A4, size: 0x8, addend: 0x0, symName: '__ZN5alloc3vec16Vec$LT$T$C$A$GT$16extend_desugared17h6b5a4bfd48ed8102E', symObjAddr: 0x18F8, symBinAddr: 0x37800, symSize: 0x1B0 }
  - { offset: 0xEF76B, size: 0x8, addend: 0x0, symName: '__ZN5alloc3vec16Vec$LT$T$C$A$GT$16into_boxed_slice17h20ca57454d8270faE', symObjAddr: 0x1AA8, symBinAddr: 0x379B0, symSize: 0x1C4 }
  - { offset: 0xEFC93, size: 0x8, addend: 0x0, symName: '__ZN5alloc3vec16Vec$LT$T$C$A$GT$16into_boxed_slice17h2f8d455649142842E', symObjAddr: 0x1C6C, symBinAddr: 0x37B74, symSize: 0x1C4 }
  - { offset: 0xF01BB, size: 0x8, addend: 0x0, symName: '__ZN5alloc3vec16Vec$LT$T$C$A$GT$16into_boxed_slice17h452a85c2f7a8ee7fE', symObjAddr: 0x1E30, symBinAddr: 0x37D38, symSize: 0x1C4 }
  - { offset: 0xF04D1, size: 0x8, addend: 0x0, symName: '__ZN5alloc3vec16Vec$LT$T$C$A$GT$3len17h1082a97d4ac475adE', symObjAddr: 0x20C8, symBinAddr: 0x37EFC, symSize: 0x18 }
  - { offset: 0xF0681, size: 0x8, addend: 0x0, symName: '__ZN5alloc3vec16Vec$LT$T$C$A$GT$4push17h20d18f0108885e53E', symObjAddr: 0x20E0, symBinAddr: 0x37F14, symSize: 0x100 }
  - { offset: 0xF09C6, size: 0x8, addend: 0x0, symName: '__ZN5alloc3vec16Vec$LT$T$C$A$GT$4push17h266264afb126e296E', symObjAddr: 0x21E0, symBinAddr: 0x38014, symSize: 0x104 }
  - { offset: 0xF0D03, size: 0x8, addend: 0x0, symName: '__ZN5alloc3vec16Vec$LT$T$C$A$GT$4push17h468f67f4532fa989E', symObjAddr: 0x22E4, symBinAddr: 0x38118, symSize: 0x108 }
  - { offset: 0xF1065, size: 0x8, addend: 0x0, symName: '__ZN5alloc3vec16Vec$LT$T$C$A$GT$4push17h6751f235480105e8E', symObjAddr: 0x23EC, symBinAddr: 0x38220, symSize: 0x12C }
  - { offset: 0xF13D7, size: 0x8, addend: 0x0, symName: '__ZN5alloc3vec16Vec$LT$T$C$A$GT$4push17h6ddd7fa1218dff64E', symObjAddr: 0x2518, symBinAddr: 0x3834C, symSize: 0x114 }
  - { offset: 0xF1714, size: 0x8, addend: 0x0, symName: '__ZN5alloc3vec16Vec$LT$T$C$A$GT$4push17h850827b7223e7d8dE', symObjAddr: 0x262C, symBinAddr: 0x38460, symSize: 0xFC }
  - { offset: 0xF1A59, size: 0x8, addend: 0x0, symName: '__ZN5alloc3vec16Vec$LT$T$C$A$GT$4push17hba6044919b2c3cbbE', symObjAddr: 0x2728, symBinAddr: 0x3855C, symSize: 0x11C }
  - { offset: 0xF1D97, size: 0x8, addend: 0x0, symName: '__ZN5alloc3vec16Vec$LT$T$C$A$GT$4push17he0da139abeabd04dE', symObjAddr: 0x2844, symBinAddr: 0x38678, symSize: 0x11C }
  - { offset: 0xF1F8E, size: 0x8, addend: 0x0, symName: '__ZN5alloc3vec16Vec$LT$T$C$A$GT$6retain17hde1099621437f4a6E', symObjAddr: 0x2960, symBinAddr: 0x38794, symSize: 0x4C }
  - { offset: 0xF20F9, size: 0x8, addend: 0x0, symName: '__ZN5alloc3vec16Vec$LT$T$C$A$GT$7reserve17h07ee34471f1f4d71E', symObjAddr: 0x29DC, symBinAddr: 0x38810, symSize: 0xC4 }
  - { offset: 0xF233C, size: 0x8, addend: 0x0, symName: '__ZN5alloc3vec16Vec$LT$T$C$A$GT$7reserve17hb935695ce8a72eccE', symObjAddr: 0x2AA0, symBinAddr: 0x388D4, symSize: 0xC4 }
  - { offset: 0xF2566, size: 0x8, addend: 0x0, symName: '__ZN5alloc3vec16Vec$LT$T$C$A$GT$8as_slice17h09c3ae4215c0785dE', symObjAddr: 0x2B64, symBinAddr: 0x38998, symSize: 0x7C }
  - { offset: 0xF2779, size: 0x8, addend: 0x0, symName: '__ZN5alloc3vec16Vec$LT$T$C$A$GT$8as_slice17h1a9b991034372606E', symObjAddr: 0x2BE0, symBinAddr: 0x38A14, symSize: 0x78 }
  - { offset: 0xF2990, size: 0x8, addend: 0x0, symName: '__ZN5alloc3vec16Vec$LT$T$C$A$GT$8as_slice17h85f16d34febec9a8E', symObjAddr: 0x2C58, symBinAddr: 0x38A8C, symSize: 0x78 }
  - { offset: 0xF2AC3, size: 0x8, addend: 0x0, symName: '__ZN5alloc3vec16Vec$LT$T$C$A$GT$8is_empty17h34a2f3fe65b3b821E', symObjAddr: 0x2CD0, symBinAddr: 0x38B04, symSize: 0x20 }
  - { offset: 0xF2B3B, size: 0x8, addend: 0x0, symName: '__ZN5alloc3vec16Vec$LT$T$C$A$GT$8is_empty17h409dea26192bf253E', symObjAddr: 0x2CF0, symBinAddr: 0x38B24, symSize: 0x20 }
  - { offset: 0xF2BB3, size: 0x8, addend: 0x0, symName: '__ZN5alloc3vec16Vec$LT$T$C$A$GT$8is_empty17h59254b61a599a09aE', symObjAddr: 0x2D10, symBinAddr: 0x38B44, symSize: 0x20 }
  - { offset: 0xF2C2B, size: 0x8, addend: 0x0, symName: '__ZN5alloc3vec16Vec$LT$T$C$A$GT$8is_empty17ha0477e3974a2bb5aE', symObjAddr: 0x2D30, symBinAddr: 0x38B64, symSize: 0x20 }
  - { offset: 0xF2CA3, size: 0x8, addend: 0x0, symName: '__ZN5alloc3vec16Vec$LT$T$C$A$GT$8is_empty17hdff7859a2b8f1c8fE', symObjAddr: 0x2D50, symBinAddr: 0x38B84, symSize: 0x20 }
  - { offset: 0xF2F3E, size: 0x8, addend: 0x0, symName: '__ZN5alloc3vec16Vec$LT$T$C$A$GT$9split_off17h2b81d52ae8e1047bE', symObjAddr: 0x2D70, symBinAddr: 0x38BA4, symSize: 0x188 }
  - { offset: 0xF47A9, size: 0x8, addend: 0x0, symName: '__ZN52_$LT$T$u20$as$u20$alloc..slice..hack..ConvertVec$GT$6to_vec17h8a6dd8f187ba4338E', symObjAddr: 0x153C, symBinAddr: 0x39DCC, symSize: 0xF0 }
  - { offset: 0xF4B6D, size: 0x8, addend: 0x0, symName: '__ZN4core3ptr8non_null16NonNull$LT$T$GT$13new_unchecked18precondition_check17h5dc2414b0b07f95fE', symObjAddr: 0x480, symBinAddr: 0x39760, symSize: 0x40 }
  - { offset: 0xF5717, size: 0x8, addend: 0x0, symName: '__ZN100_$LT$core..iter..adapters..take..Take$LT$I$GT$$u20$as$u20$core..iter..traits..iterator..Iterator$GT$4next17h3e5cfe120579617bE', symObjAddr: 0x58, symBinAddr: 0x395B0, symSize: 0x58 }
  - { offset: 0xF574C, size: 0x8, addend: 0x0, symName: '__ZN100_$LT$core..iter..adapters..take..Take$LT$I$GT$$u20$as$u20$core..iter..traits..iterator..Iterator$GT$9size_hint17h0044644ed7abbe89E', symObjAddr: 0xB0, symBinAddr: 0x39608, symSize: 0x124 }
  - { offset: 0xF5913, size: 0x8, addend: 0x0, symName: __ZN4core4iter6traits8iterator8Iterator3zip17ha38165dab8a728e7E, symObjAddr: 0x9F0, symBinAddr: 0x39990, symSize: 0xB0 }
  - { offset: 0xF7ED0, size: 0x8, addend: 0x0, symName: __ZN4core3str7pattern15ReverseSearcher16next_reject_back17h50594086812035a0E, symObjAddr: 0x8D0, symBinAddr: 0x39900, symSize: 0x90 }
  - { offset: 0xF7F3B, size: 0x8, addend: 0x0, symName: '__ZN52_$LT$char$u20$as$u20$core..str..pattern..Pattern$GT$13into_searcher17h10091080959a92e5E', symObjAddr: 0x162C, symBinAddr: 0x39EBC, symSize: 0x114 }
  - { offset: 0xF8057, size: 0x8, addend: 0x0, symName: '__ZN88_$LT$core..str..pattern..CharSearcher$u20$as$u20$core..str..pattern..ReverseSearcher$GT$9next_back17hd12ac9f1b0809c27E', symObjAddr: 0x1D84, symBinAddr: 0x39FD0, symSize: 0x264 }
  - { offset: 0xF86F3, size: 0x8, addend: 0x0, symName: __ZN4core5slice3raw14from_raw_parts17he576b749592c552eE, symObjAddr: 0xC60, symBinAddr: 0x39A40, symSize: 0x50 }
  - { offset: 0xF873B, size: 0x8, addend: 0x0, symName: __ZN4core5slice3raw14from_raw_parts18precondition_check17h438a0d701977f100E, symObjAddr: 0xCB0, symBinAddr: 0x39A90, symSize: 0x16C }
  - { offset: 0xF889F, size: 0x8, addend: 0x0, symName: __ZN4core5slice3raw18from_raw_parts_mut18precondition_check17h24197b1783987b6bE, symObjAddr: 0xE6C, symBinAddr: 0x39BFC, symSize: 0x16C }
  - { offset: 0xF8C1D, size: 0x8, addend: 0x0, symName: __ZN4core9core_arch7aarch644neon7vld1_u817h3d7c4e68352c3cd0E, symObjAddr: 0x14D8, symBinAddr: 0x39D68, symSize: 0x2C }
  - { offset: 0xF8C4B, size: 0x8, addend: 0x0, symName: __ZN4core9core_arch7aarch644neon7vst1_u817hd8c52862a3197792E, symObjAddr: 0x1504, symBinAddr: 0x39D94, symSize: 0x38 }
  - { offset: 0xF9728, size: 0x8, addend: 0x0, symName: __ZN15portable_atomic9AtomicI6416compare_exchange17hf9bc055acc35dafcE, symObjAddr: 0x1D4, symBinAddr: 0x3972C, symSize: 0x34 }
  - { offset: 0xFA38C, size: 0x8, addend: 0x0, symName: '__ZN4pyo34sync8Interned3get28_$u7b$$u7b$closure$u7d$$u7d$17hc396f711dc539972E', symObjAddr: 0x5624, symBinAddr: 0x3ACF8, symSize: 0x34 }
  - { offset: 0xFA3D6, size: 0x8, addend: 0x0, symName: '__ZN4pyo34sync20GILOnceCell$LT$T$GT$11get_or_init28_$u7b$$u7b$closure$u7d$$u7d$17h3fb664bcd87578c9E', symObjAddr: 0x3310, symBinAddr: 0x3A4D4, symSize: 0x2C }
  - { offset: 0xFA415, size: 0x8, addend: 0x0, symName: '__ZN4pyo34sync20GILOnceCell$LT$T$GT$11get_or_init28_$u7b$$u7b$closure$u7d$$u7d$17hd4638d7cb2a2c469E', symObjAddr: 0x3470, symBinAddr: 0x3A500, symSize: 0x3C }
  - { offset: 0xFB05A, size: 0x8, addend: 0x0, symName: '__ZN4core3ptr8non_null16NonNull$LT$T$GT$3new17h1cc3cabfc5cf8476E', symObjAddr: 0x4C0, symBinAddr: 0x397A0, symSize: 0x58 }
  - { offset: 0xFB126, size: 0x8, addend: 0x0, symName: '__ZN4core3ptr8non_null16NonNull$LT$T$GT$3new17h29597f82541f5541E', symObjAddr: 0x518, symBinAddr: 0x397F8, symSize: 0x58 }
  - { offset: 0xFB1F2, size: 0x8, addend: 0x0, symName: '__ZN4core3ptr8non_null16NonNull$LT$T$GT$3new17h6a42dbcfe396a26dE', symObjAddr: 0x570, symBinAddr: 0x39850, symSize: 0x58 }
  - { offset: 0xFB2B1, size: 0x8, addend: 0x0, symName: '__ZN4core3ptr8non_null16NonNull$LT$T$GT$3new17h8f9866f3e439c6e8E', symObjAddr: 0x5C8, symBinAddr: 0x398A8, symSize: 0x58 }
  - { offset: 0xFB916, size: 0x8, addend: 0x0, symName: '__ZN4pyo34sync21GILProtected$LT$T$GT$3get17hc9171f0dca559a55E', symObjAddr: 0x27C8, symBinAddr: 0x3A234, symSize: 0x14 }
  - { offset: 0xFB973, size: 0x8, addend: 0x0, symName: '__ZN4pyo34sync20GILOnceCell$LT$T$GT$3get17h4d7fd8aa41239d7bE', symObjAddr: 0x280C, symBinAddr: 0x3A248, symSize: 0x2C }
  - { offset: 0xFBAA9, size: 0x8, addend: 0x0, symName: '__ZN4pyo34sync20GILOnceCell$LT$T$GT$3get17h98f71f5c613a7de7E', symObjAddr: 0x2838, symBinAddr: 0x3A274, symSize: 0x2C }
  - { offset: 0xFBB06, size: 0x8, addend: 0x0, symName: '__ZN4pyo34sync20GILOnceCell$LT$T$GT$3get17ha4faa1311c223861E', symObjAddr: 0x2864, symBinAddr: 0x3A2A0, symSize: 0x2C }
  - { offset: 0xFBB63, size: 0x8, addend: 0x0, symName: '__ZN4pyo34sync20GILOnceCell$LT$T$GT$3get17hc1a176dd78748664E', symObjAddr: 0x2890, symBinAddr: 0x3A2CC, symSize: 0x2C }
  - { offset: 0xFBBB3, size: 0x8, addend: 0x0, symName: '__ZN4pyo34sync20GILOnceCell$LT$T$GT$3get17hd816846866d7e9baE', symObjAddr: 0x28BC, symBinAddr: 0x3A2F8, symSize: 0x2C }
  - { offset: 0xFBC03, size: 0x8, addend: 0x0, symName: '__ZN4pyo34sync20GILOnceCell$LT$T$GT$11get_or_init17h2814065304966b53E', symObjAddr: 0x28E8, symBinAddr: 0x3A324, symSize: 0xE0 }
  - { offset: 0xFBC90, size: 0x8, addend: 0x0, symName: '__ZN4pyo34sync20GILOnceCell$LT$T$GT$11get_or_init17h3f2761004bbfaa66E', symObjAddr: 0x2A98, symBinAddr: 0x3A404, symSize: 0xD0 }
  - { offset: 0xFBD55, size: 0x8, addend: 0x0, symName: '__ZN4pyo34sync20GILOnceCell$LT$T$GT$15get_or_try_init17h244b2f86e8b088a5E', symObjAddr: 0x359C, symBinAddr: 0x3A53C, symSize: 0xEC }
  - { offset: 0xFBE24, size: 0x8, addend: 0x0, symName: '__ZN4pyo34sync20GILOnceCell$LT$T$GT$15get_or_try_init17ha7c79a77092ee145E', symObjAddr: 0x3820, symBinAddr: 0x3A628, symSize: 0xD0 }
  - { offset: 0xFBEC2, size: 0x8, addend: 0x0, symName: '__ZN4pyo34sync20GILOnceCell$LT$T$GT$15get_or_try_init17hb5949a270ffe0a77E', symObjAddr: 0x38F0, symBinAddr: 0x3A6F8, symSize: 0xD0 }
  - { offset: 0xFBF66, size: 0x8, addend: 0x0, symName: '__ZN4pyo34sync20GILOnceCell$LT$T$GT$4init17h2c91538acf3ad858E', symObjAddr: 0x3BE8, symBinAddr: 0x94A04, symSize: 0x114 }
  - { offset: 0xFC044, size: 0x8, addend: 0x0, symName: '__ZN4pyo34sync20GILOnceCell$LT$T$GT$4init17h4a070e4b30a5e39fE', symObjAddr: 0x3CFC, symBinAddr: 0x94B18, symSize: 0x128 }
  - { offset: 0xFC13E, size: 0x8, addend: 0x0, symName: '__ZN4pyo34sync20GILOnceCell$LT$T$GT$4init17h7a50d885038e8d05E', symObjAddr: 0x404C, symBinAddr: 0x94C40, symSize: 0x10C }
  - { offset: 0xFC21C, size: 0x8, addend: 0x0, symName: '__ZN4pyo34sync20GILOnceCell$LT$T$GT$4init17h9d2391dd2cf6d59bE', symObjAddr: 0x4380, symBinAddr: 0x94D4C, symSize: 0x194 }
  - { offset: 0xFC31B, size: 0x8, addend: 0x0, symName: '__ZN4pyo34sync20GILOnceCell$LT$T$GT$4init17he5158213365f28c8E', symObjAddr: 0x4D94, symBinAddr: 0x94EE0, symSize: 0x174 }
  - { offset: 0xFC424, size: 0x8, addend: 0x0, symName: '__ZN4pyo34sync20GILOnceCell$LT$T$GT$3set17h0387ca99da0d74dcE', symObjAddr: 0x4F08, symBinAddr: 0x3A7C8, symSize: 0xF4 }
  - { offset: 0xFC4DD, size: 0x8, addend: 0x0, symName: '__ZN4pyo34sync20GILOnceCell$LT$T$GT$3set17h3b004be4585ecffbE', symObjAddr: 0x4FFC, symBinAddr: 0x3A8BC, symSize: 0xC4 }
  - { offset: 0xFC596, size: 0x8, addend: 0x0, symName: '__ZN4pyo34sync20GILOnceCell$LT$T$GT$3set17h5ce40af3890b8025E', symObjAddr: 0x50C0, symBinAddr: 0x3A980, symSize: 0xF4 }
  - { offset: 0xFC64F, size: 0x8, addend: 0x0, symName: '__ZN4pyo34sync20GILOnceCell$LT$T$GT$3set17hf5e2713a7c851b88E', symObjAddr: 0x51B4, symBinAddr: 0x3AA74, symSize: 0x148 }
  - { offset: 0xFC709, size: 0x8, addend: 0x0, symName: '__ZN4pyo34sync20GILOnceCell$LT$T$GT$3set17hf8178f8ac37ca397E', symObjAddr: 0x52FC, symBinAddr: 0x3ABBC, symSize: 0xF4 }
  - { offset: 0xFC7A6, size: 0x8, addend: 0x0, symName: __ZN4pyo34sync8Interned3get17h85b5f19f8f94bfa1E, symObjAddr: 0x55DC, symBinAddr: 0x3ACB0, symSize: 0x48 }
  - { offset: 0xFC90A, size: 0x8, addend: 0x0, symName: '__ZN45_$LT$T$u20$as$u20$alloc..string..ToString$GT$9to_string17hcba4a03ffcce315dE', symObjAddr: 0xA3C, symBinAddr: 0x3B43C, symSize: 0x124 }
  - { offset: 0xFCE23, size: 0x8, addend: 0x0, symName: '__ZN64_$LT$alloc..ffi..c_str..NulError$u20$as$u20$core..fmt..Debug$GT$3fmt17h4bacf416f7795240E', symObjAddr: 0x17FC, symBinAddr: 0x3B958, symSize: 0x5C }
  - { offset: 0xFCE63, size: 0x8, addend: 0x0, symName: '__ZN70_$LT$alloc..ffi..c_str..CString$u20$as$u20$core..ops..deref..Deref$GT$5deref17h99164dfadb83ccbfE', symObjAddr: 0x1858, symBinAddr: 0x3B9B4, symSize: 0x28 }
  - { offset: 0xFCED3, size: 0x8, addend: 0x0, symName: '__ZN97_$LT$alloc..ffi..c_str..CString$u20$as$u20$core..borrow..Borrow$LT$core..ffi..c_str..CStr$GT$$GT$6borrow17h3801f931a67231edE', symObjAddr: 0x1918, symBinAddr: 0x3BA0C, symSize: 0x28 }
  - { offset: 0xFE2F2, size: 0x8, addend: 0x0, symName: '__ZN42_$LT$$RF$T$u20$as$u20$core..fmt..Debug$GT$3fmt17h5a1cd77f00b38d99E', symObjAddr: 0x888, symBinAddr: 0x3B3AC, symSize: 0x30 }
  - { offset: 0xFE338, size: 0x8, addend: 0x0, symName: '__ZN42_$LT$$RF$T$u20$as$u20$core..fmt..Debug$GT$3fmt17h7418634b22f39bc9E', symObjAddr: 0x8B8, symBinAddr: 0x3B3DC, symSize: 0x30 }
  - { offset: 0xFE384, size: 0x8, addend: 0x0, symName: '__ZN44_$LT$$RF$T$u20$as$u20$core..fmt..Display$GT$3fmt17h75a7dc4b7ad0f8dfE', symObjAddr: 0x8E8, symBinAddr: 0x3B40C, symSize: 0x30 }
  - { offset: 0xFE54E, size: 0x8, addend: 0x0, symName: '__ZN102_$LT$core..iter..adapters..map..Map$LT$I$C$F$GT$$u20$as$u20$core..iter..traits..iterator..Iterator$GT$8try_fold17hdca7e0920691414eE', symObjAddr: 0x130, symBinAddr: 0x3AD2C, symSize: 0x54 }
  - { offset: 0xFE5F1, size: 0x8, addend: 0x0, symName: '__ZN102_$LT$core..iter..adapters..map..Map$LT$I$C$F$GT$$u20$as$u20$core..iter..traits..iterator..Iterator$GT$9size_hint17h914c2e421c85d609E', symObjAddr: 0x214, symBinAddr: 0x3AD80, symSize: 0x24 }
  - { offset: 0xFE65C, size: 0x8, addend: 0x0, symName: '__ZN4core4iter8adapters3map12map_try_fold28_$u7b$$u7b$closure$u7d$$u7d$17hf0f290f500266801E', symObjAddr: 0x136C, symBinAddr: 0x3B6B0, symSize: 0xA8 }
  - { offset: 0xFE7B4, size: 0x8, addend: 0x0, symName: '__ZN115_$LT$core..iter..adapters..filter_map..FilterMap$LT$I$C$F$GT$$u20$as$u20$core..iter..traits..iterator..Iterator$GT$4next17h331209ce2416591cE', symObjAddr: 0x280, symBinAddr: 0x3ADA4, symSize: 0x2C }
  - { offset: 0xFE7FB, size: 0x8, addend: 0x0, symName: '__ZN115_$LT$core..iter..adapters..filter_map..FilterMap$LT$I$C$F$GT$$u20$as$u20$core..iter..traits..iterator..Iterator$GT$4next17ha3f578ed668f01dfE', symObjAddr: 0x2AC, symBinAddr: 0x3ADD0, symSize: 0x2C }
  - { offset: 0xFE842, size: 0x8, addend: 0x0, symName: '__ZN115_$LT$core..iter..adapters..filter_map..FilterMap$LT$I$C$F$GT$$u20$as$u20$core..iter..traits..iterator..Iterator$GT$9size_hint17hed42bcdff95f160aE', symObjAddr: 0x2D8, symBinAddr: 0x3ADFC, symSize: 0x4C }
  - { offset: 0xFE8A6, size: 0x8, addend: 0x0, symName: '__ZN115_$LT$core..iter..adapters..filter_map..FilterMap$LT$I$C$F$GT$$u20$as$u20$core..iter..traits..iterator..Iterator$GT$9size_hint17hf4bf8fc279cc6e82E', symObjAddr: 0x324, symBinAddr: 0x3AE48, symSize: 0x4C }
  - { offset: 0xFEA85, size: 0x8, addend: 0x0, symName: __ZN4core4iter6traits8iterator8Iterator7collect17h741a2aa9f8d16a5aE, symObjAddr: 0x11F4, symBinAddr: 0x3B664, symSize: 0x14 }
  - { offset: 0xFEAC6, size: 0x8, addend: 0x0, symName: __ZN4core4iter6traits8iterator8Iterator7collect17h7cac86a6bbc6ff93E, symObjAddr: 0x1208, symBinAddr: 0x3B678, symSize: 0x1C }
  - { offset: 0xFEB07, size: 0x8, addend: 0x0, symName: __ZN4core4iter6traits8iterator8Iterator7collect17ha09531c13fdbba75E, symObjAddr: 0x1224, symBinAddr: 0x3B694, symSize: 0x1C }
  - { offset: 0xFEB54, size: 0x8, addend: 0x0, symName: '__ZN63_$LT$I$u20$as$u20$core..iter..traits..collect..IntoIterator$GT$9into_iter17h0530b84a89099d5fE', symObjAddr: 0x1704, symBinAddr: 0x3B8B0, symSize: 0x30 }
  - { offset: 0xFEB8C, size: 0x8, addend: 0x0, symName: '__ZN63_$LT$I$u20$as$u20$core..iter..traits..collect..IntoIterator$GT$9into_iter17h0c99778440d8eb02E', symObjAddr: 0x1734, symBinAddr: 0x3B8E0, symSize: 0x30 }
  - { offset: 0xFEBC4, size: 0x8, addend: 0x0, symName: '__ZN63_$LT$I$u20$as$u20$core..iter..traits..collect..IntoIterator$GT$9into_iter17h0ec02db825eab86eE', symObjAddr: 0x1764, symBinAddr: 0x3B910, symSize: 0x30 }
  - { offset: 0xFEBFC, size: 0x8, addend: 0x0, symName: '__ZN63_$LT$I$u20$as$u20$core..iter..traits..collect..IntoIterator$GT$9into_iter17hd058b0fb57d47d11E', symObjAddr: 0x17E4, symBinAddr: 0x3B940, symSize: 0x18 }
  - { offset: 0xFEF6E, size: 0x8, addend: 0x0, symName: '__ZN50_$LT$T$u20$as$u20$core..convert..Into$LT$U$GT$$GT$4into17h4af01ef03189c8b7E', symObjAddr: 0x1688, symBinAddr: 0x3B834, symSize: 0x24 }
  - { offset: 0xFEFAE, size: 0x8, addend: 0x0, symName: '__ZN50_$LT$T$u20$as$u20$core..convert..Into$LT$U$GT$$GT$4into17h4b4088f11c927325E', symObjAddr: 0x16AC, symBinAddr: 0x3B858, symSize: 0x1C }
  - { offset: 0x103DCC, size: 0x8, addend: 0x0, symName: '__ZN4core3str21_$LT$impl$u20$str$GT$16trim_end_matches17hb112a115e6ecd85fE', symObjAddr: 0xC60, symBinAddr: 0x3B560, symSize: 0xE8 }
  - { offset: 0x103F00, size: 0x8, addend: 0x0, symName: '__ZN4core3str21_$LT$impl$u20$str$GT$3len17h975fdd91337b0f7bE', symObjAddr: 0xD48, symBinAddr: 0x3B648, symSize: 0x1C }
  - { offset: 0x1040B1, size: 0x8, addend: 0x0, symName: __ZN4core9ub_checks23maybe_is_nonoverlapping7runtime17hc4942080d00b5045E, symObjAddr: 0x15AC, symBinAddr: 0x3B758, symSize: 0xDC }
  - { offset: 0x1042CE, size: 0x8, addend: 0x0, symName: __ZN4pyo35types3any5PyAny7getattr5inner17ha36b86bc53495aaaE, symObjAddr: 0x2FEC, symBinAddr: 0x3C6C4, symSize: 0x4C }
  - { offset: 0x10430D, size: 0x8, addend: 0x0, symName: '__ZN4pyo35types3any5PyAny7getattr5inner28_$u7b$$u7b$closure$u7d$$u7d$17he4c240e1ceec7907E', symObjAddr: 0x3038, symBinAddr: 0x3C710, symSize: 0x90 }
  - { offset: 0x104350, size: 0x8, addend: 0x0, symName: __ZN4pyo35types3any5PyAny7setattr5inner17hed141c695bde63b5E, symObjAddr: 0x3388, symBinAddr: 0x3CA60, symSize: 0xDC }
  - { offset: 0x10582E, size: 0x8, addend: 0x0, symName: '__ZN62_$LT$pyo3..types..any..PyAny$u20$as$u20$core..fmt..Display$GT$3fmt17h292a223629df9ef5E', symObjAddr: 0x8948, symBinAddr: 0x3CFF8, symSize: 0x274 }
  - { offset: 0x105998, size: 0x8, addend: 0x0, symName: '__ZN79_$LT$pyo3..types..traceback..PyTraceback$u20$as$u20$core..ops..deref..Deref$GT$5deref17ha98289d0cb19c860E', symObjAddr: 0x9728, symBinAddr: 0x3D26C, symSize: 0x14 }
  - { offset: 0x1059CA, size: 0x8, addend: 0x0, symName: '__ZN72_$LT$pyo3..types..traceback..PyTraceback$u20$as$u20$core..fmt..Debug$GT$3fmt17h402c91468e546edfE', symObjAddr: 0x9750, symBinAddr: 0x3D280, symSize: 0x100 }
  - { offset: 0x105F30, size: 0x8, addend: 0x0, symName: __ZN4pyo38instance12PyNativeType2py17h55e4a3d69acda518E, symObjAddr: 0x29F0, symBinAddr: 0x3C30C, symSize: 0x20 }
  - { offset: 0x105F61, size: 0x8, addend: 0x0, symName: __ZN4pyo38instance12PyNativeType18unchecked_downcast17hb0c328eaf3867872E, symObjAddr: 0x2A58, symBinAddr: 0x3C32C, symSize: 0x24 }
  - { offset: 0x105F96, size: 0x8, addend: 0x0, symName: __ZN4pyo38instance12PyNativeType18unchecked_downcast17hf636bf017ee5f2efE, symObjAddr: 0x2A7C, symBinAddr: 0x3C350, symSize: 0x24 }
  - { offset: 0x1062DB, size: 0x8, addend: 0x0, symName: __ZN4pyo35impl_7pyclass17build_pyclass_doc17h61202f48c39e60a0E, symObjAddr: 0x208C, symBinAddr: 0x3BC54, symSize: 0x240 }
  - { offset: 0x10651C, size: 0x8, addend: 0x0, symName: '__ZN4pyo35impl_7pyclass17build_pyclass_doc28_$u7b$$u7b$closure$u7d$$u7d$17h4fc6124a687cf473E', symObjAddr: 0x22CC, symBinAddr: 0x3BE94, symSize: 0x64 }
  - { offset: 0x1065C4, size: 0x8, addend: 0x0, symName: '__ZN97_$LT$pyo3..impl_..pyclass..PyClassItemsIter$u20$as$u20$core..iter..traits..iterator..Iterator$GT$4next17h7194d024d1863a85E', symObjAddr: 0x2358, symBinAddr: 0x3BF20, symSize: 0xD0 }
  - { offset: 0x1065F3, size: 0x8, addend: 0x0, symName: __ZN4pyo35impl_7pyclass30get_sequence_item_from_mapping17h5aefb2c2c882f2a5E, symObjAddr: 0x26D4, symBinAddr: 0x3BFF0, symSize: 0x174 }
  - { offset: 0x1066CC, size: 0x8, addend: 0x0, symName: __ZN4pyo35impl_7pyclass33assign_sequence_item_from_mapping17hc5fcff5f62c01ddcE, symObjAddr: 0x2848, symBinAddr: 0x3C164, symSize: 0x1A8 }
  - { offset: 0x106B60, size: 0x8, addend: 0x0, symName: '__ZN4pyo33err5impls94_$LT$impl$u20$pyo3..err..err_state..PyErrArguments$u20$for$u20$alloc..ffi..c_str..NulError$GT$9arguments17h510a81718858874cE', symObjAddr: 0x819C, symBinAddr: 0x3CF8C, symSize: 0x6C }
  - { offset: 0x107200, size: 0x8, addend: 0x0, symName: __ZN4pyo310conversion13FromPyPointer23from_owned_ptr_or_panic17h9ff83977dbd1c740E, symObjAddr: 0x1C88, symBinAddr: 0x3BA34, symSize: 0x34 }
  - { offset: 0x107251, size: 0x8, addend: 0x0, symName: __ZN4pyo310conversion13FromPyPointer14from_owned_ptr17h1bf4528e76692166E, symObjAddr: 0x1CBC, symBinAddr: 0x3BA68, symSize: 0x24 }
  - { offset: 0x1072A2, size: 0x8, addend: 0x0, symName: __ZN4pyo310conversion13FromPyPointer26from_borrowed_ptr_or_panic17h2fd9bf3b06e64af6E, symObjAddr: 0x1D48, symBinAddr: 0x3BA8C, symSize: 0x34 }
  - { offset: 0x1072F3, size: 0x8, addend: 0x0, symName: __ZN4pyo310conversion13FromPyPointer17from_borrowed_ptr17h7a88fa5a8895ed0dE, symObjAddr: 0x1D7C, symBinAddr: 0x3BAC0, symSize: 0x24 }
  - { offset: 0x10734A, size: 0x8, addend: 0x0, symName: '__ZN53_$LT$T$u20$as$u20$pyo3..conversion..FromPyPointer$GT$21from_owned_ptr_or_opt17h53edc1544795fd3fE', symObjAddr: 0x1DD4, symBinAddr: 0x3BAE4, symSize: 0x70 }
  - { offset: 0x1073B8, size: 0x8, addend: 0x0, symName: '__ZN53_$LT$T$u20$as$u20$pyo3..conversion..FromPyPointer$GT$24from_borrowed_ptr_or_opt17hbd353c15fb74ba36E', symObjAddr: 0x1EB4, symBinAddr: 0x3BB54, symSize: 0x28 }
  - { offset: 0x10741A, size: 0x8, addend: 0x0, symName: __ZN4pyo311conversions3std3num20err_if_invalid_value17hb613aa79acb0071aE, symObjAddr: 0x1FB4, symBinAddr: 0x3BB7C, symSize: 0xD8 }
  - { offset: 0x10749D, size: 0x8, addend: 0x0, symName: '__ZN4pyo311conversions3std3num66_$LT$impl$u20$pyo3..conversion..FromPyObject$u20$for$u20$usize$GT$7extract17h3dc667efd4ace97eE', symObjAddr: 0x7C48, symBinAddr: 0x3CD04, symSize: 0x8C }
  - { offset: 0x107508, size: 0x8, addend: 0x0, symName: '__ZN4pyo311conversions3std3num66_$LT$impl$u20$pyo3..conversion..FromPyObject$u20$for$u20$usize$GT$7extract28_$u7b$$u7b$closure$u7d$$u7d$17h0dcc133c06906d90E', symObjAddr: 0x7CD4, symBinAddr: 0x3CD90, symSize: 0x38 }
  - { offset: 0x107556, size: 0x8, addend: 0x0, symName: '__ZN4pyo311conversions3std3num64_$LT$impl$u20$pyo3..conversion..FromPyObject$u20$for$u20$u64$GT$7extract17h2c3a81614aacfa31E', symObjAddr: 0x7D5C, symBinAddr: 0x3CDC8, symSize: 0x1C4 }
  - { offset: 0x107602, size: 0x8, addend: 0x0, symName: '__ZN114_$LT$pyo3..pyclass_init..PyNativeTypeInitializer$LT$T$GT$$u20$as$u20$pyo3..pyclass_init..PyObjectInit$LT$T$GT$$GT$15into_new_object5inner17hc85d8247b528a278E', symObjAddr: 0x2AA0, symBinAddr: 0x3C374, symSize: 0x1D0 }
  - { offset: 0x107F5B, size: 0x8, addend: 0x0, symName: __ZN8pyo3_ffi10listobject12PyList_Check17h98584d03d0a45b44E, symObjAddr: 0x18E8, symBinAddr: 0x3B9DC, symSize: 0x30 }
  - { offset: 0x108593, size: 0x8, addend: 0x0, symName: __ZN3std3sys12thread_local20abort_on_dtor_unwind17h605d8f03ea57ce30E, symObjAddr: 0x370, symBinAddr: 0x3AE94, symSize: 0x50 }
  - { offset: 0x10861F, size: 0x8, addend: 0x0, symName: __ZN3std9panicking3try7do_call17h465cf9de64dd9b4cE, symObjAddr: 0x3C0, symBinAddr: 0x3AEE4, symSize: 0x8C }
  - { offset: 0x10870F, size: 0x8, addend: 0x0, symName: __ZN3std9panicking3try7do_call17h6e292fbc0d8ea93fE, symObjAddr: 0x44C, symBinAddr: 0x3AF70, symSize: 0x8C }
  - { offset: 0x1087FF, size: 0x8, addend: 0x0, symName: __ZN3std9panicking3try7do_call17h825a7135e94fffb3E, symObjAddr: 0x4D8, symBinAddr: 0x3AFFC, symSize: 0x70 }
  - { offset: 0x1088D1, size: 0x8, addend: 0x0, symName: __ZN3std9panicking3try7do_call17ha336e5f61bd4d472E, symObjAddr: 0x548, symBinAddr: 0x3B06C, symSize: 0x88 }
  - { offset: 0x1089C1, size: 0x8, addend: 0x0, symName: __ZN3std9panicking3try7do_call17hdf90546a81d77bcfE, symObjAddr: 0x5D0, symBinAddr: 0x3B0F4, symSize: 0x88 }
  - { offset: 0x108AB1, size: 0x8, addend: 0x0, symName: __ZN3std9panicking3try8do_catch17h024c6160ee11e009E, symObjAddr: 0x658, symBinAddr: 0x3B17C, symSize: 0x70 }
  - { offset: 0x108B46, size: 0x8, addend: 0x0, symName: __ZN3std9panicking3try8do_catch17h2ddb2e03c68e3fe5E, symObjAddr: 0x6C8, symBinAddr: 0x3B1EC, symSize: 0x70 }
  - { offset: 0x108BDB, size: 0x8, addend: 0x0, symName: __ZN3std9panicking3try8do_catch17h7af4c84497181576E, symObjAddr: 0x738, symBinAddr: 0x3B25C, symSize: 0x70 }
  - { offset: 0x108C70, size: 0x8, addend: 0x0, symName: __ZN3std9panicking3try8do_catch17ha02ae5104031ebd8E, symObjAddr: 0x7A8, symBinAddr: 0x3B2CC, symSize: 0x70 }
  - { offset: 0x108D05, size: 0x8, addend: 0x0, symName: __ZN3std9panicking3try8do_catch17ha3e3f9c4afce1d96E, symObjAddr: 0x818, symBinAddr: 0x3B33C, symSize: 0x70 }
  - { offset: 0x10922A, size: 0x8, addend: 0x0, symName: __ZN5alloc3ffi5c_str7CString3new17h13a4066b3740bc96E, symObjAddr: 0x16C8, symBinAddr: 0x3B874, symSize: 0x28 }
  - { offset: 0x109256, size: 0x8, addend: 0x0, symName: __ZN5alloc3ffi5c_str7CString3new17hd06c7cbfa44bf482E, symObjAddr: 0x16F0, symBinAddr: 0x3B89C, symSize: 0x14 }
  - { offset: 0x1093E6, size: 0x8, addend: 0x0, symName: __ZN4pyo35impl_7pyclass16PyClassItemsIter3new17h88e6b0af0ea2af88E, symObjAddr: 0x2330, symBinAddr: 0x3BEF8, symSize: 0x28 }
  - { offset: 0x10943D, size: 0x8, addend: 0x0, symName: __ZN4pyo35types3any5PyAny2is17hba420a61acba5757E, symObjAddr: 0x2CF4, symBinAddr: 0x3C544, symSize: 0x4C }
  - { offset: 0x109483, size: 0x8, addend: 0x0, symName: __ZN4pyo35types3any5PyAny7getattr17h66a03c449e211dfbE, symObjAddr: 0x2EB8, symBinAddr: 0x3C590, symSize: 0x94 }
  - { offset: 0x1094BC, size: 0x8, addend: 0x0, symName: __ZN4pyo35types3any5PyAny7getattr17he1029729d1f30339E, symObjAddr: 0x2F4C, symBinAddr: 0x3C624, symSize: 0xA0 }
  - { offset: 0x1094F5, size: 0x8, addend: 0x0, symName: __ZN4pyo35types3any5PyAny8_getattr17h6de87cb9a1cdc410E, symObjAddr: 0x30C8, symBinAddr: 0x3C7A0, symSize: 0x9C }
  - { offset: 0x109525, size: 0x8, addend: 0x0, symName: __ZN4pyo35types3any5PyAny7setattr17h655ab8fe5e0a1952E, symObjAddr: 0x3164, symBinAddr: 0x3C83C, symSize: 0x128 }
  - { offset: 0x109596, size: 0x8, addend: 0x0, symName: __ZN4pyo35types3any5PyAny7setattr17heb23c23ef8032401E, symObjAddr: 0x328C, symBinAddr: 0x3C964, symSize: 0xFC }
  - { offset: 0x10965F, size: 0x8, addend: 0x0, symName: __ZN4pyo35types3any5PyAny8get_type17h702958f1036e9e8bE, symObjAddr: 0x4200, symBinAddr: 0x3CB3C, symSize: 0x38 }
  - { offset: 0x1096A9, size: 0x8, addend: 0x0, symName: __ZN4pyo35types3any5PyAny8downcast17h0771ed9eb43cb4d6E, symObjAddr: 0x42A4, symBinAddr: 0x3CB74, symSize: 0x24 }
  - { offset: 0x10981A, size: 0x8, addend: 0x0, symName: __ZN4pyo35types3any5PyAny8downcast17h45a9ce871f71df2fE, symObjAddr: 0x464C, symBinAddr: 0x3CB98, symSize: 0x24 }
  - { offset: 0x109A27, size: 0x8, addend: 0x0, symName: __ZN4pyo35types3any5PyAny8downcast17h927f8fc7dfeec0d1E, symObjAddr: 0x4BC8, symBinAddr: 0x3CBBC, symSize: 0x24 }
  - { offset: 0x109C97, size: 0x8, addend: 0x0, symName: __ZN4pyo35types3any5PyAny7extract17h5e1f11f627238683E, symObjAddr: 0x5438, symBinAddr: 0x3CBE0, symSize: 0x24 }
  - { offset: 0x109CD0, size: 0x8, addend: 0x0, symName: __ZN4pyo35types3any5PyAny7extract17h6fc1f466378078cfE, symObjAddr: 0x5480, symBinAddr: 0x3CC04, symSize: 0x24 }
  - { offset: 0x109D10, size: 0x8, addend: 0x0, symName: __ZN4pyo35types3any5PyAny7extract17hf1b8ee40394d4d4dE, symObjAddr: 0x55A0, symBinAddr: 0x3CC28, symSize: 0x24 }
  - { offset: 0x109D3C, size: 0x8, addend: 0x0, symName: __ZN4pyo35types3any5PyAny4repr17h4c7a740477bd4b5fE, symObjAddr: 0x55EC, symBinAddr: 0x3CC4C, symSize: 0x40 }
  - { offset: 0x109D5F, size: 0x8, addend: 0x0, symName: __ZN4pyo35types3any5PyAny3str17hf4fdf9220821b0faE, symObjAddr: 0x562C, symBinAddr: 0x3CC8C, symSize: 0x40 }
  - { offset: 0x109D82, size: 0x8, addend: 0x0, symName: __ZN4pyo35types3any5PyAny2py17hfed0be887ee4821fE, symObjAddr: 0x59CC, symBinAddr: 0x3CCCC, symSize: 0x24 }
  - { offset: 0x109DA5, size: 0x8, addend: 0x0, symName: __ZN4pyo35types3any5PyAny6as_ptr17haf29c6203da33197E, symObjAddr: 0x59F0, symBinAddr: 0x3CCF0, symSize: 0x14 }
  - { offset: 0x10A06D, size: 0x8, addend: 0x0, symName: '__ZN105_$LT$std..collections..hash..map..Iter$LT$K$C$V$GT$$u20$as$u20$core..iter..traits..iterator..Iterator$GT$4next17h13c73a6e53a1cc39E', symObjAddr: 0x0, symBinAddr: 0x3D380, symSize: 0x24 }
  - { offset: 0x10A0C9, size: 0x8, addend: 0x0, symName: '__ZN5alloc6string94_$LT$impl$u20$core..convert..From$LT$$RF$str$GT$$u20$for$u20$alloc..borrow..Cow$LT$str$GT$$GT$4from17hc6b56594d88f5380E', symObjAddr: 0x40CC, symBinAddr: 0x3F424, symSize: 0x2C }
  - { offset: 0x10A76A, size: 0x8, addend: 0x0, symName: '__ZN77_$LT$alloc..raw_vec..RawVec$LT$T$C$A$GT$$u20$as$u20$core..ops..drop..Drop$GT$4drop17h18c179b5ad5019d3E', symObjAddr: 0x4C6C, symBinAddr: 0x3FEA8, symSize: 0x34 }
  - { offset: 0x10A7A6, size: 0x8, addend: 0x0, symName: '__ZN77_$LT$alloc..raw_vec..RawVec$LT$T$C$A$GT$$u20$as$u20$core..ops..drop..Drop$GT$4drop17h2650047360ccb079E', symObjAddr: 0x4CA0, symBinAddr: 0x3FEDC, symSize: 0x30 }
  - { offset: 0x10A7E2, size: 0x8, addend: 0x0, symName: '__ZN77_$LT$alloc..raw_vec..RawVec$LT$T$C$A$GT$$u20$as$u20$core..ops..drop..Drop$GT$4drop17h443098639aa35f31E', symObjAddr: 0x4CD0, symBinAddr: 0x3FF0C, symSize: 0x34 }
  - { offset: 0x10A81E, size: 0x8, addend: 0x0, symName: '__ZN77_$LT$alloc..raw_vec..RawVec$LT$T$C$A$GT$$u20$as$u20$core..ops..drop..Drop$GT$4drop17h600c8bc19da3746cE', symObjAddr: 0x4D04, symBinAddr: 0x3FF40, symSize: 0x34 }
  - { offset: 0x10A85A, size: 0x8, addend: 0x0, symName: '__ZN77_$LT$alloc..raw_vec..RawVec$LT$T$C$A$GT$$u20$as$u20$core..ops..drop..Drop$GT$4drop17h923623dbc28cf037E', symObjAddr: 0x4D38, symBinAddr: 0x3FF74, symSize: 0x34 }
  - { offset: 0x10A896, size: 0x8, addend: 0x0, symName: '__ZN77_$LT$alloc..raw_vec..RawVec$LT$T$C$A$GT$$u20$as$u20$core..ops..drop..Drop$GT$4drop17hc86f882dc843c05dE', symObjAddr: 0x4D6C, symBinAddr: 0x3FFA8, symSize: 0x34 }
  - { offset: 0x10A8D2, size: 0x8, addend: 0x0, symName: '__ZN77_$LT$alloc..raw_vec..RawVec$LT$T$C$A$GT$$u20$as$u20$core..ops..drop..Drop$GT$4drop17hc8a9ba1ba0ac7ba7E', symObjAddr: 0x4DA0, symBinAddr: 0x3FFDC, symSize: 0x34 }
  - { offset: 0x10A90E, size: 0x8, addend: 0x0, symName: '__ZN77_$LT$alloc..raw_vec..RawVec$LT$T$C$A$GT$$u20$as$u20$core..ops..drop..Drop$GT$4drop17hd0d8de2207fad188E', symObjAddr: 0x4DD4, symBinAddr: 0x40010, symSize: 0x30 }
  - { offset: 0x10A94A, size: 0x8, addend: 0x0, symName: '__ZN77_$LT$alloc..raw_vec..RawVec$LT$T$C$A$GT$$u20$as$u20$core..ops..drop..Drop$GT$4drop17hf490b8905dd43469E', symObjAddr: 0x4E04, symBinAddr: 0x40040, symSize: 0x34 }
  - { offset: 0x10A986, size: 0x8, addend: 0x0, symName: '__ZN77_$LT$alloc..raw_vec..RawVec$LT$T$C$A$GT$$u20$as$u20$core..ops..drop..Drop$GT$4drop17hf4ee7196c6ef1208E', symObjAddr: 0x4E38, symBinAddr: 0x40074, symSize: 0x34 }
  - { offset: 0x10AAA2, size: 0x8, addend: 0x0, symName: '__ZN66_$LT$alloc..borrow..Cow$LT$B$GT$$u20$as$u20$core..fmt..Display$GT$3fmt17hb16f070be71d1413E', symObjAddr: 0x4750, symBinAddr: 0x3FAA8, symSize: 0x8C }
  - { offset: 0x10AB50, size: 0x8, addend: 0x0, symName: '__ZN71_$LT$alloc..borrow..Cow$LT$B$GT$$u20$as$u20$core..ops..deref..Deref$GT$5deref17h1e251661ed17bec6E', symObjAddr: 0x496C, symBinAddr: 0x3FCC4, symSize: 0x80 }
  - { offset: 0x10ABC3, size: 0x8, addend: 0x0, symName: '__ZN71_$LT$alloc..borrow..Cow$LT$B$GT$$u20$as$u20$core..ops..deref..Deref$GT$5deref17h5ce6e999f5708ab1E', symObjAddr: 0x49EC, symBinAddr: 0x3FD44, symSize: 0x78 }
  - { offset: 0x10AD53, size: 0x8, addend: 0x0, symName: '__ZN5alloc5slice29_$LT$impl$u20$$u5b$T$u5d$$GT$6to_vec17ha5bc364af572b05dE', symObjAddr: 0x40A4, symBinAddr: 0x3F3FC, symSize: 0x28 }
  - { offset: 0x10CBCD, size: 0x8, addend: 0x0, symName: '__ZN145_$LT$core..option..Option$LT$T$GT$$u20$as$u20$core..ops..try_trait..FromResidual$LT$core..option..Option$LT$core..convert..Infallible$GT$$GT$$GT$13from_residual17h1d310db3b793ee84E', symObjAddr: 0xD0, symBinAddr: 0x3D3F0, symSize: 0x14 }
  - { offset: 0x10CC0F, size: 0x8, addend: 0x0, symName: '__ZN145_$LT$core..option..Option$LT$T$GT$$u20$as$u20$core..ops..try_trait..FromResidual$LT$core..option..Option$LT$core..convert..Infallible$GT$$GT$$GT$13from_residual17h1e587e101d46dff0E', symObjAddr: 0x10C, symBinAddr: 0x3D404, symSize: 0x14 }
  - { offset: 0x10CC51, size: 0x8, addend: 0x0, symName: '__ZN145_$LT$core..option..Option$LT$T$GT$$u20$as$u20$core..ops..try_trait..FromResidual$LT$core..option..Option$LT$core..convert..Infallible$GT$$GT$$GT$13from_residual17h366f7692bc4f7908E', symObjAddr: 0x170, symBinAddr: 0x3D418, symSize: 0x14 }
  - { offset: 0x10CC93, size: 0x8, addend: 0x0, symName: '__ZN145_$LT$core..option..Option$LT$T$GT$$u20$as$u20$core..ops..try_trait..FromResidual$LT$core..option..Option$LT$core..convert..Infallible$GT$$GT$$GT$13from_residual17h5ad8453108480c32E', symObjAddr: 0x1C4, symBinAddr: 0x3D42C, symSize: 0x14 }
  - { offset: 0x10CCD5, size: 0x8, addend: 0x0, symName: '__ZN145_$LT$core..option..Option$LT$T$GT$$u20$as$u20$core..ops..try_trait..FromResidual$LT$core..option..Option$LT$core..convert..Infallible$GT$$GT$$GT$13from_residual17h6d2d8d7f8bd8c6cbE', symObjAddr: 0x1EC, symBinAddr: 0x3D440, symSize: 0x14 }
  - { offset: 0x10CD17, size: 0x8, addend: 0x0, symName: '__ZN145_$LT$core..option..Option$LT$T$GT$$u20$as$u20$core..ops..try_trait..FromResidual$LT$core..option..Option$LT$core..convert..Infallible$GT$$GT$$GT$13from_residual17h8069f150ed238c8fE', symObjAddr: 0x228, symBinAddr: 0x3D454, symSize: 0x14 }
  - { offset: 0x10CD59, size: 0x8, addend: 0x0, symName: '__ZN145_$LT$core..option..Option$LT$T$GT$$u20$as$u20$core..ops..try_trait..FromResidual$LT$core..option..Option$LT$core..convert..Infallible$GT$$GT$$GT$13from_residual17hbdccd4e145378e6bE', symObjAddr: 0x27C, symBinAddr: 0x3D468, symSize: 0x18 }
  - { offset: 0x10EBF7, size: 0x8, addend: 0x0, symName: '__ZN66_$LT$core..option..Option$LT$T$GT$$u20$as$u20$core..fmt..Debug$GT$3fmt17hb5a25eb872c0ca45E', symObjAddr: 0x47DC, symBinAddr: 0x3FB34, symSize: 0x98 }
  - { offset: 0x10EC5B, size: 0x8, addend: 0x0, symName: '__ZN66_$LT$core..option..Option$LT$T$GT$$u20$as$u20$core..fmt..Debug$GT$3fmt17hfe22dd85f35dc4e1E', symObjAddr: 0x4874, symBinAddr: 0x3FBCC, symSize: 0x9C }
  - { offset: 0x10ECC5, size: 0x8, addend: 0x0, symName: '__ZN68_$LT$core..option..Option$LT$T$GT$$u20$as$u20$core..clone..Clone$GT$5clone17h8d73ed92dc7e65d9E', symObjAddr: 0x4910, symBinAddr: 0x3FC68, symSize: 0x5C }
  - { offset: 0x10ED20, size: 0x8, addend: 0x0, symName: '__ZN72_$LT$core..option..Option$LT$T$GT$$u20$as$u20$core..default..Default$GT$7default17h59f30a98878378c3E', symObjAddr: 0x4A64, symBinAddr: 0x3FDBC, symSize: 0x14 }
  - { offset: 0x10ED48, size: 0x8, addend: 0x0, symName: '__ZN72_$LT$core..option..Option$LT$T$GT$$u20$as$u20$core..default..Default$GT$7default17h69fc99b5266f0418E', symObjAddr: 0x4A78, symBinAddr: 0x3FDD0, symSize: 0x18 }
  - { offset: 0x10ED70, size: 0x8, addend: 0x0, symName: '__ZN72_$LT$core..option..Option$LT$T$GT$$u20$as$u20$core..default..Default$GT$7default17he6b49281f2ad19a8E', symObjAddr: 0x4A90, symBinAddr: 0x3FDE8, symSize: 0x14 }
  - { offset: 0x10ED9E, size: 0x8, addend: 0x0, symName: '__ZN75_$LT$core..option..Option$LT$T$GT$$u20$as$u20$core..ops..try_trait..Try$GT$11from_output17h2f8f03bcabe73f85E', symObjAddr: 0x4AA4, symBinAddr: 0x3FDFC, symSize: 0x24 }
  - { offset: 0x10EDD5, size: 0x8, addend: 0x0, symName: '__ZN75_$LT$core..option..Option$LT$T$GT$$u20$as$u20$core..ops..try_trait..Try$GT$6branch17h05f9cb9242dd5324E', symObjAddr: 0x4AE0, symBinAddr: 0x3FE20, symSize: 0x40 }
  - { offset: 0x10EE2A, size: 0x8, addend: 0x0, symName: '__ZN75_$LT$core..option..Option$LT$T$GT$$u20$as$u20$core..ops..try_trait..Try$GT$6branch17hb77248f9b4304908E', symObjAddr: 0x4BA4, symBinAddr: 0x3FE60, symSize: 0x48 }
  - { offset: 0x10F0FC, size: 0x8, addend: 0x0, symName: '__ZN42_$LT$$RF$T$u20$as$u20$core..fmt..Debug$GT$3fmt17h424cb61b807d6849E', symObjAddr: 0x6FC, symBinAddr: 0x3D87C, symSize: 0x30 }
  - { offset: 0x10FD7C, size: 0x8, addend: 0x0, symName: __ZN4core4iter6traits8iterator8Iterator3map17h05194668ac1a7105E, symObjAddr: 0xA00, symBinAddr: 0x3D8E8, symSize: 0x50 }
  - { offset: 0x10FDFC, size: 0x8, addend: 0x0, symName: __ZN4core4iter6traits8iterator8Iterator8try_fold17h46c4a05e7494a9f9E, symObjAddr: 0xA50, symBinAddr: 0x3D938, symSize: 0x15C }
  - { offset: 0x10FFF6, size: 0x8, addend: 0x0, symName: '__ZN4core5slice4iter87_$LT$impl$u20$core..iter..traits..collect..IntoIterator$u20$for$u20$$RF$$u5b$T$u5d$$GT$9into_iter17h563ab1656f8b3916E', symObjAddr: 0xBAC, symBinAddr: 0x3DA94, symSize: 0x50 }
  - { offset: 0x110189, size: 0x8, addend: 0x0, symName: '__ZN50_$LT$T$u20$as$u20$core..convert..Into$LT$U$GT$$GT$4into17he4d9555d9ede313fE', symObjAddr: 0x405C, symBinAddr: 0x3F3E8, symSize: 0x14 }
  - { offset: 0x1101DB, size: 0x8, addend: 0x0, symName: '__ZN185_$LT$core..ops..control_flow..ControlFlow$LT$B$C$C$GT$$u20$as$u20$core..ops..try_trait..FromResidual$LT$core..ops..control_flow..ControlFlow$LT$B$C$core..convert..Infallible$GT$$GT$$GT$13from_residual17h3b861bd2a9331a79E', symObjAddr: 0x2E4, symBinAddr: 0x3D480, symSize: 0x34 }
  - { offset: 0x110236, size: 0x8, addend: 0x0, symName: '__ZN185_$LT$core..ops..control_flow..ControlFlow$LT$B$C$C$GT$$u20$as$u20$core..ops..try_trait..FromResidual$LT$core..ops..control_flow..ControlFlow$LT$B$C$core..convert..Infallible$GT$$GT$$GT$13from_residual17h62ade09372a10420E', symObjAddr: 0x318, symBinAddr: 0x3D4B4, symSize: 0x58 }
  - { offset: 0x110292, size: 0x8, addend: 0x0, symName: '__ZN185_$LT$core..ops..control_flow..ControlFlow$LT$B$C$C$GT$$u20$as$u20$core..ops..try_trait..FromResidual$LT$core..ops..control_flow..ControlFlow$LT$B$C$core..convert..Infallible$GT$$GT$$GT$13from_residual17hec321a79756bbc74E', symObjAddr: 0x370, symBinAddr: 0x3D50C, symSize: 0x48 }
  - { offset: 0x1102F9, size: 0x8, addend: 0x0, symName: __ZN4core3ops12control_flow11ControlFlow5Break17h605bd71f0166ba7dE, symObjAddr: 0x9A4, symBinAddr: 0x3D8AC, symSize: 0x3C }
  - { offset: 0x11033B, size: 0x8, addend: 0x0, symName: '__ZN95_$LT$core..ops..control_flow..ControlFlow$LT$B$C$C$GT$$u20$as$u20$core..ops..try_trait..Try$GT$11from_output17h7d4f865f39ccb405E', symObjAddr: 0x5C38, symBinAddr: 0x400A8, symSize: 0x18 }
  - { offset: 0x110379, size: 0x8, addend: 0x0, symName: '__ZN95_$LT$core..ops..control_flow..ControlFlow$LT$B$C$C$GT$$u20$as$u20$core..ops..try_trait..Try$GT$11from_output17hc080f30ac871cba5E', symObjAddr: 0x5C50, symBinAddr: 0x400C0, symSize: 0x18 }
  - { offset: 0x1103B7, size: 0x8, addend: 0x0, symName: '__ZN95_$LT$core..ops..control_flow..ControlFlow$LT$B$C$C$GT$$u20$as$u20$core..ops..try_trait..Try$GT$11from_output17hf2dafe004924d0dfE', symObjAddr: 0x5C80, symBinAddr: 0x400D8, symSize: 0x10 }
  - { offset: 0x1103F5, size: 0x8, addend: 0x0, symName: '__ZN95_$LT$core..ops..control_flow..ControlFlow$LT$B$C$C$GT$$u20$as$u20$core..ops..try_trait..Try$GT$6branch17h88c8d4dc4352f1adE', symObjAddr: 0x5C90, symBinAddr: 0x400E8, symSize: 0x88 }
  - { offset: 0x11046D, size: 0x8, addend: 0x0, symName: '__ZN95_$LT$core..ops..control_flow..ControlFlow$LT$B$C$C$GT$$u20$as$u20$core..ops..try_trait..Try$GT$6branch17h93ddad59f1e74e74E', symObjAddr: 0x5D18, symBinAddr: 0x40170, symSize: 0x90 }
  - { offset: 0x1104E5, size: 0x8, addend: 0x0, symName: '__ZN95_$LT$core..ops..control_flow..ControlFlow$LT$B$C$C$GT$$u20$as$u20$core..ops..try_trait..Try$GT$6branch17hbe4a9c629110d6f4E', symObjAddr: 0x5DA8, symBinAddr: 0x40200, symSize: 0x64 }
  - { offset: 0x111525, size: 0x8, addend: 0x0, symName: '__ZN120_$LT$pyo3..derive_utils..PyFunctionArguments$u20$as$u20$core..convert..From$LT$$RF$pyo3..types..module..PyModule$GT$$GT$4from17hafed650ea5394865E', symObjAddr: 0x5F48, symBinAddr: 0x40328, symSize: 0x1C }
  - { offset: 0x111558, size: 0x8, addend: 0x0, symName: __ZN4pyo311type_object12get_tp_alloc17hf6a548228b33ae42E, symObjAddr: 0x60BC, symBinAddr: 0x40344, symSize: 0x54 }
  - { offset: 0x112175, size: 0x8, addend: 0x0, symName: '__ZN105_$LT$std..collections..hash..map..Iter$LT$K$C$V$GT$$u20$as$u20$core..iter..traits..iterator..Iterator$GT$4next17h13c73a6e53a1cc39E', symObjAddr: 0x0, symBinAddr: 0x3D380, symSize: 0x24 }
  - { offset: 0x1121B5, size: 0x8, addend: 0x0, symName: '__ZN105_$LT$std..collections..hash..map..Iter$LT$K$C$V$GT$$u20$as$u20$core..iter..traits..iterator..Iterator$GT$9size_hint17h79afb992bbbcabfbE', symObjAddr: 0x24, symBinAddr: 0x3D3A4, symSize: 0x4C }
  - { offset: 0x112D34, size: 0x8, addend: 0x0, symName: '__ZN3std11collections4hash3map18Entry$LT$K$C$V$GT$10or_default17h230ccb853ba89bc9E', symObjAddr: 0x3D4, symBinAddr: 0x3D554, symSize: 0x198 }
  - { offset: 0x112F69, size: 0x8, addend: 0x0, symName: '__ZN3std11collections4hash3map20HashMap$LT$K$C$V$GT$3new17hd58ff22f73ebfd9bE', symObjAddr: 0x56C, symBinAddr: 0x3D6EC, symSize: 0x7C }
  - { offset: 0x1130A2, size: 0x8, addend: 0x0, symName: '__ZN3std11collections4hash3map24HashMap$LT$K$C$V$C$S$GT$3len17hcf9c9614f7251c5cE', symObjAddr: 0x5E8, symBinAddr: 0x3D768, symSize: 0x28 }
  - { offset: 0x11311C, size: 0x8, addend: 0x0, symName: '__ZN3std11collections4hash3map24HashMap$LT$K$C$V$C$S$GT$4iter17h8f126142a88485acE', symObjAddr: 0x610, symBinAddr: 0x3D790, symSize: 0x44 }
  - { offset: 0x113167, size: 0x8, addend: 0x0, symName: '__ZN3std11collections4hash3map24HashMap$LT$K$C$V$C$S$GT$5entry17hcfb2e1f3b1d48a4eE', symObjAddr: 0x654, symBinAddr: 0x3D7D4, symSize: 0xA8 }
  - { offset: 0x113416, size: 0x8, addend: 0x0, symName: '__ZN4core6option15Option$LT$T$GT$10ok_or_else17h1b5472d2a85b6932E', symObjAddr: 0xD68, symBinAddr: 0x3DAE4, symSize: 0x80 }
  - { offset: 0x11348E, size: 0x8, addend: 0x0, symName: '__ZN4core6option15Option$LT$T$GT$10ok_or_else17h5f66c944fc4f8946E', symObjAddr: 0x10E8, symBinAddr: 0x3DB64, symSize: 0x80 }
  - { offset: 0x113513, size: 0x8, addend: 0x0, symName: '__ZN4core6option15Option$LT$T$GT$10ok_or_else17hdab36a52af4b4978E', symObjAddr: 0x1368, symBinAddr: 0x3DBE4, symSize: 0x80 }
  - { offset: 0x11364F, size: 0x8, addend: 0x0, symName: '__ZN4core6option15Option$LT$T$GT$11map_or_else17hb654fe9979fc11f3E', symObjAddr: 0x15C4, symBinAddr: 0x3DC64, symSize: 0xCC }
  - { offset: 0x1136EC, size: 0x8, addend: 0x0, symName: '__ZN4core6option15Option$LT$T$GT$14unwrap_or_else17h14af016eacbe3b10E', symObjAddr: 0x1690, symBinAddr: 0x3DD30, symSize: 0x5C }
  - { offset: 0x11374E, size: 0x8, addend: 0x0, symName: '__ZN4core6option15Option$LT$T$GT$14unwrap_or_else17h1773785c1ad2ad94E', symObjAddr: 0x16EC, symBinAddr: 0x3DD8C, symSize: 0x5C }
  - { offset: 0x1137CA, size: 0x8, addend: 0x0, symName: '__ZN4core6option15Option$LT$T$GT$14unwrap_or_else17h570dea99f8c2e606E', symObjAddr: 0x17FC, symBinAddr: 0x3DDE8, symSize: 0x5C }
  - { offset: 0x11382C, size: 0x8, addend: 0x0, symName: '__ZN4core6option15Option$LT$T$GT$14unwrap_or_else17h594596c9b9c5a628E', symObjAddr: 0x1858, symBinAddr: 0x3DE44, symSize: 0x5C }
  - { offset: 0x11388E, size: 0x8, addend: 0x0, symName: '__ZN4core6option15Option$LT$T$GT$14unwrap_or_else17h6caefe6504982860E', symObjAddr: 0x196C, symBinAddr: 0x3DEA0, symSize: 0x70 }
  - { offset: 0x1138FE, size: 0x8, addend: 0x0, symName: '__ZN4core6option15Option$LT$T$GT$14unwrap_or_else17h7881c8888574fa02E', symObjAddr: 0x19DC, symBinAddr: 0x3DF10, symSize: 0x5C }
  - { offset: 0x113960, size: 0x8, addend: 0x0, symName: '__ZN4core6option15Option$LT$T$GT$14unwrap_or_else17hc3cf0178d90ab9ecE', symObjAddr: 0x1C60, symBinAddr: 0x3DF6C, symSize: 0x5C }
  - { offset: 0x1139C2, size: 0x8, addend: 0x0, symName: '__ZN4core6option15Option$LT$T$GT$14unwrap_or_else17hf880de7a9c818105E', symObjAddr: 0x1D18, symBinAddr: 0x3DFC8, symSize: 0x5C }
  - { offset: 0x113A42, size: 0x8, addend: 0x0, symName: '__ZN4core6option15Option$LT$T$GT$3map17h02428964c8ee4c62E', symObjAddr: 0x1E48, symBinAddr: 0x3E024, symSize: 0x5C }
  - { offset: 0x113AC5, size: 0x8, addend: 0x0, symName: '__ZN4core6option15Option$LT$T$GT$3map17h0b8baac307627ef4E', symObjAddr: 0x1F10, symBinAddr: 0x3E080, symSize: 0x70 }
  - { offset: 0x113B30, size: 0x8, addend: 0x0, symName: '__ZN4core6option15Option$LT$T$GT$3map17h165e67d1e64a4322E', symObjAddr: 0x2058, symBinAddr: 0x3E0F0, symSize: 0x5C }
  - { offset: 0x113BA8, size: 0x8, addend: 0x0, symName: '__ZN4core6option15Option$LT$T$GT$3map17h186776108ae634d8E', symObjAddr: 0x2130, symBinAddr: 0x3E14C, symSize: 0x50 }
  - { offset: 0x113C13, size: 0x8, addend: 0x0, symName: '__ZN4core6option15Option$LT$T$GT$3map17h219ebfd79831e6e6E', symObjAddr: 0x2180, symBinAddr: 0x3E19C, symSize: 0x50 }
  - { offset: 0x113C96, size: 0x8, addend: 0x0, symName: '__ZN4core6option15Option$LT$T$GT$3map17h2a77046d6ca39ea0E', symObjAddr: 0x224C, symBinAddr: 0x3E1EC, symSize: 0x6C }
  - { offset: 0x113D01, size: 0x8, addend: 0x0, symName: '__ZN4core6option15Option$LT$T$GT$3map17h403a1d93eaac64caE', symObjAddr: 0x2374, symBinAddr: 0x3E258, symSize: 0x74 }
  - { offset: 0x113D85, size: 0x8, addend: 0x0, symName: '__ZN4core6option15Option$LT$T$GT$3map17h460789de27073c6fE', symObjAddr: 0x2444, symBinAddr: 0x3E2CC, symSize: 0x7C }
  - { offset: 0x113DF0, size: 0x8, addend: 0x0, symName: '__ZN4core6option15Option$LT$T$GT$3map17h471783669e7d4a48E', symObjAddr: 0x24C0, symBinAddr: 0x3E348, symSize: 0x50 }
  - { offset: 0x113E73, size: 0x8, addend: 0x0, symName: '__ZN4core6option15Option$LT$T$GT$3map17h53524cc888039cbaE', symObjAddr: 0x25F4, symBinAddr: 0x3E398, symSize: 0x64 }
  - { offset: 0x113EDE, size: 0x8, addend: 0x0, symName: '__ZN4core6option15Option$LT$T$GT$3map17h72069825722b3d53E', symObjAddr: 0x26C4, symBinAddr: 0x3E3FC, symSize: 0x50 }
  - { offset: 0x113F49, size: 0x8, addend: 0x0, symName: '__ZN4core6option15Option$LT$T$GT$3map17h75b5bf25ccacf7b6E', symObjAddr: 0x2780, symBinAddr: 0x3E44C, symSize: 0x5C }
  - { offset: 0x113FC1, size: 0x8, addend: 0x0, symName: '__ZN4core6option15Option$LT$T$GT$3map17h7ac440041af84d87E', symObjAddr: 0x27DC, symBinAddr: 0x3E4A8, symSize: 0x50 }
  - { offset: 0x114051, size: 0x8, addend: 0x0, symName: '__ZN4core6option15Option$LT$T$GT$3map17hb59628418221420eE', symObjAddr: 0x29E8, symBinAddr: 0x3E4F8, symSize: 0x5C }
  - { offset: 0x1140BC, size: 0x8, addend: 0x0, symName: '__ZN4core6option15Option$LT$T$GT$3map17hb6c22beeac13111fE', symObjAddr: 0x2A44, symBinAddr: 0x3E554, symSize: 0x50 }
  - { offset: 0x114134, size: 0x8, addend: 0x0, symName: '__ZN4core6option15Option$LT$T$GT$3map17hd05e94892dacd2bbE', symObjAddr: 0x2B5C, symBinAddr: 0x3E5A4, symSize: 0x50 }
  - { offset: 0x11419F, size: 0x8, addend: 0x0, symName: '__ZN4core6option15Option$LT$T$GT$3map17hf2770edb9b904d5cE', symObjAddr: 0x2BAC, symBinAddr: 0x3E5F4, symSize: 0x5C }
  - { offset: 0x11420A, size: 0x8, addend: 0x0, symName: '__ZN4core6option15Option$LT$T$GT$3map17hf6c6ba077bde4e2aE', symObjAddr: 0x2C08, symBinAddr: 0x3E650, symSize: 0x5C }
  - { offset: 0x1142A0, size: 0x8, addend: 0x0, symName: '__ZN4core6option15Option$LT$T$GT$4take17h23a5f6fb9bb6ced5E', symObjAddr: 0x2C64, symBinAddr: 0x3E6AC, symSize: 0x3C }
  - { offset: 0x114359, size: 0x8, addend: 0x0, symName: '__ZN4core6option15Option$LT$T$GT$4take17h632f2b8941ea0b38E', symObjAddr: 0x2CA0, symBinAddr: 0x3E6E8, symSize: 0x38 }
  - { offset: 0x114412, size: 0x8, addend: 0x0, symName: '__ZN4core6option15Option$LT$T$GT$4take17h926b44da34712e06E', symObjAddr: 0x2CD8, symBinAddr: 0x3E720, symSize: 0x3C }
  - { offset: 0x1144CB, size: 0x8, addend: 0x0, symName: '__ZN4core6option15Option$LT$T$GT$4take17h92e3e49627376e48E', symObjAddr: 0x2D14, symBinAddr: 0x3E75C, symSize: 0x38 }
  - { offset: 0x114591, size: 0x8, addend: 0x0, symName: '__ZN4core6option15Option$LT$T$GT$6as_ref17h48e288469d84aee0E', symObjAddr: 0x2DCC, symBinAddr: 0x3E794, symSize: 0x4C }
  - { offset: 0x1145F5, size: 0x8, addend: 0x0, symName: '__ZN4core6option15Option$LT$T$GT$6as_ref17h6c8516d4c2ddbbf4E', symObjAddr: 0x2E18, symBinAddr: 0x3E7E0, symSize: 0x4C }
  - { offset: 0x114659, size: 0x8, addend: 0x0, symName: '__ZN4core6option15Option$LT$T$GT$6as_ref17h80bdb06897ba0347E', symObjAddr: 0x2E64, symBinAddr: 0x3E82C, symSize: 0x4C }
  - { offset: 0x1146BD, size: 0x8, addend: 0x0, symName: '__ZN4core6option15Option$LT$T$GT$6as_ref17h81b2c2358a7f2d3bE', symObjAddr: 0x2EB0, symBinAddr: 0x3E878, symSize: 0x4C }
  - { offset: 0x114714, size: 0x8, addend: 0x0, symName: '__ZN4core6option15Option$LT$T$GT$6as_ref17h95edd1f060c5166bE', symObjAddr: 0x2EFC, symBinAddr: 0x3E8C4, symSize: 0x48 }
  - { offset: 0x114778, size: 0x8, addend: 0x0, symName: '__ZN4core6option15Option$LT$T$GT$6as_ref17hc27b582d796262f4E', symObjAddr: 0x2F44, symBinAddr: 0x3E90C, symSize: 0x50 }
  - { offset: 0x1147CF, size: 0x8, addend: 0x0, symName: '__ZN4core6option15Option$LT$T$GT$6as_ref17hc7fc3452711ae0eaE', symObjAddr: 0x2F94, symBinAddr: 0x3E95C, symSize: 0x4C }
  - { offset: 0x114833, size: 0x8, addend: 0x0, symName: '__ZN4core6option15Option$LT$T$GT$6as_ref17hfb260fa1dfafc99dE', symObjAddr: 0x2FE0, symBinAddr: 0x3E9A8, symSize: 0x4C }
  - { offset: 0x11487D, size: 0x8, addend: 0x0, symName: '__ZN4core6option15Option$LT$T$GT$6expect17h626b126434c95ca7E', symObjAddr: 0x302C, symBinAddr: 0x3E9F4, symSize: 0x5C }
  - { offset: 0x1148B8, size: 0x8, addend: 0x0, symName: '__ZN4core6option15Option$LT$T$GT$6expect17h76067b1cfb801834E', symObjAddr: 0x3088, symBinAddr: 0x3EA50, symSize: 0x70 }
  - { offset: 0x1148F4, size: 0x8, addend: 0x0, symName: '__ZN4core6option15Option$LT$T$GT$6expect17h9c75223884821a61E', symObjAddr: 0x30F8, symBinAddr: 0x3EAC0, symSize: 0x5C }
  - { offset: 0x114947, size: 0x8, addend: 0x0, symName: '__ZN4core6option15Option$LT$T$GT$6map_or17h30779cff82c01378E', symObjAddr: 0x3154, symBinAddr: 0x3EB1C, symSize: 0xA8 }
  - { offset: 0x1149D1, size: 0x8, addend: 0x0, symName: '__ZN4core6option15Option$LT$T$GT$6map_or17h4eb5cf6623b0a19aE', symObjAddr: 0x31FC, symBinAddr: 0x3EBC4, symSize: 0xA8 }
  - { offset: 0x114A5B, size: 0x8, addend: 0x0, symName: '__ZN4core6option15Option$LT$T$GT$6map_or17h5be5682b8666622aE', symObjAddr: 0x32A4, symBinAddr: 0x3EC6C, symSize: 0xB4 }
  - { offset: 0x114ACD, size: 0x8, addend: 0x0, symName: '__ZN4core6option15Option$LT$T$GT$6map_or17h63f449f7ce33019bE', symObjAddr: 0x3358, symBinAddr: 0x3ED20, symSize: 0xA8 }
  - { offset: 0x114B57, size: 0x8, addend: 0x0, symName: '__ZN4core6option15Option$LT$T$GT$6map_or17hf29c72258af7c4abE', symObjAddr: 0x3758, symBinAddr: 0x3EDC8, symSize: 0xA8 }
  - { offset: 0x114BE5, size: 0x8, addend: 0x0, symName: '__ZN4core6option15Option$LT$T$GT$7is_none17h095c34ad3f381161E', symObjAddr: 0x3800, symBinAddr: 0x3EE70, symSize: 0x4C }
  - { offset: 0x114C58, size: 0x8, addend: 0x0, symName: '__ZN4core6option15Option$LT$T$GT$7is_none17ha25f07a193a76b05E', symObjAddr: 0x384C, symBinAddr: 0x3EEBC, symSize: 0x4C }
  - { offset: 0x114CBE, size: 0x8, addend: 0x0, symName: '__ZN4core6option15Option$LT$T$GT$7is_none17hb52c3e68831f020fE', symObjAddr: 0x3898, symBinAddr: 0x3EF08, symSize: 0x4C }
  - { offset: 0x114D08, size: 0x8, addend: 0x0, symName: '__ZN4core6option15Option$LT$T$GT$7is_some17h4e0ceced58d8183fE', symObjAddr: 0x38E4, symBinAddr: 0x3EF54, symSize: 0x44 }
  - { offset: 0x114D34, size: 0x8, addend: 0x0, symName: '__ZN4core6option15Option$LT$T$GT$7is_some17h7090eefca1005d03E', symObjAddr: 0x3928, symBinAddr: 0x3EF98, symSize: 0x48 }
  - { offset: 0x114D60, size: 0x8, addend: 0x0, symName: '__ZN4core6option15Option$LT$T$GT$7is_some17h7defb1038ad3d538E', symObjAddr: 0x3970, symBinAddr: 0x3EFE0, symSize: 0x48 }
  - { offset: 0x114D8C, size: 0x8, addend: 0x0, symName: '__ZN4core6option15Option$LT$T$GT$7is_some17h833fc7b7f60857b7E', symObjAddr: 0x39B8, symBinAddr: 0x3F028, symSize: 0x48 }
  - { offset: 0x114DC5, size: 0x8, addend: 0x0, symName: '__ZN4core6option15Option$LT$T$GT$7is_some17h9f867758d045c3a1E', symObjAddr: 0x3A00, symBinAddr: 0x3F070, symSize: 0x40 }
  - { offset: 0x114DFE, size: 0x8, addend: 0x0, symName: '__ZN4core6option15Option$LT$T$GT$7is_some17hbd50727ff3234042E', symObjAddr: 0x3A40, symBinAddr: 0x3F0B0, symSize: 0x48 }
  - { offset: 0x114E2A, size: 0x8, addend: 0x0, symName: '__ZN4core6option15Option$LT$T$GT$7is_some17hd941c6e30cdd7fdbE', symObjAddr: 0x3A88, symBinAddr: 0x3F0F8, symSize: 0x48 }
  - { offset: 0x114E56, size: 0x8, addend: 0x0, symName: '__ZN4core6option15Option$LT$T$GT$7is_some17hf520f955afad9854E', symObjAddr: 0x3AD0, symBinAddr: 0x3F140, symSize: 0x4C }
  - { offset: 0x114E82, size: 0x8, addend: 0x0, symName: '__ZN4core6option15Option$LT$T$GT$8and_then17h5ab26567c2c784d6E', symObjAddr: 0x3BF0, symBinAddr: 0x3F18C, symSize: 0x5C }
  - { offset: 0x114F7B, size: 0x8, addend: 0x0, symName: '__ZN4core6option15Option$LT$T$GT$8as_deref17h873c7bae13529891E', symObjAddr: 0x3C4C, symBinAddr: 0x3F1E8, symSize: 0x74 }
  - { offset: 0x115025, size: 0x8, addend: 0x0, symName: '__ZN4core6option15Option$LT$T$GT$9unwrap_or17ha5adb74cb38b0ce6E', symObjAddr: 0x3D08, symBinAddr: 0x3F25C, symSize: 0x70 }
  - { offset: 0x11507F, size: 0x8, addend: 0x0, symName: '__ZN4core6option15Option$LT$T$GT$9unwrap_or17hd7f97fd42d25b84eE', symObjAddr: 0x3DC4, symBinAddr: 0x3F2CC, symSize: 0x4C }
  - { offset: 0x1150D8, size: 0x8, addend: 0x0, symName: '__ZN4core6option47Option$LT$core..result..Result$LT$T$C$E$GT$$GT$9transpose17h22807d4f45b92952E', symObjAddr: 0x3E10, symBinAddr: 0x3F318, symSize: 0xD0 }
  - { offset: 0x1151BB, size: 0x8, addend: 0x0, symName: '__ZN5alloc7raw_vec19RawVec$LT$T$C$A$GT$8grow_one17h02e3207fbe942deaE', symObjAddr: 0x40F8, symBinAddr: 0x3F450, symSize: 0x90 }
  - { offset: 0x115269, size: 0x8, addend: 0x0, symName: '__ZN5alloc7raw_vec19RawVec$LT$T$C$A$GT$8grow_one17h195986c3eddbd531E', symObjAddr: 0x4188, symBinAddr: 0x3F4E0, symSize: 0x90 }
  - { offset: 0x115317, size: 0x8, addend: 0x0, symName: '__ZN5alloc7raw_vec19RawVec$LT$T$C$A$GT$8grow_one17h1b7c2a680c1a867bE', symObjAddr: 0x4218, symBinAddr: 0x3F570, symSize: 0x8C }
  - { offset: 0x1153C5, size: 0x8, addend: 0x0, symName: '__ZN5alloc7raw_vec19RawVec$LT$T$C$A$GT$8grow_one17h60dfd44f2715fc56E', symObjAddr: 0x42A4, symBinAddr: 0x3F5FC, symSize: 0x90 }
  - { offset: 0x115473, size: 0x8, addend: 0x0, symName: '__ZN5alloc7raw_vec19RawVec$LT$T$C$A$GT$8grow_one17h6ea7f13f67b63393E', symObjAddr: 0x4334, symBinAddr: 0x3F68C, symSize: 0x90 }
  - { offset: 0x115521, size: 0x8, addend: 0x0, symName: '__ZN5alloc7raw_vec19RawVec$LT$T$C$A$GT$8grow_one17h7874869f2edb3bc1E', symObjAddr: 0x43C4, symBinAddr: 0x3F71C, symSize: 0x90 }
  - { offset: 0x1155ED, size: 0x8, addend: 0x0, symName: '__ZN5alloc7raw_vec19RawVec$LT$T$C$A$GT$8grow_one17hd66fae2baf2231dcE', symObjAddr: 0x4454, symBinAddr: 0x3F7AC, symSize: 0x90 }
  - { offset: 0x11569B, size: 0x8, addend: 0x0, symName: '__ZN5alloc7raw_vec19RawVec$LT$T$C$A$GT$8grow_one17hd7d394bfa104d6bcE', symObjAddr: 0x44E4, symBinAddr: 0x3F83C, symSize: 0x8C }
  - { offset: 0x1158E0, size: 0x8, addend: 0x0, symName: '__ZN5alloc7raw_vec19RawVec$LT$T$C$A$GT$8into_box17h0b82fb3c75c05031E', symObjAddr: 0x4570, symBinAddr: 0x3F8C8, symSize: 0xA0 }
  - { offset: 0x115CAB, size: 0x8, addend: 0x0, symName: '__ZN5alloc7raw_vec19RawVec$LT$T$C$A$GT$8into_box17h40c6cef1ffc010f0E', symObjAddr: 0x4610, symBinAddr: 0x3F968, symSize: 0xA0 }
  - { offset: 0x116076, size: 0x8, addend: 0x0, symName: '__ZN5alloc7raw_vec19RawVec$LT$T$C$A$GT$8into_box17h73801cf3974a37e9E', symObjAddr: 0x46B0, symBinAddr: 0x3FA08, symSize: 0xA0 }
  - { offset: 0x11629B, size: 0x8, addend: 0x0, symName: '__ZN96_$LT$core..option..Option$LT$T$GT$$u20$as$u20$parking_lot..util..UncheckedOptionExt$LT$T$GT$$GT$16unchecked_unwrap17h324d789795a27409E', symObjAddr: 0x5E44, symBinAddr: 0x40264, symSize: 0x2C }
  - { offset: 0x1162CC, size: 0x8, addend: 0x0, symName: '__ZN96_$LT$core..option..Option$LT$T$GT$$u20$as$u20$parking_lot..util..UncheckedOptionExt$LT$T$GT$$GT$16unchecked_unwrap17he616620ecaf43716E', symObjAddr: 0x5E70, symBinAddr: 0x40290, symSize: 0x2C }
  - { offset: 0x11631E, size: 0x8, addend: 0x0, symName: __ZN4pyo312derive_utils19PyFunctionArguments24into_py_and_maybe_module17h0738a3a1488887b3E, symObjAddr: 0x5EC8, symBinAddr: 0x402BC, symSize: 0x6C }
  - { offset: 0x1164EB, size: 0x8, addend: 0x0, symName: '__ZN45_$LT$T$u20$as$u20$alloc..string..ToString$GT$9to_string17hb69e05720657645dE', symObjAddr: 0x1A6C, symBinAddr: 0x41300, symSize: 0x124 }
  - { offset: 0x117436, size: 0x8, addend: 0x0, symName: '__ZN4core3ptr101drop_in_place$LT$core..option..Option$LT$pyo3..pyclass..create_type_object..PyClassTypeObject$GT$$GT$17h2e2851748e887022E', symObjAddr: 0x27E4, symBinAddr: 0x41B14, symSize: 0x48 }
  - { offset: 0x117465, size: 0x8, addend: 0x0, symName: '__ZN4core3ptr101drop_in_place$LT$core..result..Result$LT$$RF$pyo3..types..string..PyString$C$pyo3..err..PyErr$GT$$GT$17hb2cbd737388d8f35E', symObjAddr: 0x282C, symBinAddr: 0x41B5C, symSize: 0x40 }
  - { offset: 0x117494, size: 0x8, addend: 0x0, symName: '__ZN4core3ptr104drop_in_place$LT$core..option..Option$LT$pyo3..instance..Py$LT$pyo3..types..module..PyModule$GT$$GT$$GT$17hc64f6253ea98e0d2E', symObjAddr: 0x28B4, symBinAddr: 0x41B9C, symSize: 0x44 }
  - { offset: 0x1174C3, size: 0x8, addend: 0x0, symName: '__ZN4core3ptr104drop_in_place$LT$core..option..Option$LT$pyo3..instance..Py$LT$pyo3..types..string..PyString$GT$$GT$$GT$17h7080d6087f47b5c5E', symObjAddr: 0x28F8, symBinAddr: 0x41BE0, symSize: 0x44 }
  - { offset: 0x1174F2, size: 0x8, addend: 0x0, symName: '__ZN4core3ptr105drop_in_place$LT$alloc..raw_vec..RawVec$LT$pyo3..pyclass..create_type_object..GetSetDefDestructor$GT$$GT$17ha374e39d454480f6E', symObjAddr: 0x293C, symBinAddr: 0x41C24, symSize: 0x24 }
  - { offset: 0x117521, size: 0x8, addend: 0x0, symName: '__ZN4core3ptr106drop_in_place$LT$alloc..vec..Vec$LT$core..ptr..non_null..NonNull$LT$pyo3_ffi..object..PyObject$GT$$GT$$GT$17hd15b611bb9724475E', symObjAddr: 0x2960, symBinAddr: 0x41C48, symSize: 0x5C }
  - { offset: 0x117550, size: 0x8, addend: 0x0, symName: '__ZN4core3ptr106drop_in_place$LT$core..option..Option$LT$pyo3..instance..Py$LT$pyo3..types..typeobject..PyType$GT$$GT$$GT$17hd2e04dc04eddd946E', symObjAddr: 0x29BC, symBinAddr: 0x41CA4, symSize: 0x44 }
  - { offset: 0x11757F, size: 0x8, addend: 0x0, symName: '__ZN4core3ptr108drop_in_place$LT$core..option..Option$LT$pyo3..instance..Py$LT$pyo3..exceptions..PyBaseException$GT$$GT$$GT$17h96280f0ac9ce191fE', symObjAddr: 0x2A24, symBinAddr: 0x41CE8, symSize: 0x44 }
  - { offset: 0x1175AE, size: 0x8, addend: 0x0, symName: '__ZN4core3ptr110drop_in_place$LT$core..option..Option$LT$pyo3..instance..Py$LT$pyo3..types..traceback..PyTraceback$GT$$GT$$GT$17h690827d43faba327E', symObjAddr: 0x2AD4, symBinAddr: 0x41D2C, symSize: 0x44 }
  - { offset: 0x1175DD, size: 0x8, addend: 0x0, symName: '__ZN4core3ptr111drop_in_place$LT$core..cell..UnsafeCell$LT$core..option..Option$LT$pyo3..err..err_state..PyErrState$GT$$GT$$GT$17h746fe329e3f3a946E', symObjAddr: 0x2B18, symBinAddr: 0x41D70, symSize: 0x24 }
  - { offset: 0x11760C, size: 0x8, addend: 0x0, symName: '__ZN4core3ptr112drop_in_place$LT$core..result..Result$LT$$LP$$RP$$C$pyo3..pyclass..create_type_object..PyClassTypeObject$GT$$GT$17h2b3a24c2c8462d70E', symObjAddr: 0x2B84, symBinAddr: 0x41D94, symSize: 0x48 }
  - { offset: 0x11763B, size: 0x8, addend: 0x0, symName: '__ZN4core3ptr113drop_in_place$LT$alloc..raw_vec..RawVec$LT$core..ptr..non_null..NonNull$LT$pyo3_ffi..object..PyObject$GT$$GT$$GT$17h511c737fd8e88b50E', symObjAddr: 0x2BCC, symBinAddr: 0x41DDC, symSize: 0x24 }
  - { offset: 0x11766A, size: 0x8, addend: 0x0, symName: '__ZN4core3ptr114drop_in_place$LT$pyo3..impl_..pyclass..lazy_type_object..LazyTypeObjectInner..ensure_init..InitializationGuard$GT$17h0cdc0020c849db58E', symObjAddr: 0x2BF0, symBinAddr: 0x41E00, symSize: 0x24 }
  - { offset: 0x117699, size: 0x8, addend: 0x0, symName: '__ZN4core3ptr115drop_in_place$LT$core..array..iter..IntoIter$LT$pyo3..instance..Py$LT$pyo3..types..any..PyAny$GT$$C$1_usize$GT$$GT$17hb1002919974ad8e4E', symObjAddr: 0x2C14, symBinAddr: 0x41E24, symSize: 0x24 }
  - { offset: 0x1176C8, size: 0x8, addend: 0x0, symName: '__ZN4core3ptr115drop_in_place$LT$core..result..Result$LT$$LP$$RP$$C$pyo3..instance..Py$LT$pyo3..types..module..PyModule$GT$$GT$$GT$17h82bb38c49e9ed8b2E', symObjAddr: 0x2C5C, symBinAddr: 0x41E48, symSize: 0x44 }
  - { offset: 0x1176F7, size: 0x8, addend: 0x0, symName: '__ZN4core3ptr115drop_in_place$LT$core..result..Result$LT$$LP$$RP$$C$pyo3..instance..Py$LT$pyo3..types..string..PyString$GT$$GT$$GT$17h28d5eba2a52bbdeeE', symObjAddr: 0x2CA0, symBinAddr: 0x41E8C, symSize: 0x44 }
  - { offset: 0x117726, size: 0x8, addend: 0x0, symName: '__ZN4core3ptr115drop_in_place$LT$core..result..Result$LT$$RF$pyo3..exceptions..PyBaseException$C$pyo3..err..PyDowncastError$GT$$GT$17h35850b21dc651f89E', symObjAddr: 0x2CE4, symBinAddr: 0x41ED0, symSize: 0x48 }
  - { offset: 0x117755, size: 0x8, addend: 0x0, symName: '__ZN4core3ptr117drop_in_place$LT$core..result..Result$LT$$LP$$RP$$C$pyo3..instance..Py$LT$pyo3..types..typeobject..PyType$GT$$GT$$GT$17hd51fc0b3a2c2b87eE', symObjAddr: 0x2D2C, symBinAddr: 0x41F18, symSize: 0x44 }
  - { offset: 0x117784, size: 0x8, addend: 0x0, symName: '__ZN4core3ptr121drop_in_place$LT$core..option..Option$LT$core..result..Result$LT$core..convert..Infallible$C$pyo3..err..PyErr$GT$$GT$$GT$17ha53ac456ec5361a6E', symObjAddr: 0x2DF0, symBinAddr: 0x41F5C, symSize: 0x40 }
  - { offset: 0x1177B3, size: 0x8, addend: 0x0, symName: '__ZN4core3ptr122drop_in_place$LT$alloc..vec..into_iter..IntoIter$LT$core..ptr..non_null..NonNull$LT$pyo3_ffi..object..PyObject$GT$$GT$$GT$17h8e1f482f2f09e65bE', symObjAddr: 0x2E30, symBinAddr: 0x41F9C, symSize: 0x24 }
  - { offset: 0x1177E2, size: 0x8, addend: 0x0, symName: '__ZN4core3ptr122drop_in_place$LT$hashbrown..raw..RawTable$LT$$LP$$RF$str$C$pyo3..pyclass..create_type_object..GetSetDefBuilder$RP$$GT$$GT$17h735498375cbbe739E', symObjAddr: 0x2E54, symBinAddr: 0x41FC0, symSize: 0x24 }
  - { offset: 0x117811, size: 0x8, addend: 0x0, symName: '__ZN4core3ptr122drop_in_place$LT$pyo3..impl_..pyclass..lazy_type_object..LazyTypeObjectInner..ensure_init..$u7b$$u7b$closure$u7d$$u7d$$GT$17hf37504db0d5edf23E', symObjAddr: 0x2E78, symBinAddr: 0x41FE4, symSize: 0x60 }
  - { offset: 0x117840, size: 0x8, addend: 0x0, symName: '__ZN4core3ptr126drop_in_place$LT$std..collections..hash..map..HashMap$LT$$RF$str$C$pyo3..pyclass..create_type_object..GetSetDefBuilder$GT$$GT$17hd0c4a7317d17bf47E', symObjAddr: 0x2F1C, symBinAddr: 0x42044, symSize: 0x24 }
  - { offset: 0x11786F, size: 0x8, addend: 0x0, symName: '__ZN4core3ptr129drop_in_place$LT$$LP$alloc..borrow..Cow$LT$core..ffi..c_str..CStr$GT$$C$pyo3..instance..Py$LT$pyo3..types..any..PyAny$GT$$RP$$GT$17h19f712203ac7418aE', symObjAddr: 0x2F50, symBinAddr: 0x42068, symSize: 0x60 }
  - { offset: 0x11789E, size: 0x8, addend: 0x0, symName: '__ZN4core3ptr129drop_in_place$LT$core..cell..Ref$LT$alloc..vec..Vec$LT$core..ptr..non_null..NonNull$LT$pyo3_ffi..object..PyObject$GT$$GT$$GT$$GT$17h186f3ca77133a5e5E', symObjAddr: 0x2FB0, symBinAddr: 0x420C8, symSize: 0x24 }
  - { offset: 0x1178CD, size: 0x8, addend: 0x0, symName: '__ZN4core3ptr130drop_in_place$LT$alloc..vec..Vec$LT$T$C$A$GT$..retain_mut..BackshiftOnDrop$LT$std..thread..ThreadId$C$alloc..alloc..Global$GT$$GT$17hfa1dded28ca954a5E', symObjAddr: 0x2FD4, symBinAddr: 0x420EC, symSize: 0x24 }
  - { offset: 0x1178FC, size: 0x8, addend: 0x0, symName: '__ZN4core3ptr132drop_in_place$LT$core..cell..RefMut$LT$alloc..vec..Vec$LT$core..ptr..non_null..NonNull$LT$pyo3_ffi..object..PyObject$GT$$GT$$GT$$GT$17h827b6810cabbc049E', symObjAddr: 0x301C, symBinAddr: 0x42110, symSize: 0x24 }
  - { offset: 0x11792B, size: 0x8, addend: 0x0, symName: '__ZN4core3ptr132drop_in_place$LT$pyo3..err..PyErr..new$LT$pyo3..exceptions..PyTypeError$C$alloc..string..String$GT$..$u7b$$u7b$closure$u7d$$u7d$$GT$17hdfbbede61d549282E', symObjAddr: 0x3040, symBinAddr: 0x42134, symSize: 0x24 }
  - { offset: 0x11795A, size: 0x8, addend: 0x0, symName: '__ZN4core3ptr133drop_in_place$LT$core..cell..RefCell$LT$alloc..vec..Vec$LT$core..ptr..non_null..NonNull$LT$pyo3_ffi..object..PyObject$GT$$GT$$GT$$GT$17h1be53405f82aab73E', symObjAddr: 0x3064, symBinAddr: 0x42158, symSize: 0x24 }
  - { offset: 0x117989, size: 0x8, addend: 0x0, symName: '__ZN4core3ptr135drop_in_place$LT$pyo3..err..PyErr..new$LT$pyo3..exceptions..PyRuntimeError$C$alloc..string..String$GT$..$u7b$$u7b$closure$u7d$$u7d$$GT$17hf854d835d4847cafE', symObjAddr: 0x30D0, symBinAddr: 0x4217C, symSize: 0x24 }
  - { offset: 0x1179B8, size: 0x8, addend: 0x0, symName: '__ZN4core3ptr136drop_in_place$LT$core..cell..UnsafeCell$LT$alloc..vec..Vec$LT$core..ptr..non_null..NonNull$LT$pyo3_ffi..object..PyObject$GT$$GT$$GT$$GT$17haab0d1921393d605E', symObjAddr: 0x3118, symBinAddr: 0x421A0, symSize: 0x24 }
  - { offset: 0x1179E7, size: 0x8, addend: 0x0, symName: '__ZN4core3ptr136drop_in_place$LT$pyo3..err..PyErr..new$LT$pyo3..exceptions..PyOverflowError$C$alloc..string..String$GT$..$u7b$$u7b$closure$u7d$$u7d$$GT$17h13405fceb86576caE', symObjAddr: 0x3160, symBinAddr: 0x421C4, symSize: 0x24 }
  - { offset: 0x117A16, size: 0x8, addend: 0x0, symName: '__ZN4core3ptr139drop_in_place$LT$$u5b$$LP$alloc..borrow..Cow$LT$core..ffi..c_str..CStr$GT$$C$pyo3..instance..Py$LT$pyo3..types..any..PyAny$GT$$RP$$u5d$$GT$17hf6167c651093564aE', symObjAddr: 0x3214, symBinAddr: 0x421E8, symSize: 0xB4 }
  - { offset: 0x117A45, size: 0x8, addend: 0x0, symName: '__ZN4core3ptr139drop_in_place$LT$pyo3..err..PyErr..new$LT$pyo3..exceptions..PyValueError$C$alloc..ffi..c_str..NulError$GT$..$u7b$$u7b$closure$u7d$$u7d$$GT$17h1869aabd16cb95f7E', symObjAddr: 0x32EC, symBinAddr: 0x4229C, symSize: 0x24 }
  - { offset: 0x117A74, size: 0x8, addend: 0x0, symName: '__ZN4core3ptr141drop_in_place$LT$pyo3..err..PyErr..new$LT$pyo3..panic..PanicException$C$$LP$alloc..string..String$C$$RP$$GT$..$u7b$$u7b$closure$u7d$$u7d$$GT$17h6902984d73c17d38E', symObjAddr: 0x3334, symBinAddr: 0x422C0, symSize: 0x24 }
  - { offset: 0x117AA3, size: 0x8, addend: 0x0, symName: '__ZN4core3ptr145drop_in_place$LT$pyo3..err..err_state..PyErrState..lazy$LT$pyo3..instance..Py$LT$pyo3..types..any..PyAny$GT$$GT$..$u7b$$u7b$closure$u7d$$u7d$$GT$17hf5f0545dfb05091fE', symObjAddr: 0x3414, symBinAddr: 0x422E4, symSize: 0x60 }
  - { offset: 0x117AD2, size: 0x8, addend: 0x0, symName: '__ZN4core3ptr146drop_in_place$LT$hashbrown..map..HashMap$LT$$RF$str$C$pyo3..pyclass..create_type_object..GetSetDefBuilder$C$std..hash..random..RandomState$GT$$GT$17hcb8f72860a4ac424E', symObjAddr: 0x3474, symBinAddr: 0x42344, symSize: 0x24 }
  - { offset: 0x117B01, size: 0x8, addend: 0x0, symName: '__ZN4core3ptr146drop_in_place$LT$pyo3..err..PyErr..new$LT$pyo3..exceptions..PyTypeError$C$pyo3..err..PyDowncastErrorArguments$GT$..$u7b$$u7b$closure$u7d$$u7d$$GT$17hba90b446e09b32e8E', symObjAddr: 0x3498, symBinAddr: 0x42368, symSize: 0x24 }
  - { offset: 0x117B30, size: 0x8, addend: 0x0, symName: '__ZN4core3ptr152drop_in_place$LT$alloc..vec..Vec$LT$$LP$alloc..borrow..Cow$LT$core..ffi..c_str..CStr$GT$$C$pyo3..instance..Py$LT$pyo3..types..any..PyAny$GT$$RP$$GT$$GT$17h2bf10aaac89b3a84E', symObjAddr: 0x3510, symBinAddr: 0x4238C, symSize: 0x5C }
  - { offset: 0x117B5F, size: 0x8, addend: 0x0, symName: '__ZN4core3ptr159drop_in_place$LT$alloc..raw_vec..RawVec$LT$$LP$alloc..borrow..Cow$LT$core..ffi..c_str..CStr$GT$$C$pyo3..instance..Py$LT$pyo3..types..any..PyAny$GT$$RP$$GT$$GT$17h044e715bef8f2753E', symObjAddr: 0x35B0, symBinAddr: 0x423E8, symSize: 0x24 }
  - { offset: 0x117B8E, size: 0x8, addend: 0x0, symName: '__ZN4core3ptr165drop_in_place$LT$core..iter..adapters..enumerate..Enumerate$LT$core..array..iter..IntoIter$LT$pyo3..instance..Py$LT$pyo3..types..any..PyAny$GT$$C$1_usize$GT$$GT$$GT$17hfd6252c57eaed814E', symObjAddr: 0x35F8, symBinAddr: 0x4240C, symSize: 0x24 }
  - { offset: 0x117BBD, size: 0x8, addend: 0x0, symName: '__ZN4core3ptr168drop_in_place$LT$alloc..vec..into_iter..IntoIter$LT$$LP$alloc..borrow..Cow$LT$core..ffi..c_str..CStr$GT$$C$pyo3..instance..Py$LT$pyo3..types..any..PyAny$GT$$RP$$GT$$GT$17h03e941233c111c23E', symObjAddr: 0x3650, symBinAddr: 0x42430, symSize: 0x24 }
  - { offset: 0x117BEC, size: 0x8, addend: 0x0, symName: '__ZN4core3ptr181drop_in_place$LT$hashbrown..scopeguard..ScopeGuard$LT$$RF$mut$u20$hashbrown..raw..RawTableInner$C$hashbrown..raw..RawTableInner..rehash_in_place..$u7b$$u7b$closure$u7d$$u7d$$GT$$GT$17h78a72abdd6727270E', symObjAddr: 0x36BC, symBinAddr: 0x42454, symSize: 0x24 }
  - { offset: 0x117C1B, size: 0x8, addend: 0x0, symName: '__ZN4core3ptr196drop_in_place$LT$hashbrown..scopeguard..ScopeGuard$LT$hashbrown..raw..RawTableInner$C$hashbrown..raw..RawTableInner..prepare_resize$LT$alloc..alloc..Global$GT$..$u7b$$u7b$closure$u7d$$u7d$$GT$$GT$17h2cad5bcd43be1dfdE', symObjAddr: 0x3704, symBinAddr: 0x42478, symSize: 0x24 }
  - { offset: 0x117C4A, size: 0x8, addend: 0x0, symName: '__ZN4core3ptr216drop_in_place$LT$$LT$alloc..vec..into_iter..IntoIter$LT$T$C$A$GT$$u20$as$u20$core..ops..drop..Drop$GT$..drop..DropGuard$LT$core..ptr..non_null..NonNull$LT$pyo3_ffi..object..PyObject$GT$$C$alloc..alloc..Global$GT$$GT$17h571a980a677893d9E', symObjAddr: 0x3818, symBinAddr: 0x4249C, symSize: 0x24 }
  - { offset: 0x117C79, size: 0x8, addend: 0x0, symName: '__ZN4core3ptr233drop_in_place$LT$alloc..boxed..Box$LT$dyn$u20$core..ops..function..Fn$LT$$LP$$RF$pyo3..pyclass..create_type_object..PyTypeBuilder$C$$BP$mut$u20$pyo3_ffi..cpython..object..PyTypeObject$RP$$GT$$u2b$Output$u20$$u3d$$u20$$LP$$RP$$GT$$GT$17h8513e35831d3280aE', symObjAddr: 0x3860, symBinAddr: 0x424C0, symSize: 0x80 }
  - { offset: 0x117CA8, size: 0x8, addend: 0x0, symName: '__ZN4core3ptr236drop_in_place$LT$alloc..boxed..Box$LT$dyn$u20$core..ops..function..FnOnce$LT$$LP$pyo3..marker..Python$C$$RP$$GT$$u2b$Output$u20$$u3d$$u20$pyo3..err..err_state..PyErrStateLazyFnOutput$u2b$core..marker..Sync$u2b$core..marker..Send$GT$$GT$17hbfdc2a7f7b596dd2E', symObjAddr: 0x38E0, symBinAddr: 0x42540, symSize: 0x80 }
  - { offset: 0x117CD7, size: 0x8, addend: 0x0, symName: '__ZN4core3ptr243drop_in_place$LT$$u5b$alloc..boxed..Box$LT$dyn$u20$core..ops..function..Fn$LT$$LP$$RF$pyo3..pyclass..create_type_object..PyTypeBuilder$C$$BP$mut$u20$pyo3_ffi..cpython..object..PyTypeObject$RP$$GT$$u2b$Output$u20$$u3d$$u20$$LP$$RP$$GT$$u5d$$GT$17hfbf26c5c108cb93cE', symObjAddr: 0x3960, symBinAddr: 0x425C0, symSize: 0xB4 }
  - { offset: 0x117D06, size: 0x8, addend: 0x0, symName: '__ZN4core3ptr256drop_in_place$LT$alloc..vec..Vec$LT$alloc..boxed..Box$LT$dyn$u20$core..ops..function..Fn$LT$$LP$$RF$pyo3..pyclass..create_type_object..PyTypeBuilder$C$$BP$mut$u20$pyo3_ffi..cpython..object..PyTypeObject$RP$$GT$$u2b$Output$u20$$u3d$$u20$$LP$$RP$$GT$$GT$$GT$17h9268a1cc7fd256dfE', symObjAddr: 0x3A14, symBinAddr: 0x42674, symSize: 0x5C }
  - { offset: 0x117D35, size: 0x8, addend: 0x0, symName: '__ZN4core3ptr262drop_in_place$LT$$LT$alloc..vec..into_iter..IntoIter$LT$T$C$A$GT$$u20$as$u20$core..ops..drop..Drop$GT$..drop..DropGuard$LT$$LP$alloc..borrow..Cow$LT$core..ffi..c_str..CStr$GT$$C$pyo3..instance..Py$LT$pyo3..types..any..PyAny$GT$$RP$$C$alloc..alloc..Global$GT$$GT$17hd7425710701034e8E', symObjAddr: 0x3A94, symBinAddr: 0x426D0, symSize: 0x24 }
  - { offset: 0x117D64, size: 0x8, addend: 0x0, symName: '__ZN4core3ptr263drop_in_place$LT$alloc..raw_vec..RawVec$LT$alloc..boxed..Box$LT$dyn$u20$core..ops..function..Fn$LT$$LP$$RF$pyo3..pyclass..create_type_object..PyTypeBuilder$C$$BP$mut$u20$pyo3_ffi..cpython..object..PyTypeObject$RP$$GT$$u2b$Output$u20$$u3d$$u20$$LP$$RP$$GT$$GT$$GT$17h6d14617ce4b8d597E', symObjAddr: 0x3AB8, symBinAddr: 0x426F4, symSize: 0x24 }
  - { offset: 0x117D93, size: 0x8, addend: 0x0, symName: '__ZN4core3ptr272drop_in_place$LT$alloc..vec..into_iter..IntoIter$LT$alloc..boxed..Box$LT$dyn$u20$core..ops..function..Fn$LT$$LP$$RF$pyo3..pyclass..create_type_object..PyTypeBuilder$C$$BP$mut$u20$pyo3_ffi..cpython..object..PyTypeObject$RP$$GT$$u2b$Output$u20$$u3d$$u20$$LP$$RP$$GT$$GT$$GT$17hf38a2859052ca92bE', symObjAddr: 0x3B10, symBinAddr: 0x42718, symSize: 0x24 }
  - { offset: 0x117DC2, size: 0x8, addend: 0x0, symName: '__ZN4core3ptr272drop_in_place$LT$lock_api..mutex..MutexGuard$LT$parking_lot..raw_mutex..RawMutex$C$$LP$alloc..vec..Vec$LT$core..ptr..non_null..NonNull$LT$pyo3_ffi..object..PyObject$GT$$GT$$C$alloc..vec..Vec$LT$core..ptr..non_null..NonNull$LT$pyo3_ffi..object..PyObject$GT$$GT$$RP$$GT$$GT$17haa33a536cb9b7dc3E', symObjAddr: 0x3B34, symBinAddr: 0x4273C, symSize: 0x24 }
  - { offset: 0x117DF1, size: 0x8, addend: 0x0, symName: '__ZN4core3ptr366drop_in_place$LT$$LT$alloc..vec..into_iter..IntoIter$LT$T$C$A$GT$$u20$as$u20$core..ops..drop..Drop$GT$..drop..DropGuard$LT$alloc..boxed..Box$LT$dyn$u20$core..ops..function..Fn$LT$$LP$$RF$pyo3..pyclass..create_type_object..PyTypeBuilder$C$$BP$mut$u20$pyo3_ffi..cpython..object..PyTypeObject$RP$$GT$$u2b$Output$u20$$u3d$$u20$$LP$$RP$$GT$$C$alloc..alloc..Global$GT$$GT$17hb5ca268fc5c99b7aE', symObjAddr: 0x3BA8, symBinAddr: 0x42760, symSize: 0x24 }
  - { offset: 0x117E20, size: 0x8, addend: 0x0, symName: '__ZN4core3ptr37drop_in_place$LT$pyo3..err..PyErr$GT$17h18690a44c99ab748E', symObjAddr: 0x3BEC, symBinAddr: 0x42784, symSize: 0x24 }
  - { offset: 0x117E4F, size: 0x8, addend: 0x0, symName: '__ZN4core3ptr39drop_in_place$LT$pyo3..gil..GILPool$GT$17hafc864dbb058e5edE', symObjAddr: 0x3C10, symBinAddr: 0x427A8, symSize: 0x24 }
  - { offset: 0x117E7E, size: 0x8, addend: 0x0, symName: '__ZN4core3ptr39drop_in_place$LT$std..thread..Inner$GT$17h41b6247e412a3b8bE', symObjAddr: 0x3C34, symBinAddr: 0x427CC, symSize: 0x40 }
  - { offset: 0x117EAD, size: 0x8, addend: 0x0, symName: '__ZN4core3ptr40drop_in_place$LT$pyo3..gil..GILGuard$GT$17h76aae16c9c4c7b98E', symObjAddr: 0x3C74, symBinAddr: 0x4280C, symSize: 0x24 }
  - { offset: 0x117EDC, size: 0x8, addend: 0x0, symName: '__ZN4core3ptr40drop_in_place$LT$std..thread..Thread$GT$17h61d655dc2254b42bE', symObjAddr: 0x3C98, symBinAddr: 0x42830, symSize: 0x24 }
  - { offset: 0x117F0B, size: 0x8, addend: 0x0, symName: '__ZN4core3ptr42drop_in_place$LT$alloc..string..String$GT$17h4b192d11fc14ce6dE', symObjAddr: 0x3CE0, symBinAddr: 0x42854, symSize: 0x24 }
  - { offset: 0x117F3A, size: 0x8, addend: 0x0, symName: '__ZN4core3ptr42drop_in_place$LT$core..cell..BorrowRef$GT$17h63a4db43cdd7dadcE', symObjAddr: 0x3D04, symBinAddr: 0x42878, symSize: 0x24 }
  - { offset: 0x117F69, size: 0x8, addend: 0x0, symName: '__ZN4core3ptr44drop_in_place$LT$std..thread..OtherInner$GT$17hb6abb2530b0be5dfE', symObjAddr: 0x3D28, symBinAddr: 0x4289C, symSize: 0x64 }
  - { offset: 0x117F98, size: 0x8, addend: 0x0, symName: '__ZN4core3ptr45drop_in_place$LT$core..cell..BorrowRefMut$GT$17hc365b7db0d09e2c9E', symObjAddr: 0x3D8C, symBinAddr: 0x42900, symSize: 0x24 }
  - { offset: 0x117FC7, size: 0x8, addend: 0x0, symName: '__ZN4core3ptr47drop_in_place$LT$pyo3..err..PyDowncastError$GT$17hb58412236ffdc535E', symObjAddr: 0x3E2C, symBinAddr: 0x42924, symSize: 0x24 }
  - { offset: 0x117FF6, size: 0x8, addend: 0x0, symName: '__ZN4core3ptr50drop_in_place$LT$alloc..borrow..Cow$LT$str$GT$$GT$17h7428fb57ef78921fE', symObjAddr: 0x3EB8, symBinAddr: 0x42948, symSize: 0x48 }
  - { offset: 0x118025, size: 0x8, addend: 0x0, symName: '__ZN4core3ptr50drop_in_place$LT$pyo3..impl_..panic..PanicTrap$GT$17h5cca62717b283f8cE', symObjAddr: 0x3F00, symBinAddr: 0x42990, symSize: 0x24 }
  - { offset: 0x118054, size: 0x8, addend: 0x0, symName: '__ZN4core3ptr51drop_in_place$LT$alloc..vec..Vec$LT$$RF$str$GT$$GT$17h3770d46349ff9c3bE', symObjAddr: 0x3F24, symBinAddr: 0x429B4, symSize: 0x5C }
  - { offset: 0x118083, size: 0x8, addend: 0x0, symName: '__ZN4core3ptr53drop_in_place$LT$$LP$alloc..string..String$C$$RP$$GT$17h0aadedcc116879e1E', symObjAddr: 0x3FB0, symBinAddr: 0x42A10, symSize: 0x24 }
  - { offset: 0x1180B2, size: 0x8, addend: 0x0, symName: '__ZN4core3ptr53drop_in_place$LT$pyo3..err..err_state..PyErrState$GT$17hfdacbc8a6c0d32c5E', symObjAddr: 0x3FD4, symBinAddr: 0x42A34, symSize: 0xE0 }
  - { offset: 0x1180E1, size: 0x8, addend: 0x0, symName: '__ZN4core3ptr56drop_in_place$LT$pyo3..err..PyDowncastErrorArguments$GT$17h3b6c2a229f6ad81fE', symObjAddr: 0x4118, symBinAddr: 0x42B14, symSize: 0x5C }
  - { offset: 0x118110, size: 0x8, addend: 0x0, symName: '__ZN4core3ptr58drop_in_place$LT$alloc..raw_vec..RawVec$LT$$RF$str$GT$$GT$17h9468895210a5b5acE', symObjAddr: 0x4184, symBinAddr: 0x42B70, symSize: 0x24 }
  - { offset: 0x11813F, size: 0x8, addend: 0x0, symName: '__ZN4core3ptr63drop_in_place$LT$pyo3..err..err_state..PyErrStateNormalized$GT$17h5d69380b9fb31822E', symObjAddr: 0x4210, symBinAddr: 0x42B94, symSize: 0x90 }
  - { offset: 0x11816E, size: 0x8, addend: 0x0, symName: '__ZN4core3ptr65drop_in_place$LT$alloc..vec..Vec$LT$std..thread..ThreadId$GT$$GT$17h07acd6a8a6af7c3dE', symObjAddr: 0x42B0, symBinAddr: 0x42C24, symSize: 0x5C }
  - { offset: 0x11819D, size: 0x8, addend: 0x0, symName: '__ZN4core3ptr65drop_in_place$LT$core..option..Option$LT$pyo3..err..PyErr$GT$$GT$17h30221b0236d541f6E', symObjAddr: 0x430C, symBinAddr: 0x42C80, symSize: 0x40 }
  - { offset: 0x1181CC, size: 0x8, addend: 0x0, symName: '__ZN4core3ptr66drop_in_place$LT$pyo3..impl_..pymethods..PyMethodDefDestructor$GT$17h5e4b95843c31fd4bE', symObjAddr: 0x4394, symBinAddr: 0x42CC0, symSize: 0x60 }
  - { offset: 0x1181FB, size: 0x8, addend: 0x0, symName: '__ZN4core3ptr67drop_in_place$LT$std..sys..sync..thread_parking..darwin..Parker$GT$17h8c2c2c71713757ebE', symObjAddr: 0x43F4, symBinAddr: 0x42D20, symSize: 0x24 }
  - { offset: 0x11822A, size: 0x8, addend: 0x0, symName: '__ZN4core3ptr68drop_in_place$LT$alloc..sync..Arc$LT$std..thread..OtherInner$GT$$GT$17h611e67a13ca491a9E', symObjAddr: 0x4428, symBinAddr: 0x42D44, symSize: 0x24 }
  - { offset: 0x118259, size: 0x8, addend: 0x0, symName: '__ZN4core3ptr68drop_in_place$LT$core..option..Option$LT$pyo3..gil..GILGuard$GT$$GT$17h183e55e27840bcddE', symObjAddr: 0x444C, symBinAddr: 0x42D68, symSize: 0x44 }
  - { offset: 0x118288, size: 0x8, addend: 0x0, symName: '__ZN4core3ptr69drop_in_place$LT$alloc..borrow..Cow$LT$core..ffi..c_str..CStr$GT$$GT$17h221146ac65b6081cE', symObjAddr: 0x4490, symBinAddr: 0x42DAC, symSize: 0x40 }
  - { offset: 0x1182B7, size: 0x8, addend: 0x0, symName: '__ZN4core3ptr69drop_in_place$LT$pyo3..pyclass..create_type_object..GetSetDefType$GT$17h2fe10fa880f2633cE', symObjAddr: 0x44F4, symBinAddr: 0x42DEC, symSize: 0x48 }
  - { offset: 0x1182E6, size: 0x8, addend: 0x0, symName: '__ZN4core3ptr69drop_in_place$LT$pyo3..pyclass..create_type_object..PyTypeBuilder$GT$17h9b9216b863ad4f70E', symObjAddr: 0x453C, symBinAddr: 0x42E34, symSize: 0xC0 }
  - { offset: 0x118315, size: 0x8, addend: 0x0, symName: '__ZN4core3ptr70drop_in_place$LT$pyo3..instance..Py$LT$pyo3..types..any..PyAny$GT$$GT$17h884b20ee951ca723E', symObjAddr: 0x45FC, symBinAddr: 0x42EF4, symSize: 0x24 }
  - { offset: 0x118344, size: 0x8, addend: 0x0, symName: '__ZN4core3ptr70drop_in_place$LT$std..thread..thread_name_string..ThreadNameString$GT$17hf2f5753df762e8a2E', symObjAddr: 0x4644, symBinAddr: 0x42F18, symSize: 0x24 }
  - { offset: 0x118373, size: 0x8, addend: 0x0, symName: '__ZN4core3ptr71drop_in_place$LT$core..result..Result$LT$u64$C$pyo3..err..PyErr$GT$$GT$17h1a1a8a197ac5343cE', symObjAddr: 0x46A8, symBinAddr: 0x42F3C, symSize: 0x40 }
  - { offset: 0x1183A2, size: 0x8, addend: 0x0, symName: '__ZN4core3ptr72drop_in_place$LT$alloc..raw_vec..RawVec$LT$std..thread..ThreadId$GT$$GT$17hfefc70c97622ec32E', symObjAddr: 0x4768, symBinAddr: 0x42F7C, symSize: 0x24 }
  - { offset: 0x1183D1, size: 0x8, addend: 0x0, symName: '__ZN4core3ptr73drop_in_place$LT$alloc..vec..Vec$LT$pyo3_ffi..object..PyType_Slot$GT$$GT$17hd3c8b98eedcba672E', symObjAddr: 0x47CC, symBinAddr: 0x42FA0, symSize: 0x5C }
  - { offset: 0x118400, size: 0x8, addend: 0x0, symName: '__ZN4core3ptr73drop_in_place$LT$pyo3..pyclass..create_type_object..PyClassTypeObject$GT$17h4eefaf3ddcd7ad81E', symObjAddr: 0x4828, symBinAddr: 0x42FFC, symSize: 0x5C }
  - { offset: 0x11842F, size: 0x8, addend: 0x0, symName: '__ZN4core3ptr74drop_in_place$LT$pyo3..instance..Py$LT$pyo3..types..tuple..PyTuple$GT$$GT$17hfd27f08cf391b3b6E', symObjAddr: 0x48A8, symBinAddr: 0x43058, symSize: 0x24 }
  - { offset: 0x11845E, size: 0x8, addend: 0x0, symName: '__ZN4core3ptr75drop_in_place$LT$core..option..Option$LT$alloc..ffi..c_str..CString$GT$$GT$17hbc75715689d72b7cE', symObjAddr: 0x48CC, symBinAddr: 0x4307C, symSize: 0x44 }
  - { offset: 0x11848D, size: 0x8, addend: 0x0, symName: '__ZN4core3ptr75drop_in_place$LT$core..result..Result$LT$$RF$str$C$pyo3..err..PyErr$GT$$GT$17h9efac4fd362e604bE', symObjAddr: 0x4910, symBinAddr: 0x430C0, symSize: 0x40 }
  - { offset: 0x1184BC, size: 0x8, addend: 0x0, symName: '__ZN4core3ptr75drop_in_place$LT$pyo3..pyclass..create_type_object..GetSetDefDestructor$GT$17h10f7db65035a05f8E', symObjAddr: 0x4950, symBinAddr: 0x43100, symSize: 0x90 }
  - { offset: 0x1184EB, size: 0x8, addend: 0x0, symName: '__ZN4core3ptr76drop_in_place$LT$core..result..Result$LT$$LP$$RP$$C$pyo3..err..PyErr$GT$$GT$17hf42caf218224fa70E', symObjAddr: 0x49F0, symBinAddr: 0x43190, symSize: 0x40 }
  - { offset: 0x11851A, size: 0x8, addend: 0x0, symName: '__ZN4core3ptr76drop_in_place$LT$pyo3..instance..Py$LT$pyo3..types..module..PyModule$GT$$GT$17he7b5c43bb37ea227E', symObjAddr: 0x4A30, symBinAddr: 0x431D0, symSize: 0x24 }
  - { offset: 0x118549, size: 0x8, addend: 0x0, symName: '__ZN4core3ptr76drop_in_place$LT$pyo3..instance..Py$LT$pyo3..types..string..PyString$GT$$GT$17h51edd7bddf3db613E', symObjAddr: 0x4A54, symBinAddr: 0x431F4, symSize: 0x24 }
  - { offset: 0x118578, size: 0x8, addend: 0x0, symName: '__ZN4core3ptr78drop_in_place$LT$alloc..vec..Vec$LT$pyo3_ffi..descrobject..PyGetSetDef$GT$$GT$17h7d61f6e189e2388aE', symObjAddr: 0x4A78, symBinAddr: 0x43218, symSize: 0x5C }
  - { offset: 0x1185A7, size: 0x8, addend: 0x0, symName: '__ZN4core3ptr78drop_in_place$LT$alloc..vec..Vec$LT$pyo3_ffi..descrobject..PyMemberDef$GT$$GT$17h9606670ff49d08aeE', symObjAddr: 0x4AD4, symBinAddr: 0x43274, symSize: 0x5C }
  - { offset: 0x1185D6, size: 0x8, addend: 0x0, symName: '__ZN4core3ptr78drop_in_place$LT$pyo3..instance..Py$LT$pyo3..types..typeobject..PyType$GT$$GT$17h84a6d5fb65ce3c24E', symObjAddr: 0x4B54, symBinAddr: 0x432D0, symSize: 0x24 }
  - { offset: 0x118605, size: 0x8, addend: 0x0, symName: '__ZN4core3ptr79drop_in_place$LT$alloc..vec..Vec$LT$pyo3_ffi..methodobject..PyMethodDef$GT$$GT$17h6b1897ca26a1c093E', symObjAddr: 0x4B78, symBinAddr: 0x432F4, symSize: 0x5C }
  - { offset: 0x118634, size: 0x8, addend: 0x0, symName: '__ZN4core3ptr80drop_in_place$LT$$u5b$pyo3..instance..Py$LT$pyo3..types..any..PyAny$GT$$u5d$$GT$17h7a34ba21fb22b7ccE', symObjAddr: 0x4BD4, symBinAddr: 0x43350, symSize: 0xB4 }
  - { offset: 0x118663, size: 0x8, addend: 0x0, symName: '__ZN4core3ptr80drop_in_place$LT$alloc..raw_vec..RawVec$LT$pyo3_ffi..object..PyType_Slot$GT$$GT$17h5b89eaf7ec057c51E', symObjAddr: 0x4C88, symBinAddr: 0x43404, symSize: 0x24 }
  - { offset: 0x118692, size: 0x8, addend: 0x0, symName: '__ZN4core3ptr80drop_in_place$LT$core..result..Result$LT$$RF$$LP$$RP$$C$pyo3..err..PyErr$GT$$GT$17h77057f2614b1c9eaE', symObjAddr: 0x4CAC, symBinAddr: 0x43428, symSize: 0x40 }
  - { offset: 0x1186C1, size: 0x8, addend: 0x0, symName: '__ZN4core3ptr80drop_in_place$LT$pyo3..instance..Py$LT$pyo3..exceptions..PyBaseException$GT$$GT$17haacc1a7d66842c89E', symObjAddr: 0x4CEC, symBinAddr: 0x43468, symSize: 0x24 }
  - { offset: 0x1186F0, size: 0x8, addend: 0x0, symName: '__ZN4core3ptr81drop_in_place$LT$core..option..Option$LT$pyo3..err..err_state..PyErrState$GT$$GT$17h382537d66df7116bE', symObjAddr: 0x4D7C, symBinAddr: 0x4348C, symSize: 0x44 }
  - { offset: 0x11871F, size: 0x8, addend: 0x0, symName: '__ZN4core3ptr82drop_in_place$LT$pyo3..instance..Py$LT$pyo3..types..traceback..PyTraceback$GT$$GT$17he6e9a340686a6afaE', symObjAddr: 0x4DE4, symBinAddr: 0x434D0, symSize: 0x24 }
  - { offset: 0x11874E, size: 0x8, addend: 0x0, symName: '__ZN4core3ptr85drop_in_place$LT$$u5b$pyo3..pyclass..create_type_object..GetSetDefDestructor$u5d$$GT$17h5a1a0570982d515aE', symObjAddr: 0x4E08, symBinAddr: 0x434F4, symSize: 0xB4 }
  - { offset: 0x11877D, size: 0x8, addend: 0x0, symName: '__ZN4core3ptr85drop_in_place$LT$alloc..raw_vec..RawVec$LT$pyo3_ffi..descrobject..PyGetSetDef$GT$$GT$17h346e556eb8d1dbf1E', symObjAddr: 0x4EBC, symBinAddr: 0x435A8, symSize: 0x24 }
  - { offset: 0x1187AC, size: 0x8, addend: 0x0, symName: '__ZN4core3ptr85drop_in_place$LT$alloc..raw_vec..RawVec$LT$pyo3_ffi..descrobject..PyMemberDef$GT$$GT$17h0f772e071c97d03aE', symObjAddr: 0x4EE0, symBinAddr: 0x435CC, symSize: 0x24 }
  - { offset: 0x1187DB, size: 0x8, addend: 0x0, symName: '__ZN4core3ptr86drop_in_place$LT$alloc..raw_vec..RawVec$LT$pyo3_ffi..methodobject..PyMethodDef$GT$$GT$17h6c0de8160d0b4188E', symObjAddr: 0x4F04, symBinAddr: 0x435F0, symSize: 0x24 }
  - { offset: 0x11880A, size: 0x8, addend: 0x0, symName: '__ZN4core3ptr90drop_in_place$LT$core..pin..Pin$LT$alloc..sync..Arc$LT$std..thread..OtherInner$GT$$GT$$GT$17h0579ee9727561e87E', symObjAddr: 0x4F38, symBinAddr: 0x43614, symSize: 0x24 }
  - { offset: 0x118839, size: 0x8, addend: 0x0, symName: '__ZN4core3ptr91drop_in_place$LT$$u5b$pyo3..instance..Py$LT$pyo3..types..any..PyAny$GT$$u3b$$u20$1$u5d$$GT$17h81b8db966e831123E', symObjAddr: 0x4F5C, symBinAddr: 0x43638, symSize: 0xA4 }
  - { offset: 0x118868, size: 0x8, addend: 0x0, symName: '__ZN4core3ptr91drop_in_place$LT$alloc..boxed..Box$LT$dyn$u20$core..any..Any$u2b$core..marker..Send$GT$$GT$17he06dce9881cfe237E', symObjAddr: 0x50A4, symBinAddr: 0x436DC, symSize: 0x80 }
  - { offset: 0x118897, size: 0x8, addend: 0x0, symName: '__ZN4core3ptr91drop_in_place$LT$core..cell..RefMut$LT$alloc..vec..Vec$LT$std..thread..ThreadId$GT$$GT$$GT$17hc9e75fc2f743fa2aE', symObjAddr: 0x5124, symBinAddr: 0x4375C, symSize: 0x24 }
  - { offset: 0x1188C6, size: 0x8, addend: 0x0, symName: '__ZN4core3ptr93drop_in_place$LT$core..result..Result$LT$core..convert..Infallible$C$pyo3..err..PyErr$GT$$GT$17hc85b2240d9663694E', symObjAddr: 0x51C8, symBinAddr: 0x43780, symSize: 0x30 }
  - { offset: 0x1188F5, size: 0x8, addend: 0x0, symName: '__ZN4core3ptr96drop_in_place$LT$alloc..boxed..Box$LT$pyo3..pyclass..create_type_object..GetterAndSetter$GT$$GT$17h628927551baf2953E', symObjAddr: 0x5238, symBinAddr: 0x437B0, symSize: 0x2C }
  - { offset: 0x118924, size: 0x8, addend: 0x0, symName: '__ZN4core3ptr96drop_in_place$LT$alloc..sync..Weak$LT$std..thread..OtherInner$C$$RF$alloc..alloc..Global$GT$$GT$17h5c68442b923b59a3E', symObjAddr: 0x5264, symBinAddr: 0x437DC, symSize: 0x24 }
  - { offset: 0x118953, size: 0x8, addend: 0x0, symName: '__ZN4core3ptr97drop_in_place$LT$core..option..Option$LT$alloc..borrow..Cow$LT$core..ffi..c_str..CStr$GT$$GT$$GT$17h6db7a6416c4d9802E', symObjAddr: 0x5288, symBinAddr: 0x43800, symSize: 0x44 }
  - { offset: 0x118982, size: 0x8, addend: 0x0, symName: '__ZN4core3ptr98drop_in_place$LT$alloc..vec..Vec$LT$pyo3..pyclass..create_type_object..GetSetDefDestructor$GT$$GT$17h09a3807e0533a1daE', symObjAddr: 0x52CC, symBinAddr: 0x43844, symSize: 0x5C }
  - { offset: 0x1189B1, size: 0x8, addend: 0x0, symName: '__ZN4core3ptr98drop_in_place$LT$core..option..Option$LT$pyo3..instance..Py$LT$pyo3..types..any..PyAny$GT$$GT$$GT$17h28d7a7c6de7d9fafE', symObjAddr: 0x5328, symBinAddr: 0x438A0, symSize: 0x44 }
  - { offset: 0x1189E0, size: 0x8, addend: 0x0, symName: '__ZN4core3ptr98drop_in_place$LT$core..option..Option$LT$std..thread..thread_name_string..ThreadNameString$GT$$GT$17h4072577cad77b43dE', symObjAddr: 0x536C, symBinAddr: 0x438E4, symSize: 0x44 }
  - { offset: 0x118E79, size: 0x8, addend: 0x0, symName: '__ZN70_$LT$core..num..error..TryFromIntError$u20$as$u20$core..fmt..Debug$GT$3fmt17hb19ff859d7dcbce8E', symObjAddr: 0x6270, symBinAddr: 0x44464, symSize: 0x54 }
  - { offset: 0x11911D, size: 0x8, addend: 0x0, symName: '__ZN102_$LT$core..iter..adapters..zip..Zip$LT$A$C$B$GT$$u20$as$u20$core..iter..traits..iterator..Iterator$GT$4next17h11aaef5397d26710E', symObjAddr: 0x34, symBinAddr: 0x40398, symSize: 0x24 }
  - { offset: 0x11915B, size: 0x8, addend: 0x0, symName: '__ZN102_$LT$core..iter..adapters..zip..Zip$LT$A$C$B$GT$$u20$as$u20$core..iter..traits..iterator..Iterator$GT$4next17hc4b804fc6cfe7076E', symObjAddr: 0x7C, symBinAddr: 0x403BC, symSize: 0x24 }
  - { offset: 0x119199, size: 0x8, addend: 0x0, symName: '__ZN102_$LT$core..iter..adapters..zip..Zip$LT$A$C$B$GT$$u20$as$u20$core..iter..traits..iterator..Iterator$GT$9size_hint17h2f1f8c3e8f1ea18bE', symObjAddr: 0xA0, symBinAddr: 0x403E0, symSize: 0x24 }
  - { offset: 0x1191D7, size: 0x8, addend: 0x0, symName: '__ZN102_$LT$core..iter..adapters..zip..Zip$LT$A$C$B$GT$$u20$as$u20$core..iter..traits..iterator..Iterator$GT$9size_hint17h6f32c341932c4787E', symObjAddr: 0xC4, symBinAddr: 0x40404, symSize: 0x24 }
  - { offset: 0x11921B, size: 0x8, addend: 0x0, symName: '__ZN111_$LT$core..iter..adapters..zip..Zip$LT$A$C$B$GT$$u20$as$u20$core..iter..adapters..zip..ZipImpl$LT$A$C$B$GT$$GT$3new17h035cb4d90f4fdfb1E', symObjAddr: 0x188, symBinAddr: 0x40428, symSize: 0xC4 }
  - { offset: 0x1192F2, size: 0x8, addend: 0x0, symName: '__ZN111_$LT$core..iter..adapters..zip..Zip$LT$A$C$B$GT$$u20$as$u20$core..iter..adapters..zip..ZipImpl$LT$A$C$B$GT$$GT$4next17h944642f5a92b479dE', symObjAddr: 0x5F4, symBinAddr: 0x4060C, symSize: 0xB8 }
  - { offset: 0x119348, size: 0x8, addend: 0x0, symName: '__ZN111_$LT$core..iter..adapters..zip..Zip$LT$A$C$B$GT$$u20$as$u20$core..iter..adapters..zip..ZipImpl$LT$A$C$B$GT$$GT$9size_hint17hfcd6f24c5b8982b0E', symObjAddr: 0x828, symBinAddr: 0x407F8, symSize: 0x48 }
  - { offset: 0x1193AC, size: 0x8, addend: 0x0, symName: '__ZN111_$LT$core..iter..adapters..zip..Zip$LT$A$C$B$GT$$u20$as$u20$core..iter..adapters..zip..ZipImpl$LT$A$C$B$GT$$GT$3new17h07f9d153ec10ead1E', symObjAddr: 0x24C, symBinAddr: 0x404EC, symSize: 0x40 }
  - { offset: 0x1193F8, size: 0x8, addend: 0x0, symName: '__ZN111_$LT$core..iter..adapters..zip..Zip$LT$A$C$B$GT$$u20$as$u20$core..iter..adapters..zip..ZipImpl$LT$A$C$B$GT$$GT$4next17h7ed6b7c95ff474c9E', symObjAddr: 0x438, symBinAddr: 0x4052C, symSize: 0xE0 }
  - { offset: 0x119551, size: 0x8, addend: 0x0, symName: '__ZN111_$LT$core..iter..adapters..zip..Zip$LT$A$C$B$GT$$u20$as$u20$core..iter..adapters..zip..ZipImpl$LT$A$C$B$GT$$GT$9size_hint17hdb7d6857eaed75edE', symObjAddr: 0x6AC, symBinAddr: 0x406C4, symSize: 0x134 }
  - { offset: 0x1198EC, size: 0x8, addend: 0x0, symName: __ZN4core4iter6traits8iterator8Iterator10filter_map17hb2a15709b7c1802eE, symObjAddr: 0x5978, symBinAddr: 0x43E64, symSize: 0x30 }
  - { offset: 0x11996B, size: 0x8, addend: 0x0, symName: __ZN4core4iter6traits8iterator8Iterator10filter_map17hc38198b563f4ce78E, symObjAddr: 0x59A8, symBinAddr: 0x43E94, symSize: 0x30 }
  - { offset: 0x1199EA, size: 0x8, addend: 0x0, symName: __ZN4core4iter6traits8iterator8Iterator8find_map17h729ea3fb31664070E, symObjAddr: 0x5A94, symBinAddr: 0x43EC4, symSize: 0x90 }
  - { offset: 0x119A6E, size: 0x8, addend: 0x0, symName: __ZN4core4iter6traits8iterator8Iterator8find_map17hb668b24cc8c80978E, symObjAddr: 0x5B24, symBinAddr: 0x43F54, symSize: 0x90 }
  - { offset: 0x119AF2, size: 0x8, addend: 0x0, symName: __ZN4core4iter6traits8iterator8Iterator8try_fold17h06cc75cf50023f08E, symObjAddr: 0x5BB4, symBinAddr: 0x43FE4, symSize: 0x198 }
  - { offset: 0x119BAF, size: 0x8, addend: 0x0, symName: __ZN4core4iter6traits8iterator8Iterator8try_fold17h2bd75f8b66cdce46E, symObjAddr: 0x5D4C, symBinAddr: 0x4417C, symSize: 0x198 }
  - { offset: 0x11B979, size: 0x8, addend: 0x0, symName: __ZN4core3ops8function5FnMut8call_mut17h387446247520a40fE, symObjAddr: 0x1BCC, symBinAddr: 0x41424, symSize: 0x48 }
  - { offset: 0x11B9C3, size: 0x8, addend: 0x0, symName: '__ZN4core3ops8function6FnOnce40call_once$u7b$$u7b$vtable.shim$u7d$$u7d$17h115202aa5baf556eE', symObjAddr: 0x1C6C, symBinAddr: 0x4146C, symSize: 0x24 }
  - { offset: 0x11BA07, size: 0x8, addend: 0x0, symName: '__ZN4core3ops8function6FnOnce40call_once$u7b$$u7b$vtable.shim$u7d$$u7d$17h1df0e03235692ae5E', symObjAddr: 0x1CB8, symBinAddr: 0x41490, symSize: 0x24 }
  - { offset: 0x11BA4B, size: 0x8, addend: 0x0, symName: '__ZN4core3ops8function6FnOnce40call_once$u7b$$u7b$vtable.shim$u7d$$u7d$17h3529bfb95107da49E', symObjAddr: 0x1D24, symBinAddr: 0x414B4, symSize: 0x24 }
  - { offset: 0x11BA8F, size: 0x8, addend: 0x0, symName: '__ZN4core3ops8function6FnOnce40call_once$u7b$$u7b$vtable.shim$u7d$$u7d$17h5f156ff39f0eb5c9E', symObjAddr: 0x1E30, symBinAddr: 0x414D8, symSize: 0x38 }
  - { offset: 0x11BAD3, size: 0x8, addend: 0x0, symName: '__ZN4core3ops8function6FnOnce40call_once$u7b$$u7b$vtable.shim$u7d$$u7d$17h6957d419ce22b9e1E', symObjAddr: 0x1E8C, symBinAddr: 0x41510, symSize: 0x30 }
  - { offset: 0x11BB17, size: 0x8, addend: 0x0, symName: '__ZN4core3ops8function6FnOnce40call_once$u7b$$u7b$vtable.shim$u7d$$u7d$17h7cfa819de7ba0e4bE', symObjAddr: 0x1F0C, symBinAddr: 0x41540, symSize: 0x30 }
  - { offset: 0x11BB57, size: 0x8, addend: 0x0, symName: '__ZN4core3ops8function6FnOnce40call_once$u7b$$u7b$vtable.shim$u7d$$u7d$17h7fcc4778d3da3832E', symObjAddr: 0x1F3C, symBinAddr: 0x41570, symSize: 0x38 }
  - { offset: 0x11BB9B, size: 0x8, addend: 0x0, symName: '__ZN4core3ops8function6FnOnce40call_once$u7b$$u7b$vtable.shim$u7d$$u7d$17h9467c3c012be881aE', symObjAddr: 0x1FEC, symBinAddr: 0x415A8, symSize: 0x30 }
  - { offset: 0x11BBDB, size: 0x8, addend: 0x0, symName: '__ZN4core3ops8function6FnOnce40call_once$u7b$$u7b$vtable.shim$u7d$$u7d$17h947e827fce46dd4dE', symObjAddr: 0x201C, symBinAddr: 0x415D8, symSize: 0x24 }
  - { offset: 0x11BC1F, size: 0x8, addend: 0x0, symName: '__ZN4core3ops8function6FnOnce40call_once$u7b$$u7b$vtable.shim$u7d$$u7d$17ha1c27bb9df67387aE', symObjAddr: 0x2040, symBinAddr: 0x415FC, symSize: 0x30 }
  - { offset: 0x11BC63, size: 0x8, addend: 0x0, symName: '__ZN4core3ops8function6FnOnce40call_once$u7b$$u7b$vtable.shim$u7d$$u7d$17hb0b0f3ec36ac0ad3E', symObjAddr: 0x20C0, symBinAddr: 0x4162C, symSize: 0x24 }
  - { offset: 0x11BCA7, size: 0x8, addend: 0x0, symName: '__ZN4core3ops8function6FnOnce40call_once$u7b$$u7b$vtable.shim$u7d$$u7d$17hb6010986eddc923bE', symObjAddr: 0x20E4, symBinAddr: 0x41650, symSize: 0x30 }
  - { offset: 0x11BCEB, size: 0x8, addend: 0x0, symName: '__ZN4core3ops8function6FnOnce40call_once$u7b$$u7b$vtable.shim$u7d$$u7d$17hbc5e8d59bcc58996E', symObjAddr: 0x2158, symBinAddr: 0x41680, symSize: 0x30 }
  - { offset: 0x11BD2F, size: 0x8, addend: 0x0, symName: '__ZN4core3ops8function6FnOnce40call_once$u7b$$u7b$vtable.shim$u7d$$u7d$17hda87d4fda724328fE', symObjAddr: 0x21D0, symBinAddr: 0x416B0, symSize: 0x30 }
  - { offset: 0x11BD73, size: 0x8, addend: 0x0, symName: '__ZN4core3ops8function6FnOnce40call_once$u7b$$u7b$vtable.shim$u7d$$u7d$17hf761189418418dbbE', symObjAddr: 0x2274, symBinAddr: 0x416E0, symSize: 0x24 }
  - { offset: 0x11BDB7, size: 0x8, addend: 0x0, symName: __ZN4core3ops8function6FnOnce9call_once17h2009e483b18f7754E, symObjAddr: 0x22BC, symBinAddr: 0x41704, symSize: 0x2C }
  - { offset: 0x11BDFB, size: 0x8, addend: 0x0, symName: __ZN4core3ops8function6FnOnce9call_once17h30eb62295909c804E, symObjAddr: 0x22E8, symBinAddr: 0x41730, symSize: 0x1C }
  - { offset: 0x11BE3F, size: 0x8, addend: 0x0, symName: __ZN4core3ops8function6FnOnce9call_once17h352f6ef0ba0638d1E, symObjAddr: 0x2304, symBinAddr: 0x4174C, symSize: 0x2C }
  - { offset: 0x11BE83, size: 0x8, addend: 0x0, symName: __ZN4core3ops8function6FnOnce9call_once17h35daa14a927ec891E, symObjAddr: 0x2330, symBinAddr: 0x41778, symSize: 0x5C }
  - { offset: 0x11BEC7, size: 0x8, addend: 0x0, symName: __ZN4core3ops8function6FnOnce9call_once17h3c51c0c4a8235132E, symObjAddr: 0x238C, symBinAddr: 0x417D4, symSize: 0x4C }
  - { offset: 0x11BF07, size: 0x8, addend: 0x0, symName: __ZN4core3ops8function6FnOnce9call_once17h4724f5cc3b5f1799E, symObjAddr: 0x2414, symBinAddr: 0x41820, symSize: 0x34 }
  - { offset: 0x11BF4B, size: 0x8, addend: 0x0, symName: __ZN4core3ops8function6FnOnce9call_once17h5b26aacddac54d50E, symObjAddr: 0x2474, symBinAddr: 0x41854, symSize: 0x2C }
  - { offset: 0x11BF8F, size: 0x8, addend: 0x0, symName: __ZN4core3ops8function6FnOnce9call_once17h5cd029b6e7bcc55dE, symObjAddr: 0x24A0, symBinAddr: 0x41880, symSize: 0x4C }
  - { offset: 0x11BFD3, size: 0x8, addend: 0x0, symName: __ZN4core3ops8function6FnOnce9call_once17h787301c5e39cefa3E, symObjAddr: 0x2520, symBinAddr: 0x418CC, symSize: 0x58 }
  - { offset: 0x11C017, size: 0x8, addend: 0x0, symName: __ZN4core3ops8function6FnOnce9call_once17h78b09010e3411e11E, symObjAddr: 0x2578, symBinAddr: 0x41924, symSize: 0x2C }
  - { offset: 0x11C078, size: 0x8, addend: 0x0, symName: __ZN4core3ops8function6FnOnce9call_once17h7c84419f89e5bb6bE, symObjAddr: 0x25C8, symBinAddr: 0x41950, symSize: 0x24 }
  - { offset: 0x11C0BC, size: 0x8, addend: 0x0, symName: __ZN4core3ops8function6FnOnce9call_once17h81ff05bb141dd60bE, symObjAddr: 0x25EC, symBinAddr: 0x41974, symSize: 0x24 }
  - { offset: 0x11C100, size: 0x8, addend: 0x0, symName: __ZN4core3ops8function6FnOnce9call_once17h93434f57923d3df4E, symObjAddr: 0x263C, symBinAddr: 0x41998, symSize: 0x4C }
  - { offset: 0x11C144, size: 0x8, addend: 0x0, symName: __ZN4core3ops8function6FnOnce9call_once17ha2d12e2282f9ddc7E, symObjAddr: 0x2688, symBinAddr: 0x419E4, symSize: 0x4C }
  - { offset: 0x11C184, size: 0x8, addend: 0x0, symName: __ZN4core3ops8function6FnOnce9call_once17ha484de2c16d11715E, symObjAddr: 0x26D4, symBinAddr: 0x41A30, symSize: 0x24 }
  - { offset: 0x11C1C8, size: 0x8, addend: 0x0, symName: __ZN4core3ops8function6FnOnce9call_once17hd68fe74b3d2e48b8E, symObjAddr: 0x26F8, symBinAddr: 0x41A54, symSize: 0x2C }
  - { offset: 0x11C20C, size: 0x8, addend: 0x0, symName: __ZN4core3ops8function6FnOnce9call_once17he295937db2031fc1E, symObjAddr: 0x2724, symBinAddr: 0x41A80, symSize: 0x24 }
  - { offset: 0x11C250, size: 0x8, addend: 0x0, symName: __ZN4core3ops8function6FnOnce9call_once17hee4003c963d84dc6E, symObjAddr: 0x2748, symBinAddr: 0x41AA4, symSize: 0x24 }
  - { offset: 0x11C294, size: 0x8, addend: 0x0, symName: __ZN4core3ops8function6FnOnce9call_once17hfd069deba60eb359E, symObjAddr: 0x2798, symBinAddr: 0x41AC8, symSize: 0x4C }
  - { offset: 0x11C343, size: 0x8, addend: 0x0, symName: '__ZN50_$LT$T$u20$as$u20$core..convert..Into$LT$U$GT$$GT$4into17heac82577579c5538E', symObjAddr: 0x5F24, symBinAddr: 0x44314, symSize: 0x28 }
  - { offset: 0x11C389, size: 0x8, addend: 0x0, symName: '__ZN53_$LT$T$u20$as$u20$core..convert..TryInto$LT$U$GT$$GT$8try_into17h511f74638fb32543E', symObjAddr: 0x5F7C, symBinAddr: 0x4433C, symSize: 0x20 }
  - { offset: 0x11C3C9, size: 0x8, addend: 0x0, symName: '__ZN53_$LT$T$u20$as$u20$core..convert..TryInto$LT$U$GT$$GT$8try_into17h7705cc3c4b7c4264E', symObjAddr: 0x5F9C, symBinAddr: 0x4435C, symSize: 0x20 }
  - { offset: 0x11C82E, size: 0x8, addend: 0x0, symName: '__ZN74_$LT$core..cell..RefMut$LT$T$GT$$u20$as$u20$core..ops..deref..DerefMut$GT$9deref_mut17h101e5ae4189fa49eE', symObjAddr: 0x6314, symBinAddr: 0x44508, symSize: 0x24 }
  - { offset: 0x11C883, size: 0x8, addend: 0x0, symName: '__ZN74_$LT$core..cell..RefMut$LT$T$GT$$u20$as$u20$core..ops..deref..DerefMut$GT$9deref_mut17h838b45c2fdd47a1cE', symObjAddr: 0x6338, symBinAddr: 0x4452C, symSize: 0x24 }
  - { offset: 0x11C8DE, size: 0x8, addend: 0x0, symName: '__ZN63_$LT$core..cell..BorrowRef$u20$as$u20$core..ops..drop..Drop$GT$4drop17h8ccdc09d85860e77E', symObjAddr: 0x6020, symBinAddr: 0x4437C, symSize: 0x60 }
  - { offset: 0x11CA38, size: 0x8, addend: 0x0, symName: '__ZN66_$LT$core..cell..BorrowRefMut$u20$as$u20$core..ops..drop..Drop$GT$4drop17ha0319f6d603af90aE', symObjAddr: 0x6090, symBinAddr: 0x443DC, symSize: 0x60 }
  - { offset: 0x11CB92, size: 0x8, addend: 0x0, symName: '__ZN68_$LT$core..cell..Ref$LT$T$GT$$u20$as$u20$core..ops..deref..Deref$GT$5deref17h4b544e7165102048E', symObjAddr: 0x61E4, symBinAddr: 0x4443C, symSize: 0x28 }
  - { offset: 0x11CC0B, size: 0x8, addend: 0x0, symName: '__ZN71_$LT$core..cell..RefMut$LT$T$GT$$u20$as$u20$core..ops..deref..Deref$GT$5deref17h871505fa27686157E', symObjAddr: 0x62C4, symBinAddr: 0x444B8, symSize: 0x28 }
  - { offset: 0x11CC7E, size: 0x8, addend: 0x0, symName: '__ZN71_$LT$core..cell..RefMut$LT$T$GT$$u20$as$u20$core..ops..deref..Deref$GT$5deref17he8329cca60388e64E', symObjAddr: 0x62EC, symBinAddr: 0x444E0, symSize: 0x28 }
  - { offset: 0x11EEB9, size: 0x8, addend: 0x0, symName: __ZN8pyo3_ffi8pyerrors22PyExceptionClass_Check17h136ec8ddf5de6083E, symObjAddr: 0x6388, symBinAddr: 0x44550, symSize: 0x60 }
  - { offset: 0x11EEE5, size: 0x8, addend: 0x0, symName: __ZN8pyo3_ffi8pyerrors25PyExceptionInstance_Check17hdfd805723d0fe955E, symObjAddr: 0x63E8, symBinAddr: 0x445B0, symSize: 0x30 }
  - { offset: 0x11F21D, size: 0x8, addend: 0x0, symName: __ZN3std5panic12catch_unwind17h107ac0866b4be88eE, symObjAddr: 0x8A0, symBinAddr: 0x40840, symSize: 0xD4 }
  - { offset: 0x11F2C6, size: 0x8, addend: 0x0, symName: __ZN3std5panic12catch_unwind17h1f3afdc7450ff3efE, symObjAddr: 0x974, symBinAddr: 0x40914, symSize: 0xD8 }
  - { offset: 0x11F38F, size: 0x8, addend: 0x0, symName: __ZN3std5panic12catch_unwind17h4d3d8846fc6ba411E, symObjAddr: 0xA4C, symBinAddr: 0x409EC, symSize: 0xD8 }
  - { offset: 0x11F458, size: 0x8, addend: 0x0, symName: __ZN3std5panic12catch_unwind17h6a4847aadebc9383E, symObjAddr: 0xB24, symBinAddr: 0x40AC4, symSize: 0xB8 }
  - { offset: 0x11F501, size: 0x8, addend: 0x0, symName: __ZN3std5panic12catch_unwind17hff9537d3b9222d39E, symObjAddr: 0xBDC, symBinAddr: 0x40B7C, symSize: 0xD4 }
  - { offset: 0x120D5A, size: 0x8, addend: 0x0, symName: '__ZN3std6thread5local17LocalKey$LT$T$GT$4with17h0c2092793b7bbbbbE', symObjAddr: 0xCB0, symBinAddr: 0x40C50, symSize: 0x4C }
  - { offset: 0x120E3F, size: 0x8, addend: 0x0, symName: '__ZN3std6thread5local17LocalKey$LT$T$GT$4with17he93b910bfc7e850cE', symObjAddr: 0xE14, symBinAddr: 0x40C9C, symSize: 0x5C }
  - { offset: 0x120EE0, size: 0x8, addend: 0x0, symName: '__ZN3std6thread5local17LocalKey$LT$T$GT$8try_with17h46f2fa4e50d19f49E', symObjAddr: 0xE70, symBinAddr: 0x40CF8, symSize: 0xD4 }
  - { offset: 0x12107E, size: 0x8, addend: 0x0, symName: '__ZN3std6thread5local17LocalKey$LT$T$GT$8try_with17h992e8a63f9c9fc81E', symObjAddr: 0x102C, symBinAddr: 0x40DCC, symSize: 0xF0 }
  - { offset: 0x12121E, size: 0x8, addend: 0x0, symName: '__ZN3std6thread5local17LocalKey$LT$T$GT$8try_with17h99f711ca825a395dE', symObjAddr: 0x111C, symBinAddr: 0x40EBC, symSize: 0xDC }
  - { offset: 0x1213B1, size: 0x8, addend: 0x0, symName: '__ZN3std6thread5local17LocalKey$LT$T$GT$8try_with17ha040e815c3ff9009E', symObjAddr: 0x11F8, symBinAddr: 0x40F98, symSize: 0xD0 }
  - { offset: 0x12154F, size: 0x8, addend: 0x0, symName: '__ZN3std6thread5local17LocalKey$LT$T$GT$8try_with17he426abf17488e6cdE', symObjAddr: 0x155C, symBinAddr: 0x41068, symSize: 0xEC }
  - { offset: 0x1216E1, size: 0x8, addend: 0x0, symName: '__ZN3std6thread5local17LocalKey$LT$T$GT$8try_with17hf30bd3cde58cbec6E', symObjAddr: 0x1648, symBinAddr: 0x41154, symSize: 0xDC }
  - { offset: 0x121873, size: 0x8, addend: 0x0, symName: '__ZN3std6thread5local17LocalKey$LT$T$GT$8try_with17hf822d1bd926c9a03E', symObjAddr: 0x1724, symBinAddr: 0x41230, symSize: 0xD0 }
  - { offset: 0x121AA8, size: 0x8, addend: 0x0, symName: '__ZN4core4cell13Cell$LT$T$GT$3get17h8f7da9e665d0254aE', symObjAddr: 0x53B0, symBinAddr: 0x43928, symSize: 0x20 }
  - { offset: 0x121B25, size: 0x8, addend: 0x0, symName: '__ZN4core4cell13Cell$LT$T$GT$3set17h38093db0bf67f5e1E', symObjAddr: 0x53F0, symBinAddr: 0x43948, symSize: 0x34 }
  - { offset: 0x121C58, size: 0x8, addend: 0x0, symName: '__ZN4core4cell16RefCell$LT$T$GT$10borrow_mut17h171bf5f493a3157fE', symObjAddr: 0x5490, symBinAddr: 0x4397C, symSize: 0x60 }
  - { offset: 0x121CBB, size: 0x8, addend: 0x0, symName: '__ZN4core4cell16RefCell$LT$T$GT$10borrow_mut17h4d35b057d865c66cE', symObjAddr: 0x54F0, symBinAddr: 0x439DC, symSize: 0x60 }
  - { offset: 0x121DFF, size: 0x8, addend: 0x0, symName: '__ZN4core4cell16RefCell$LT$T$GT$10try_borrow17h59c5243ba5d002cbE', symObjAddr: 0x5550, symBinAddr: 0x43A3C, symSize: 0xE4 }
  - { offset: 0x1220D1, size: 0x8, addend: 0x0, symName: '__ZN4core4cell16RefCell$LT$T$GT$14try_borrow_mut17h409b4c0ca47e3e43E', symObjAddr: 0x5634, symBinAddr: 0x43B20, symSize: 0xDC }
  - { offset: 0x122336, size: 0x8, addend: 0x0, symName: '__ZN4core4cell16RefCell$LT$T$GT$14try_borrow_mut17hf081e150cb3658c3E', symObjAddr: 0x5710, symBinAddr: 0x43BFC, symSize: 0xDC }
  - { offset: 0x1224C7, size: 0x8, addend: 0x0, symName: '__ZN4core4cell16RefCell$LT$T$GT$6borrow17h3407fe93aa4956caE', symObjAddr: 0x57EC, symBinAddr: 0x43CD8, symSize: 0x60 }
  - { offset: 0x12259B, size: 0x8, addend: 0x0, symName: '__ZN4core4cell16RefCell$LT$T$GT$7replace17h54e76722a675ea43E', symObjAddr: 0x584C, symBinAddr: 0x43D38, symSize: 0x12C }
  - { offset: 0x122A04, size: 0x8, addend: 0x0, symName: '__ZN9hashbrown11rustc_entry62_$LT$impl$u20$hashbrown..map..HashMap$LT$K$C$V$C$S$C$A$GT$$GT$11rustc_entry28_$u7b$$u7b$closure$u7d$$u7d$17h6635b5c49312a936E', symObjAddr: 0x6454, symBinAddr: 0x445E0, symSize: 0x38 }
  - { offset: 0x123E1B, size: 0x8, addend: 0x0, symName: '__ZN71_$LT$alloc..sync..Arc$LT$T$C$A$GT$$u20$as$u20$core..ops..drop..Drop$GT$4drop17h149a1e76f140926aE', symObjAddr: 0xA60, symBinAddr: 0x449FC, symSize: 0xC0 }
  - { offset: 0x123FEF, size: 0x8, addend: 0x0, symName: '__ZN72_$LT$alloc..sync..Weak$LT$T$C$A$GT$$u20$as$u20$core..ops..drop..Drop$GT$4drop17h98f65570687b6da2E', symObjAddr: 0xB20, symBinAddr: 0x44ABC, symSize: 0x16C }
  - { offset: 0x125F88, size: 0x8, addend: 0x0, symName: __ZN4core3str11validations23next_code_point_reverse17h73862d8ed6c9d1a2E, symObjAddr: 0x484, symBinAddr: 0x4466C, symSize: 0x220 }
  - { offset: 0x126711, size: 0x8, addend: 0x0, symName: __ZN4core9panicking13assert_failed17h6585615cdc872840E, symObjAddr: 0x81C, symBinAddr: 0x95054, symSize: 0x3C }
  - { offset: 0x12677A, size: 0x8, addend: 0x0, symName: __ZN4core9panicking13assert_failed17hca4e04a781433db2E, symObjAddr: 0x894, symBinAddr: 0x95090, symSize: 0x3C }
  - { offset: 0x1267E3, size: 0x8, addend: 0x0, symName: __ZN4core9panicking13assert_failed17he0841fa3cc6b9c0bE, symObjAddr: 0x8D0, symBinAddr: 0x950CC, symSize: 0x3C }
  - { offset: 0x12684C, size: 0x8, addend: 0x0, symName: __ZN4core9panicking13panic_display17h6fd9c598e6c5f734E, symObjAddr: 0x90C, symBinAddr: 0x448DC, symSize: 0x98 }
  - { offset: 0x126AF0, size: 0x8, addend: 0x0, symName: '__ZN50_$LT$T$u20$as$u20$core..convert..Into$LT$U$GT$$GT$4into17h0f3ccf200ad3b58eE', symObjAddr: 0x9A4, symBinAddr: 0x44974, symSize: 0x14 }
  - { offset: 0x126BB4, size: 0x8, addend: 0x0, symName: '__ZN4core5slice4iter87_$LT$impl$u20$core..iter..traits..collect..IntoIterator$u20$for$u20$$RF$$u5b$T$u5d$$GT$9into_iter17h483b31655e95a6feE', symObjAddr: 0x7CC, symBinAddr: 0x4488C, symSize: 0x50 }
  - { offset: 0x127D6C, size: 0x8, addend: 0x0, symName: __ZN8pyo3_ffi12methodobject17PyCFunction_NewEx17h892abcbb8b46dde1E, symObjAddr: 0xCB8, symBinAddr: 0x44C28, symSize: 0x40 }
  - { offset: 0x1283B0, size: 0x8, addend: 0x0, symName: '__ZN4pyo33err5PyErr3new28_$u7b$$u7b$closure$u7d$$u7d$17h28c2c3ccb17c1260E', symObjAddr: 0x29E4, symBinAddr: 0x45300, symSize: 0xC0 }
  - { offset: 0x128407, size: 0x8, addend: 0x0, symName: '__ZN4pyo33err5PyErr3new28_$u7b$$u7b$closure$u7d$$u7d$17h35568a0838b5465dE', symObjAddr: 0x2C14, symBinAddr: 0x453C0, symSize: 0xC0 }
  - { offset: 0x12845E, size: 0x8, addend: 0x0, symName: '__ZN4pyo33err5PyErr3new28_$u7b$$u7b$closure$u7d$$u7d$17h598ebce815e1ecf0E', symObjAddr: 0x2F0C, symBinAddr: 0x45480, symSize: 0xD4 }
  - { offset: 0x1284B6, size: 0x8, addend: 0x0, symName: '__ZN4pyo33err5PyErr3new28_$u7b$$u7b$closure$u7d$$u7d$17h7f558bfb0c697dc2E', symObjAddr: 0x3224, symBinAddr: 0x45554, symSize: 0xD4 }
  - { offset: 0x12850E, size: 0x8, addend: 0x0, symName: '__ZN4pyo33err5PyErr3new28_$u7b$$u7b$closure$u7d$$u7d$17h8bb6dbb71b776198E', symObjAddr: 0x32F8, symBinAddr: 0x45628, symSize: 0xD4 }
  - { offset: 0x128566, size: 0x8, addend: 0x0, symName: '__ZN4pyo33err5PyErr3new28_$u7b$$u7b$closure$u7d$$u7d$17h8ecfeb17b1fead5aE', symObjAddr: 0x347C, symBinAddr: 0x456FC, symSize: 0xD4 }
  - { offset: 0x1285BE, size: 0x8, addend: 0x0, symName: '__ZN4pyo33err5PyErr3new28_$u7b$$u7b$closure$u7d$$u7d$17h8fc12e4b7f87c42bE', symObjAddr: 0x3550, symBinAddr: 0x457D0, symSize: 0xC0 }
  - { offset: 0x128615, size: 0x8, addend: 0x0, symName: '__ZN4pyo33err5PyErr3new28_$u7b$$u7b$closure$u7d$$u7d$17hb2ee58f13223d338E', symObjAddr: 0x3910, symBinAddr: 0x45890, symSize: 0xD4 }
  - { offset: 0x12866D, size: 0x8, addend: 0x0, symName: '__ZN4pyo33err5PyErr3new28_$u7b$$u7b$closure$u7d$$u7d$17hcb9ada30c3b7da88E', symObjAddr: 0x3CD0, symBinAddr: 0x45964, symSize: 0xC0 }
  - { offset: 0x1286C4, size: 0x8, addend: 0x0, symName: '__ZN4pyo33err5PyErr3new28_$u7b$$u7b$closure$u7d$$u7d$17hd7ccda779b86c443E', symObjAddr: 0x3FF8, symBinAddr: 0x45A24, symSize: 0xD4 }
  - { offset: 0x128722, size: 0x8, addend: 0x0, symName: '__ZN4pyo33err5PyErr5_take28_$u7b$$u7b$closure$u7d$$u7d$17h7191780907ba4b2cE', symObjAddr: 0x49E8, symBinAddr: 0x461D4, symSize: 0x44 }
  - { offset: 0x12876A, size: 0x8, addend: 0x0, symName: '__ZN4pyo33err5PyErr5_take28_$u7b$$u7b$closure$u7d$$u7d$17h5cee993e01b8f41aE', symObjAddr: 0x4A2C, symBinAddr: 0x46218, symSize: 0x44 }
  - { offset: 0x1287A3, size: 0x8, addend: 0x0, symName: '__ZN4pyo33err5PyErr5_take28_$u7b$$u7b$closure$u7d$$u7d$17he00d8a1a744b2ecaE', symObjAddr: 0x4A70, symBinAddr: 0x4625C, symSize: 0x2C }
  - { offset: 0x1287F4, size: 0x8, addend: 0x0, symName: '__ZN4pyo33err5PyErr8new_type28_$u7b$$u7b$closure$u7d$$u7d$17h4f8d71d80abe9b2eE', symObjAddr: 0x4F84, symBinAddr: 0x46770, symSize: 0x50 }
  - { offset: 0x12883A, size: 0x8, addend: 0x0, symName: '__ZN4pyo33err5PyErr16write_unraisable28_$u7b$$u7b$closure$u7d$$u7d$17hbd175a8c3cd049d9E', symObjAddr: 0x5424, symBinAddr: 0x4692C, symSize: 0x24 }
  - { offset: 0x128880, size: 0x8, addend: 0x0, symName: '__ZN4pyo33err5PyErr9set_cause28_$u7b$$u7b$closure$u7d$$u7d$17h16424a230d243b11E', symObjAddr: 0x5BE0, symBinAddr: 0x46B70, symSize: 0x28 }
  - { offset: 0x1288E2, size: 0x8, addend: 0x0, symName: __ZN4pyo33err5PyErr5fetch18panic_cold_display17he1cc373bae61d602E, symObjAddr: 0x80A4, symBinAddr: 0x95408, symSize: 0x18 }
  - { offset: 0x1293B6, size: 0x8, addend: 0x0, symName: '__ZN4pyo33err5impls101_$LT$impl$u20$core..convert..From$LT$alloc..ffi..c_str..NulError$GT$$u20$for$u20$pyo3..err..PyErr$GT$4from17hfe298fd7552339a8E', symObjAddr: 0x7FF8, symBinAddr: 0x4754C, symSize: 0x14 }
  - { offset: 0x12942E, size: 0x8, addend: 0x0, symName: '__ZN53_$LT$pyo3..err..PyErr$u20$as$u20$core..fmt..Debug$GT$3fmt17h48e734902ef4d43fE', symObjAddr: 0x5E7C, symBinAddr: 0x46C58, symSize: 0x38 }
  - { offset: 0x129470, size: 0x8, addend: 0x0, symName: '__ZN53_$LT$pyo3..err..PyErr$u20$as$u20$core..fmt..Debug$GT$3fmt28_$u7b$$u7b$closure$u7d$$u7d$17h1789de7281cf70a4E', symObjAddr: 0x5EB4, symBinAddr: 0x46C90, symSize: 0xD8 }
  - { offset: 0x1294D4, size: 0x8, addend: 0x0, symName: '__ZN92_$LT$pyo3..err..PyDowncastErrorArguments$u20$as$u20$pyo3..err..err_state..PyErrArguments$GT$9arguments17h5324fa05ee16c9aaE', symObjAddr: 0x6304, symBinAddr: 0x46D68, symSize: 0x198 }
  - { offset: 0x129645, size: 0x8, addend: 0x0, symName: '__ZN90_$LT$pyo3..err..PyErr$u20$as$u20$core..convert..From$LT$pyo3..err..PyDowncastError$GT$$GT$4from17h45e672fd60499492E', symObjAddr: 0x649C, symBinAddr: 0x46F00, symSize: 0xC8 }
  - { offset: 0x129694, size: 0x8, addend: 0x0, symName: __ZN4pyo33err17panic_after_error17hc878217079237c41E, symObjAddr: 0x66C0, symBinAddr: 0x46FC8, symSize: 0x34 }
  - { offset: 0x1296C9, size: 0x8, addend: 0x0, symName: __ZN4pyo33err17error_on_minusone17h3c6db223e7b379bfE, symObjAddr: 0x66F4, symBinAddr: 0x46FFC, symSize: 0xB8 }
  - { offset: 0x12971A, size: 0x8, addend: 0x0, symName: __ZN4pyo33err17error_on_minusone17h40c4085b1c3e1415E, symObjAddr: 0x67AC, symBinAddr: 0x470B4, symSize: 0xB8 }
  - { offset: 0x129A67, size: 0x8, addend: 0x0, symName: __ZN4pyo35panic14PanicException15type_object_raw11TYPE_OBJECT17h8d3b06c80d088716E, symObjAddr: 0x44118, symBinAddr: 0xE48C8, symSize: 0x0 }
  - { offset: 0x129A74, size: 0x8, addend: 0x0, symName: '__ZN4pyo35panic14PanicException15type_object_raw28_$u7b$$u7b$closure$u7d$$u7d$17hc969447c6307c7e0E', symObjAddr: 0x81D4, symBinAddr: 0x475C8, symSize: 0x88 }
  - { offset: 0x129B3F, size: 0x8, addend: 0x0, symName: '__ZN77_$LT$pyo3..panic..PanicException$u20$as$u20$pyo3..type_object..PyTypeInfo$GT$15type_object_raw17hd3bcb4ff557e0546E', symObjAddr: 0x860C, symBinAddr: 0x47650, symSize: 0x1C }
  - { offset: 0x129F58, size: 0x8, addend: 0x0, symName: __ZN4pyo35impl_9pymethods8get_name17hc905a583f9a596d1E, symObjAddr: 0x6EF4, symBinAddr: 0x474BC, symSize: 0x38 }
  - { offset: 0x129F86, size: 0x8, addend: 0x0, symName: __ZN4pyo35impl_9pymethods7get_doc17h9bee38fb55f1d34aE, symObjAddr: 0x6F2C, symBinAddr: 0x474F4, symSize: 0x38 }
  - { offset: 0x12A03E, size: 0x8, addend: 0x0, symName: __ZN4pyo311type_object10PyTypeInfo11type_object17he99a252f06e26db3E, symObjAddr: 0x7484, symBinAddr: 0x4752C, symSize: 0x20 }
  - { offset: 0x12A597, size: 0x8, addend: 0x0, symName: '__ZN5alloc4sync16Arc$LT$T$C$A$GT$9drop_slow17h34f821fe6407b165E', symObjAddr: 0x9EC, symBinAddr: 0x44988, symSize: 0x74 }
  - { offset: 0x12A83D, size: 0x8, addend: 0x0, symName: __ZN4pyo33err15PyDowncastError3new17h084e2a1b21666e5bE, symObjAddr: 0x146C, symBinAddr: 0x44C68, symSize: 0x68 }
  - { offset: 0x12A883, size: 0x8, addend: 0x0, symName: __ZN4pyo33err5PyErr3new17h1317cf39299e6717E, symObjAddr: 0x14D4, symBinAddr: 0x44CD0, symSize: 0x9C }
  - { offset: 0x12A8E1, size: 0x8, addend: 0x0, symName: __ZN4pyo33err5PyErr3new17h173282ecab0b2184E, symObjAddr: 0x1570, symBinAddr: 0x44D6C, symSize: 0x9C }
  - { offset: 0x12A93F, size: 0x8, addend: 0x0, symName: __ZN4pyo33err5PyErr3new17h1b847421b1a8b281E, symObjAddr: 0x169C, symBinAddr: 0x44E08, symSize: 0xA0 }
  - { offset: 0x12A99E, size: 0x8, addend: 0x0, symName: __ZN4pyo33err5PyErr3new17h3a7dbfe269d624ffE, symObjAddr: 0x19F0, symBinAddr: 0x44EA8, symSize: 0xA0 }
  - { offset: 0x12A9FD, size: 0x8, addend: 0x0, symName: __ZN4pyo33err5PyErr3new17h5137e08dcb404c0dE, symObjAddr: 0x1C0C, symBinAddr: 0x44F48, symSize: 0x9C }
  - { offset: 0x12AA5B, size: 0x8, addend: 0x0, symName: __ZN4pyo33err5PyErr3new17h678efe6d05f1f1ceE, symObjAddr: 0x1DB8, symBinAddr: 0x44FE4, symSize: 0xA0 }
  - { offset: 0x12AABA, size: 0x8, addend: 0x0, symName: __ZN4pyo33err5PyErr3new17h75aaa840aaf1462dE, symObjAddr: 0x1E58, symBinAddr: 0x45084, symSize: 0xA0 }
  - { offset: 0x12AB19, size: 0x8, addend: 0x0, symName: __ZN4pyo33err5PyErr3new17hb7d3e541e6587045E, symObjAddr: 0x2158, symBinAddr: 0x45124, symSize: 0xA0 }
  - { offset: 0x12AB78, size: 0x8, addend: 0x0, symName: __ZN4pyo33err5PyErr3new17hdd7bdbe697011065E, symObjAddr: 0x2374, symBinAddr: 0x451C4, symSize: 0xA0 }
  - { offset: 0x12ABD7, size: 0x8, addend: 0x0, symName: __ZN4pyo33err5PyErr3new17hdfec941de76302e2E, symObjAddr: 0x2414, symBinAddr: 0x45264, symSize: 0x9C }
  - { offset: 0x12AC28, size: 0x8, addend: 0x0, symName: __ZN4pyo33err5PyErr10from_value17h3ce6d0d9d96529d6E, symObjAddr: 0x430C, symBinAddr: 0x45AF8, symSize: 0x128 }
  - { offset: 0x12AC89, size: 0x8, addend: 0x0, symName: __ZN4pyo33err5PyErr8get_type17h9f5e6130975d5f62E, symObjAddr: 0x4434, symBinAddr: 0x45C20, symSize: 0x28 }
  - { offset: 0x12ACD0, size: 0x8, addend: 0x0, symName: __ZN4pyo33err5PyErr5value17h9212dbc02875aeafE, symObjAddr: 0x445C, symBinAddr: 0x45C48, symSize: 0x2C }
  - { offset: 0x12AD0A, size: 0x8, addend: 0x0, symName: __ZN4pyo33err5PyErr10into_value17hb12158818387a2eeE, symObjAddr: 0x4488, symBinAddr: 0x45C74, symSize: 0x11C }
  - { offset: 0x12AD84, size: 0x8, addend: 0x0, symName: __ZN4pyo33err5PyErr9traceback17hde7dc25a2db92002E, symObjAddr: 0x45A4, symBinAddr: 0x45D90, symSize: 0x28 }
  - { offset: 0x12ADBE, size: 0x8, addend: 0x0, symName: __ZN4pyo33err5PyErr4take17ha5fdc1caf7221749E, symObjAddr: 0x45CC, symBinAddr: 0x45DB8, symSize: 0x1C }
  - { offset: 0x12ADEC, size: 0x8, addend: 0x0, symName: __ZN4pyo33err5PyErr5_take17h3489bbbd76343f07E, symObjAddr: 0x45E8, symBinAddr: 0x45DD4, symSize: 0x400 }
  - { offset: 0x12B05E, size: 0x8, addend: 0x0, symName: __ZN4pyo33err5PyErr22print_panic_and_unwind17hda08a956c5e80fd1E, symObjAddr: 0x4A9C, symBinAddr: 0x46288, symSize: 0x18C }
  - { offset: 0x12B0CB, size: 0x8, addend: 0x0, symName: __ZN4pyo33err5PyErr5fetch17h8732dfeb344ccf34E, symObjAddr: 0x4C28, symBinAddr: 0x46414, symSize: 0x5C }
  - { offset: 0x12B0F9, size: 0x8, addend: 0x0, symName: __ZN4pyo33err5PyErr8new_type17hc29f1519f5c91be4E, symObjAddr: 0x4C84, symBinAddr: 0x46470, symSize: 0x300 }
  - { offset: 0x12B336, size: 0x8, addend: 0x0, symName: __ZN4pyo33err5PyErr5print17hd854c48208891873E, symObjAddr: 0x5074, symBinAddr: 0x467C0, symSize: 0x3C }
  - { offset: 0x12B373, size: 0x8, addend: 0x0, symName: __ZN4pyo33err5PyErr11is_instance17hf1471eaa1938622bE, symObjAddr: 0x50EC, symBinAddr: 0x467FC, symSize: 0x58 }
  - { offset: 0x12B3BF, size: 0x8, addend: 0x0, symName: __ZN4pyo33err5PyErr14is_instance_of17h095cd75169bd163fE, symObjAddr: 0x5144, symBinAddr: 0x46854, symSize: 0x34 }
  - { offset: 0x12B421, size: 0x8, addend: 0x0, symName: __ZN4pyo33err5PyErr7restore17heb4a8a27be1673aeE, symObjAddr: 0x5380, symBinAddr: 0x46888, symSize: 0x68 }
  - { offset: 0x12B47D, size: 0x8, addend: 0x0, symName: __ZN4pyo33err5PyErr16write_unraisable17hcfe1efe10d06b77cE, symObjAddr: 0x53E8, symBinAddr: 0x468F0, symSize: 0x3C }
  - { offset: 0x12B51C, size: 0x8, addend: 0x0, symName: __ZN4pyo33err5PyErr9clone_ref17hd510b221e30caf35E, symObjAddr: 0x59C0, symBinAddr: 0x46950, symSize: 0x54 }
  - { offset: 0x12B559, size: 0x8, addend: 0x0, symName: __ZN4pyo33err5PyErr5cause17h91c2e0d72dbfcefcE, symObjAddr: 0x5A14, symBinAddr: 0x469A4, symSize: 0x50 }
  - { offset: 0x12B5D2, size: 0x8, addend: 0x0, symName: __ZN4pyo33err5PyErr9set_cause17hd70d738491e09322E, symObjAddr: 0x5A64, symBinAddr: 0x469F4, symSize: 0x17C }
  - { offset: 0x12B6BB, size: 0x8, addend: 0x0, symName: __ZN4pyo33err5PyErr10from_state17h2fcf19fc521e3287E, symObjAddr: 0x5C08, symBinAddr: 0x46B98, symSize: 0x3C }
  - { offset: 0x12B709, size: 0x8, addend: 0x0, symName: __ZN4pyo33err5PyErr10normalized17h8b05047dd5e9c7bdE, symObjAddr: 0x5C44, symBinAddr: 0x46BD4, symSize: 0x84 }
  - { offset: 0x12B792, size: 0x8, addend: 0x0, symName: __ZN4pyo33err5PyErr15make_normalized17h43dbe8fe199acd3eE, symObjAddr: 0x5CC8, symBinAddr: 0x95108, symSize: 0x1B4 }
  - { offset: 0x12B971, size: 0x8, addend: 0x0, symName: __ZN4pyo35impl_9pymethods19PyClassAttributeDef18attribute_c_string17h92d9c9ce88e1bb34E, symObjAddr: 0x691C, symBinAddr: 0x4716C, symSize: 0x40 }
  - { offset: 0x12B9BE, size: 0x8, addend: 0x0, symName: __ZN4pyo35impl_9pymethods11PyMethodDef13as_method_def17ha076af0c58c6c912E, symObjAddr: 0x6AC4, symBinAddr: 0x471AC, symSize: 0x310 }
  - { offset: 0x12BB5B, size: 0x8, addend: 0x0, symName: __ZN4pyo35panic14PanicException18from_panic_payload17he39af5f1355d7e83E, symObjAddr: 0x6FD0, symBinAddr: 0x952BC, symSize: 0x14C }
  - { offset: 0x12BBAE, size: 0x8, addend: 0x0, symName: __ZN4pyo35panic14PanicException7new_err17h03b1ba74bd457c9dE, symObjAddr: 0x80D8, symBinAddr: 0x47560, symSize: 0x14 }
  - { offset: 0x12BBDA, size: 0x8, addend: 0x0, symName: __ZN4pyo35panic14PanicException7new_err17he090b17810386bb7E, symObjAddr: 0x80EC, symBinAddr: 0x47574, symSize: 0x28 }
  - { offset: 0x12BC05, size: 0x8, addend: 0x0, symName: __ZN4pyo35panic14PanicException15type_object_raw17ha80024dba2972391E, symObjAddr: 0x81A8, symBinAddr: 0x4759C, symSize: 0x2C }
  - { offset: 0x12BCB1, size: 0x8, addend: 0x0, symName: __ZN11parking_lot4once4Once15call_once_force17h97124e3ce219d733E, symObjAddr: 0x0, symBinAddr: 0x4766C, symSize: 0xD4 }
  - { offset: 0x12BCED, size: 0x8, addend: 0x0, symName: '__ZN11parking_lot4once4Once15call_once_force28_$u7b$$u7b$closure$u7d$$u7d$17h50d9294333e85d12E', symObjAddr: 0x1A8, symBinAddr: 0x47814, symSize: 0x3C }
  - { offset: 0x12BD2E, size: 0x8, addend: 0x0, symName: '__ZN11parking_lot4once4Once15call_once_force28_$u7b$$u7b$closure$u7d$$u7d$17h98d8b635b2a04df9E', symObjAddr: 0x1E4, symBinAddr: 0x47850, symSize: 0x3C }
  - { offset: 0x12BDF3, size: 0x8, addend: 0x0, symName: '__ZN78_$LT$parking_lot..raw_mutex..RawMutex$u20$as$u20$lock_api..mutex..RawMutex$GT$4lock17hb2df9f8c4db0668dE', symObjAddr: 0x10E4, symBinAddr: 0x48474, symSize: 0x8C }
  - { offset: 0x12BE1B, size: 0x8, addend: 0x0, symName: '__ZN78_$LT$parking_lot..raw_mutex..RawMutex$u20$as$u20$lock_api..mutex..RawMutex$GT$6unlock17hb92f7378d6cc3fceE', symObjAddr: 0x1170, symBinAddr: 0x48500, symSize: 0x80 }
  - { offset: 0x12D87B, size: 0x8, addend: 0x0, symName: __ZN4core4sync6atomic23atomic_compare_exchange17h7a6aaaf51406ea63E, symObjAddr: 0x448, symBinAddr: 0x47A84, symSize: 0x4E8 }
  - { offset: 0x12DA8B, size: 0x8, addend: 0x0, symName: '__ZN4core3str6traits108_$LT$impl$u20$core..slice..index..SliceIndex$LT$str$GT$$u20$for$u20$core..ops..range..Range$LT$usize$GT$$GT$13get_unchecked18precondition_check17h6e30d5c333e11a10E', symObjAddr: 0x36C, symBinAddr: 0x479A8, symSize: 0x60 }
  - { offset: 0x12DAD6, size: 0x8, addend: 0x0, symName: '__ZN4core3str6traits54_$LT$impl$u20$core..cmp..PartialEq$u20$for$u20$str$GT$2eq17h636eb13dc9f5d42fE', symObjAddr: 0x3CC, symBinAddr: 0x47A08, symSize: 0x64 }
  - { offset: 0x12DBC0, size: 0x8, addend: 0x0, symName: __ZN4core3str8converts19from_utf8_unchecked17h7e5311eaee3012bdE, symObjAddr: 0x430, symBinAddr: 0x47A6C, symSize: 0x18 }
  - { offset: 0x12E871, size: 0x8, addend: 0x0, symName: __ZN4pyo38instance12PyNativeType18unchecked_downcast17hd4b040cc79499c8dE, symObjAddr: 0x3210, symBinAddr: 0x49248, symSize: 0x24 }
  - { offset: 0x12EAC2, size: 0x8, addend: 0x0, symName: __ZN4pyo35types4list6PyList6append5inner17h9de7f1ad47b2266cE, symObjAddr: 0x52E8, symBinAddr: 0x49314, symSize: 0xBC }
  - { offset: 0x12EB4B, size: 0x8, addend: 0x0, symName: '__ZN69_$LT$pyo3..types..list..PyList$u20$as$u20$core..ops..deref..Deref$GT$5deref17hfffdcc41c33baa3bE', symObjAddr: 0x91FC, symBinAddr: 0x493D0, symSize: 0x14 }
  - { offset: 0x12EB7D, size: 0x8, addend: 0x0, symName: '__ZN74_$LT$pyo3..types..list..PyList$u20$as$u20$pyo3..conversion..ToPyObject$GT$9to_object17h3118ee2368145c06E', symObjAddr: 0x95AC, symBinAddr: 0x493E4, symSize: 0x2C }
  - { offset: 0x12EBC7, size: 0x8, addend: 0x0, symName: '__ZN75_$LT$pyo3..types..list..PyList$u20$as$u20$pyo3..type_object..PyTypeInfo$GT$10is_type_of17h79f47660d9fa3043E', symObjAddr: 0x95D8, symBinAddr: 0x49410, symSize: 0x30 }
  - { offset: 0x12EE9A, size: 0x8, addend: 0x0, symName: '__ZN71_$LT$pyo3..impl_..panic..PanicTrap$u20$as$u20$core..ops..drop..Drop$GT$4drop17hcb2095b516437b1bE', symObjAddr: 0x2588, symBinAddr: 0x48874, symSize: 0x20 }
  - { offset: 0x12EEC7, size: 0x8, addend: 0x0, symName: '__ZN71_$LT$pyo3..impl_..panic..PanicTrap$u20$as$u20$core..ops..drop..Drop$GT$4drop18panic_cold_display17h0c24786373de92d0E', symObjAddr: 0x5FFC, symBinAddr: 0x95420, symSize: 0x18 }
  - { offset: 0x12EF00, size: 0x8, addend: 0x0, symName: __ZN4pyo35impl_10trampoline10trampoline17h2335dfef242c9c1eE, symObjAddr: 0x25A8, symBinAddr: 0x48894, symSize: 0x164 }
  - { offset: 0x12EFA3, size: 0x8, addend: 0x0, symName: __ZN4pyo35impl_10trampoline10trampoline17h482896e6f10d0b79E, symObjAddr: 0x270C, symBinAddr: 0x489F8, symSize: 0x168 }
  - { offset: 0x12F045, size: 0x8, addend: 0x0, symName: __ZN4pyo35impl_10trampoline10trampoline17h65191325ae850ac1E, symObjAddr: 0x2874, symBinAddr: 0x48B60, symSize: 0x14C }
  - { offset: 0x12F0E6, size: 0x8, addend: 0x0, symName: __ZN4pyo35impl_10trampoline10trampoline17hd772a31db922f18cE, symObjAddr: 0x29C0, symBinAddr: 0x48CAC, symSize: 0x168 }
  - { offset: 0x12F188, size: 0x8, addend: 0x0, symName: __ZN4pyo35impl_10trampoline10trampoline17hee79a73cdfec38b2E, symObjAddr: 0x2B28, symBinAddr: 0x48E14, symSize: 0x164 }
  - { offset: 0x12F230, size: 0x8, addend: 0x0, symName: '__ZN4pyo35impl_10trampoline10trampoline28_$u7b$$u7b$closure$u7d$$u7d$17h15947c71c58a26abE', symObjAddr: 0x2C8C, symBinAddr: 0x48F78, symSize: 0x1C }
  - { offset: 0x12F27C, size: 0x8, addend: 0x0, symName: '__ZN4pyo35impl_10trampoline10trampoline28_$u7b$$u7b$closure$u7d$$u7d$17h6f8fb657c658eaebE', symObjAddr: 0x2CA8, symBinAddr: 0x48F94, symSize: 0x34 }
  - { offset: 0x12F2CA, size: 0x8, addend: 0x0, symName: '__ZN4pyo35impl_10trampoline10trampoline28_$u7b$$u7b$closure$u7d$$u7d$17hb89a5773cc674490E', symObjAddr: 0x2CDC, symBinAddr: 0x48FC8, symSize: 0x2C }
  - { offset: 0x12F317, size: 0x8, addend: 0x0, symName: '__ZN4pyo35impl_10trampoline10trampoline28_$u7b$$u7b$closure$u7d$$u7d$17hd74cdc09c6368094E', symObjAddr: 0x2D08, symBinAddr: 0x48FF4, symSize: 0x2C }
  - { offset: 0x12F364, size: 0x8, addend: 0x0, symName: '__ZN4pyo35impl_10trampoline10trampoline28_$u7b$$u7b$closure$u7d$$u7d$17he16937e8da831deeE', symObjAddr: 0x2D34, symBinAddr: 0x49020, symSize: 0x34 }
  - { offset: 0x12F3B3, size: 0x8, addend: 0x0, symName: __ZN4pyo35impl_10trampoline33panic_result_into_callback_output17h84684b5a700a3bbfE, symObjAddr: 0x2D68, symBinAddr: 0x49054, symSize: 0xF8 }
  - { offset: 0x12F475, size: 0x8, addend: 0x0, symName: __ZN4pyo35impl_10trampoline33panic_result_into_callback_output17hc41105902ec33353E, symObjAddr: 0x2E60, symBinAddr: 0x4914C, symSize: 0xFC }
  - { offset: 0x12F542, size: 0x8, addend: 0x0, symName: '__ZN54_$LT$$RF$T$u20$as$u20$pyo3..conversion..ToPyObject$GT$9to_object17h8f7c742e239536b4E', symObjAddr: 0x13F0, symBinAddr: 0x4867C, symSize: 0x28 }
  - { offset: 0x12F595, size: 0x8, addend: 0x0, symName: '__ZN49_$LT$T$u20$as$u20$pyo3..conversion..PyTryFrom$GT$8try_from17hb3684c0703a9445fE', symObjAddr: 0x199C, symBinAddr: 0x486A4, symSize: 0x98 }
  - { offset: 0x12F5F3, size: 0x8, addend: 0x0, symName: '__ZN49_$LT$T$u20$as$u20$pyo3..conversion..PyTryFrom$GT$18try_from_unchecked17ha225bca562e516b8E', symObjAddr: 0x1CB4, symBinAddr: 0x4873C, symSize: 0x30 }
  - { offset: 0x12F639, size: 0x8, addend: 0x0, symName: __ZN4pyo310conversion13FromPyPointer23from_owned_ptr_or_panic17h0cc50ebf4bc1ef45E, symObjAddr: 0x1DA4, symBinAddr: 0x4876C, symSize: 0x34 }
  - { offset: 0x12F68A, size: 0x8, addend: 0x0, symName: __ZN4pyo310conversion13FromPyPointer14from_owned_ptr17h01e9c6b6fd82af8aE, symObjAddr: 0x1E74, symBinAddr: 0x487A0, symSize: 0x24 }
  - { offset: 0x12F6E1, size: 0x8, addend: 0x0, symName: '__ZN53_$LT$T$u20$as$u20$pyo3..conversion..FromPyPointer$GT$21from_owned_ptr_or_opt17h2be272673ec6b619E', symObjAddr: 0x2130, symBinAddr: 0x487C4, symSize: 0x70 }
  - { offset: 0x130391, size: 0x8, addend: 0x0, symName: __ZN11parking_lot4once4Once15call_once_force17h97124e3ce219d733E, symObjAddr: 0x0, symBinAddr: 0x4766C, symSize: 0xD4 }
  - { offset: 0x1303E6, size: 0x8, addend: 0x0, symName: __ZN11parking_lot4once4Once15call_once_force17hfd031957b4d6489aE, symObjAddr: 0xD4, symBinAddr: 0x47740, symSize: 0xD4 }
  - { offset: 0x130489, size: 0x8, addend: 0x0, symName: __ZN4core3ffi5c_str4CStr29from_bytes_with_nul_unchecked17hab40e46a63f56353E, symObjAddr: 0x250, symBinAddr: 0x4788C, symSize: 0x18 }
  - { offset: 0x1304AC, size: 0x8, addend: 0x0, symName: __ZN4core3ffi5c_str4CStr6as_ptr17h389a3736a8879b31E, symObjAddr: 0x268, symBinAddr: 0x478A4, symSize: 0x24 }
  - { offset: 0x1304FA, size: 0x8, addend: 0x0, symName: __ZN4core3ffi5c_str4CStr8from_ptr17h42cd6651540e226aE, symObjAddr: 0x28C, symBinAddr: 0x478C8, symSize: 0x74 }
  - { offset: 0x130619, size: 0x8, addend: 0x0, symName: __ZN4core3ffi5c_str4CStr8to_bytes17haf43c5f905daf124E, symObjAddr: 0x300, symBinAddr: 0x4793C, symSize: 0x6C }
  - { offset: 0x130824, size: 0x8, addend: 0x0, symName: __ZN4core4sync6atomic8AtomicU816compare_exchange17h7424b3489ddebfe8E, symObjAddr: 0x930, symBinAddr: 0x47F6C, symSize: 0x40 }
  - { offset: 0x130883, size: 0x8, addend: 0x0, symName: __ZN4core4sync6atomic8AtomicU821compare_exchange_weak17hfdee476e0bfbd62dE, symObjAddr: 0x970, symBinAddr: 0x47FAC, symSize: 0x40 }
  - { offset: 0x1308E2, size: 0x8, addend: 0x0, symName: __ZN4core4sync6atomic8AtomicU84load17ha6c5d047846ac77fE, symObjAddr: 0x9B0, symBinAddr: 0x47FEC, symSize: 0x30 }
  - { offset: 0x130928, size: 0x8, addend: 0x0, symName: __ZN4core4sync6atomic9AtomicI6416compare_exchange17hf37eac993cd6e7fbE, symObjAddr: 0x9E0, symBinAddr: 0x4801C, symSize: 0x3C }
  - { offset: 0x130A34, size: 0x8, addend: 0x0, symName: '__ZN5alloc5boxed16Box$LT$T$C$A$GT$8into_raw17h1ed21405bc77d0a9E', symObjAddr: 0xA34, symBinAddr: 0x48058, symSize: 0x4C }
  - { offset: 0x130B38, size: 0x8, addend: 0x0, symName: '__ZN5alloc5boxed16Box$LT$T$C$A$GT$8into_raw17h6612e057b7de80f0E', symObjAddr: 0xA80, symBinAddr: 0x480A4, symSize: 0x3C }
  - { offset: 0x130C3C, size: 0x8, addend: 0x0, symName: '__ZN5alloc5boxed16Box$LT$T$C$A$GT$8into_raw17ha9c4147525012b7dE', symObjAddr: 0xABC, symBinAddr: 0x480E0, symSize: 0x4C }
  - { offset: 0x130D40, size: 0x8, addend: 0x0, symName: '__ZN5alloc5boxed16Box$LT$T$C$A$GT$8into_raw17hc52bfdb6cce5b3f1E', symObjAddr: 0xB08, symBinAddr: 0x4812C, symSize: 0x4C }
  - { offset: 0x130DEE, size: 0x8, addend: 0x0, symName: '__ZN72_$LT$alloc..boxed..Box$LT$T$C$A$GT$$u20$as$u20$core..ops..drop..Drop$GT$4drop17h64ae66c7371b9688E', symObjAddr: 0xC10, symBinAddr: 0x48178, symSize: 0xC4 }
  - { offset: 0x130F6C, size: 0x8, addend: 0x0, symName: '__ZN72_$LT$alloc..boxed..Box$LT$T$C$A$GT$$u20$as$u20$core..ops..drop..Drop$GT$4drop17h8e92e483d79580c6E', symObjAddr: 0xCD4, symBinAddr: 0x4823C, symSize: 0xC4 }
  - { offset: 0x1310EA, size: 0x8, addend: 0x0, symName: '__ZN72_$LT$alloc..boxed..Box$LT$T$C$A$GT$$u20$as$u20$core..ops..drop..Drop$GT$4drop17he9736a14739e3d8dE', symObjAddr: 0xF0C, symBinAddr: 0x48300, symSize: 0xB0 }
  - { offset: 0x131268, size: 0x8, addend: 0x0, symName: '__ZN72_$LT$alloc..boxed..Box$LT$T$C$A$GT$$u20$as$u20$core..ops..drop..Drop$GT$4drop17hfa8f5eae77520e5eE', symObjAddr: 0xFBC, symBinAddr: 0x483B0, symSize: 0xC4 }
  - { offset: 0x1313EC, size: 0x8, addend: 0x0, symName: '__ZN80_$LT$alloc..boxed..Box$LT$T$C$A$GT$$u20$as$u20$core..convert..AsRef$LT$T$GT$$GT$6as_ref17h948d16f281eb8cc1E', symObjAddr: 0x11F0, symBinAddr: 0x48580, symSize: 0x18 }
  - { offset: 0x131432, size: 0x8, addend: 0x0, symName: '__ZN86_$LT$alloc..boxed..Box$LT$F$C$A$GT$$u20$as$u20$core..ops..function..Fn$LT$Args$GT$$GT$4call17h3ec283d034dd5eb0E', symObjAddr: 0x12A0, symBinAddr: 0x48598, symSize: 0x44 }
  - { offset: 0x13148C, size: 0x8, addend: 0x0, symName: '__ZN90_$LT$alloc..boxed..Box$LT$F$C$A$GT$$u20$as$u20$core..ops..function..FnOnce$LT$Args$GT$$GT$9call_once17h745b42b259a6d90dE', symObjAddr: 0x1350, symBinAddr: 0x485DC, symSize: 0xA0 }
  - { offset: 0x131E01, size: 0x8, addend: 0x0, symName: __ZN4pyo35impl_5panic9PanicTrap3new17hc25096cd9a10962fE, symObjAddr: 0x2548, symBinAddr: 0x48834, symSize: 0x18 }
  - { offset: 0x131E23, size: 0x8, addend: 0x0, symName: __ZN4pyo35impl_5panic9PanicTrap6disarm17hcd5c85f61e941622E, symObjAddr: 0x2560, symBinAddr: 0x4884C, symSize: 0x28 }
  - { offset: 0x131E66, size: 0x8, addend: 0x0, symName: __ZN4pyo35types4list6PyList5empty17hb9c74bee78412f53E, symObjAddr: 0x4F8C, symBinAddr: 0x4926C, symSize: 0x24 }
  - { offset: 0x131E9F, size: 0x8, addend: 0x0, symName: __ZN4pyo35types4list6PyList6append17h3093b6bd5b254830E, symObjAddr: 0x5264, symBinAddr: 0x49290, symSize: 0x84 }
  - { offset: 0x132311, size: 0x8, addend: 0x0, symName: '__ZN58_$LT$$u5b$T$u3b$$u20$8$u5d$$u20$as$u20$smallvec..Array$GT$4size17h289a3b5f8d6455baE', symObjAddr: 0x4078, symBinAddr: 0x4C2F4, symSize: 0xC }
  - { offset: 0x13233F, size: 0x8, addend: 0x0, symName: '__ZN65_$LT$smallvec..CollectionAllocErr$u20$as$u20$core..fmt..Debug$GT$3fmt17hdbde91fe3bdcdfecE', symObjAddr: 0x42A8, symBinAddr: 0x4C428, symSize: 0xAC }
  - { offset: 0x1323A0, size: 0x8, addend: 0x0, symName: '__ZN69_$LT$smallvec..IntoIter$LT$A$GT$$u20$as$u20$core..ops..drop..Drop$GT$4drop17h36392704a89c55d2E', symObjAddr: 0x4354, symBinAddr: 0x4C4D4, symSize: 0x4C }
  - { offset: 0x1323EF, size: 0x8, addend: 0x0, symName: '__ZN69_$LT$smallvec..SmallVec$LT$A$GT$$u20$as$u20$core..ops..drop..Drop$GT$4drop17hea9e656fc9cc9e18E', symObjAddr: 0x447C, symBinAddr: 0x4C520, symSize: 0x8C }
  - { offset: 0x132456, size: 0x8, addend: 0x0, symName: '__ZN74_$LT$smallvec..SmallVec$LT$A$GT$$u20$as$u20$core..ops..deref..DerefMut$GT$9deref_mut17hcde568e6566c61f7E', symObjAddr: 0x45D0, symBinAddr: 0x4C610, symSize: 0x44 }
  - { offset: 0x1324C1, size: 0x8, addend: 0x0, symName: '__ZN83_$LT$smallvec..SmallVec$LT$A$GT$$u20$as$u20$core..ops..index..IndexMut$LT$I$GT$$GT$9index_mut17h3d15c3a75087f341E', symObjAddr: 0x4790, symBinAddr: 0x4C748, symSize: 0xA0 }
  - { offset: 0x132534, size: 0x8, addend: 0x0, symName: '__ZN86_$LT$smallvec..IntoIter$LT$A$GT$$u20$as$u20$core..iter..traits..iterator..Iterator$GT$4next17hdc05210a9708c5efE', symObjAddr: 0x4998, symBinAddr: 0x4C7E8, symSize: 0xB0 }
  - { offset: 0x1325AD, size: 0x8, addend: 0x0, symName: '__ZN89_$LT$smallvec..SmallVec$LT$A$GT$$u20$as$u20$core..iter..traits..collect..IntoIterator$GT$9into_iter17hc46438bd007bb6cdE', symObjAddr: 0x4AF8, symBinAddr: 0x4C898, symSize: 0xA8 }
  - { offset: 0x132604, size: 0x8, addend: 0x0, symName: __ZN8smallvec10deallocate17h9a7c7e5657711e01E, symObjAddr: 0x4C5C, symBinAddr: 0x4C940, symSize: 0xBC }
  - { offset: 0x132698, size: 0x8, addend: 0x0, symName: __ZN8smallvec10infallible17hd9bf9bdaf91acff5E, symObjAddr: 0x4D18, symBinAddr: 0x4C9FC, symSize: 0x7C }
  - { offset: 0x1326EE, size: 0x8, addend: 0x0, symName: __ZN8smallvec12ConstNonNull17h898c077dcdf1c405E, symObjAddr: 0x4DA8, symBinAddr: 0x4CA78, symSize: 0x14 }
  - { offset: 0x132722, size: 0x8, addend: 0x0, symName: __ZN8smallvec12layout_array17h2750a02a495f1126E, symObjAddr: 0x4DBC, symBinAddr: 0x4CA8C, symSize: 0xB4 }
  - { offset: 0x1327B8, size: 0x8, addend: 0x0, symName: '__ZN8smallvec12layout_array28_$u7b$$u7b$closure$u7d$$u7d$17hdc5fc42b312d69d8E', symObjAddr: 0x4F3C, symBinAddr: 0x4CB40, symSize: 0x18 }
  - { offset: 0x1332F5, size: 0x8, addend: 0x0, symName: '__ZN4core3ptr8non_null16NonNull$LT$T$GT$13new_unchecked18precondition_check17h66e5ee438df88acaE', symObjAddr: 0x1C08, symBinAddr: 0x4A728, symSize: 0x40 }
  - { offset: 0x1336D3, size: 0x8, addend: 0x0, symName: __ZN4core9panicking13assert_failed17h95edfde95bb53a37E, symObjAddr: 0x3F60, symBinAddr: 0x95438, symSize: 0x3C }
  - { offset: 0x1338BC, size: 0x8, addend: 0x0, symName: '__ZN42_$LT$$RF$T$u20$as$u20$core..fmt..Debug$GT$3fmt17hce1b3bec51c0f1f5E', symObjAddr: 0x15AC, symBinAddr: 0x4A0F4, symSize: 0x30 }
  - { offset: 0x1339D5, size: 0x8, addend: 0x0, symName: '__ZN4core3fmt3num52_$LT$impl$u20$core..fmt..Debug$u20$for$u20$usize$GT$3fmt17h7969b68332e7b39aE', symObjAddr: 0x18D8, symBinAddr: 0x4A41C, symSize: 0x90 }
  - { offset: 0x133BB3, size: 0x8, addend: 0x0, symName: __ZN4core4sync6atomic11atomic_load17h93ec73bc1b4cb628E, symObjAddr: 0x2348, symBinAddr: 0x4AA60, symSize: 0x14C }
  - { offset: 0x133C25, size: 0x8, addend: 0x0, symName: __ZN4core4sync6atomic12atomic_store17h3ba775eea03aa232E, symObjAddr: 0x2494, symBinAddr: 0x4ABAC, symSize: 0x150 }
  - { offset: 0x133CA2, size: 0x8, addend: 0x0, symName: __ZN4core4sync6atomic12atomic_store17he05eb721f0ba1d90E, symObjAddr: 0x25E4, symBinAddr: 0x4ACFC, symSize: 0x150 }
  - { offset: 0x133E1F, size: 0x8, addend: 0x0, symName: __ZN4core4sync6atomic23atomic_compare_exchange17h87772d5ba5fbd8f2E, symObjAddr: 0x28EC, symBinAddr: 0x4AE4C, symSize: 0x514 }
  - { offset: 0x133EE4, size: 0x8, addend: 0x0, symName: __ZN4core4sync6atomic28atomic_compare_exchange_weak17h10378eac3b501276E, symObjAddr: 0x2E00, symBinAddr: 0x4B360, symSize: 0x514 }
  - { offset: 0x133FA9, size: 0x8, addend: 0x0, symName: __ZN4core4sync6atomic5fence17hb0710b612999f25eE, symObjAddr: 0x3314, symBinAddr: 0x4B874, symSize: 0xD8 }
  - { offset: 0x1344B8, size: 0x8, addend: 0x0, symName: __ZN4core3mem4drop17h792b152f20ad407aE, symObjAddr: 0x19C4, symBinAddr: 0x4A4F4, symSize: 0x14 }
  - { offset: 0x1344EC, size: 0x8, addend: 0x0, symName: __ZN4core3mem6forget17hf0c1de01475ec8abE, symObjAddr: 0x19D8, symBinAddr: 0x4A508, symSize: 0x10 }
  - { offset: 0x134F41, size: 0x8, addend: 0x0, symName: __ZN4core4hint21unreachable_unchecked18precondition_check17hbb37ac6286de9f4fE, symObjAddr: 0x1E84, symBinAddr: 0x4A8B4, symSize: 0x1C }
  - { offset: 0x134FAC, size: 0x8, addend: 0x0, symName: '__ZN4core3num23_$LT$impl$u20$usize$GT$11checked_add17h7277e22edf950bceE', symObjAddr: 0x1A54, symBinAddr: 0x4A584, symSize: 0x74 }
  - { offset: 0x13504C, size: 0x8, addend: 0x0, symName: '__ZN4core3num23_$LT$impl$u20$usize$GT$11checked_mul17h7bef6389299b0976E', symObjAddr: 0x1AC8, symBinAddr: 0x4A5F8, symSize: 0x78 }
  - { offset: 0x13517E, size: 0x8, addend: 0x0, symName: '__ZN4core3num23_$LT$impl$u20$usize$GT$25checked_next_power_of_two17h40fe7e95c07ed129E', symObjAddr: 0x1B40, symBinAddr: 0x4A670, symSize: 0xB8 }
  - { offset: 0x13536D, size: 0x8, addend: 0x0, symName: '__ZN4core3num21_$LT$impl$u20$i64$GT$11checked_add17h844adc3c2f4cc28fE', symObjAddr: 0x19E8, symBinAddr: 0x4A518, symSize: 0x6C }
  - { offset: 0x135DC3, size: 0x8, addend: 0x0, symName: __ZN4core9ub_checks23maybe_is_nonoverlapping7runtime17hfbf304daf451fd6dE, symObjAddr: 0x3F9C, symBinAddr: 0x4C218, symSize: 0xDC }
  - { offset: 0x135F96, size: 0x8, addend: 0x0, symName: __ZN4core10intrinsics19copy_nonoverlapping18precondition_check17hf2c161ec8e9304deE, symObjAddr: 0x15DC, symBinAddr: 0x4A124, symSize: 0x2F8 }
  - { offset: 0x136329, size: 0x8, addend: 0x0, symName: __ZN4core5slice3raw18from_raw_parts_mut17hddf9b83163f2cdc8E, symObjAddr: 0x3854, symBinAddr: 0x4BC44, symSize: 0x50 }
  - { offset: 0x136371, size: 0x8, addend: 0x0, symName: __ZN4core5slice3raw18from_raw_parts_mut18precondition_check17h7573095a9ff143ceE, symObjAddr: 0x38A4, symBinAddr: 0x4BC94, symSize: 0x16C }
  - { offset: 0x13651A, size: 0x8, addend: 0x0, symName: '__ZN97_$LT$core..ops..range..RangeFull$u20$as$u20$core..slice..index..SliceIndex$LT$$u5b$T$u5d$$GT$$GT$9index_mut17haf7d0ccbb87689a9E', symObjAddr: 0x68F0, symBinAddr: 0x4D728, symSize: 0x18 }
  - { offset: 0x136582, size: 0x8, addend: 0x0, symName: '__ZN63_$LT$I$u20$as$u20$core..iter..traits..collect..IntoIterator$GT$9into_iter17h042a5ee81c0dc1d0E', symObjAddr: 0x41F4, symBinAddr: 0x4C3B8, symSize: 0x30 }
  - { offset: 0x1365BA, size: 0x8, addend: 0x0, symName: '__ZN63_$LT$I$u20$as$u20$core..iter..traits..collect..IntoIterator$GT$9into_iter17h4b60ecafabf74c53E', symObjAddr: 0x4224, symBinAddr: 0x4C3E8, symSize: 0x14 }
  - { offset: 0x1365FD, size: 0x8, addend: 0x0, symName: '__ZN72_$LT$$RF$mut$u20$I$u20$as$u20$core..iter..traits..iterator..Iterator$GT$4next17h59353ca228064b42E', symObjAddr: 0x4580, symBinAddr: 0x4C5E8, symSize: 0x28 }
  - { offset: 0x13670C, size: 0x8, addend: 0x0, symName: '__ZN11parking_lot4once4Once14call_once_slow28_$u7b$$u7b$closure$u7d$$u7d$17h1e8ec97516eb98fdE', symObjAddr: 0x72D4, symBinAddr: 0x4D740, symSize: 0x3C }
  - { offset: 0x13673B, size: 0x8, addend: 0x0, symName: '__ZN11parking_lot4once4Once14call_once_slow28_$u7b$$u7b$closure$u7d$$u7d$17hfd1a79ec5f605426E', symObjAddr: 0x7310, symBinAddr: 0x4D77C, symSize: 0x10 }
  - { offset: 0x136761, size: 0x8, addend: 0x0, symName: '__ZN11parking_lot4once4Once14call_once_slow28_$u7b$$u7b$closure$u7d$$u7d$17h4d7ae29021068e01E', symObjAddr: 0x7320, symBinAddr: 0x4D78C, symSize: 0x34 }
  - { offset: 0x1367A2, size: 0x8, addend: 0x0, symName: '__ZN93_$LT$parking_lot..once..Once..call_once_slow..PanicGuard$u20$as$u20$core..ops..drop..Drop$GT$4drop17h291902c3e1773ee8E', symObjAddr: 0x7354, symBinAddr: 0x4D7C0, symSize: 0x60 }
  - { offset: 0x13692A, size: 0x8, addend: 0x0, symName: '__ZN117_$LT$parking_lot_core..thread_parker..imp..ThreadParker$u20$as$u20$parking_lot_core..thread_parker..ThreadParkerT$GT$10park_until17h2e66545be79d9ef7E', symObjAddr: 0x38, symBinAddr: 0x49440, symSize: 0x318 }
  - { offset: 0x136B04, size: 0x8, addend: 0x0, symName: '__ZN117_$LT$parking_lot_core..thread_parker..imp..ThreadParker$u20$as$u20$parking_lot_core..thread_parker..ThreadParkerT$GT$11unpark_lock17h77486fabfd9a0286E', symObjAddr: 0x350, symBinAddr: 0x49758, symSize: 0x8C }
  - { offset: 0x136B94, size: 0x8, addend: 0x0, symName: '__ZN117_$LT$parking_lot_core..thread_parker..imp..ThreadParker$u20$as$u20$parking_lot_core..thread_parker..ThreadParkerT$GT$12prepare_park17h819d1e2cc6a16890E', symObjAddr: 0x3DC, symBinAddr: 0x497E4, symSize: 0x64 }
  - { offset: 0x136BBC, size: 0x8, addend: 0x0, symName: '__ZN117_$LT$parking_lot_core..thread_parker..imp..ThreadParker$u20$as$u20$parking_lot_core..thread_parker..ThreadParkerT$GT$4park17h044fd8966f15a674E', symObjAddr: 0x440, symBinAddr: 0x49848, symSize: 0x178 }
  - { offset: 0x136CE9, size: 0x8, addend: 0x0, symName: '__ZN117_$LT$parking_lot_core..thread_parker..imp..ThreadParker$u20$as$u20$parking_lot_core..thread_parker..ThreadParkerT$GT$9timed_out17h224b2214abea1ba3E', symObjAddr: 0x5B8, symBinAddr: 0x499C0, symSize: 0x100 }
  - { offset: 0x136E01, size: 0x8, addend: 0x0, symName: '__ZN117_$LT$parking_lot_core..thread_parker..imp..UnparkHandle$u20$as$u20$parking_lot_core..thread_parker..UnparkHandleT$GT$6unpark17h33ae6eb519140f7aE', symObjAddr: 0x6B8, symBinAddr: 0x49AC0, symSize: 0x100 }
  - { offset: 0x136F3E, size: 0x8, addend: 0x0, symName: __ZN16parking_lot_core13thread_parker3imp12thread_yield17h21bb2a110b6e628dE, symObjAddr: 0x7C8, symBinAddr: 0x49BD0, symSize: 0x14 }
  - { offset: 0x136F57, size: 0x8, addend: 0x0, symName: __ZN16parking_lot_core13thread_parker3imp12timespec_now17h965fb26e52887a66E, symObjAddr: 0x7DC, symBinAddr: 0x49BE4, symSize: 0x100 }
  - { offset: 0x137080, size: 0x8, addend: 0x0, symName: __ZN16parking_lot_core13thread_parker3imp19timeout_to_timespec17ha9ad94bfff444d35E, symObjAddr: 0x8DC, symBinAddr: 0x49CE4, symSize: 0x12C }
  - { offset: 0x1370F0, size: 0x8, addend: 0x0, symName: '__ZN16parking_lot_core13thread_parker3imp19timeout_to_timespec28_$u7b$$u7b$closure$u7d$$u7d$17h8809aeb8b72986eaE', symObjAddr: 0xA08, symBinAddr: 0x49E10, symSize: 0x24 }
  - { offset: 0x13712C, size: 0x8, addend: 0x0, symName: '__ZN16parking_lot_core13thread_parker3imp19timeout_to_timespec28_$u7b$$u7b$closure$u7d$$u7d$17h9605335bb530a528E', symObjAddr: 0xA2C, symBinAddr: 0x49E34, symSize: 0x28 }
  - { offset: 0x1371D5, size: 0x8, addend: 0x0, symName: '__ZN64_$LT$usize$u20$as$u20$parking_lot_core..word_lock..LockState$GT$10queue_head17hb476586c9bdb3775E', symObjAddr: 0x427C, symBinAddr: 0x4C3FC, symSize: 0x14 }
  - { offset: 0x137203, size: 0x8, addend: 0x0, symName: '__ZN64_$LT$usize$u20$as$u20$parking_lot_core..word_lock..LockState$GT$15is_queue_locked17h95b20a2305229d0bE', symObjAddr: 0x4290, symBinAddr: 0x4C410, symSize: 0x18 }
  - { offset: 0x137378, size: 0x8, addend: 0x0, symName: __ZN16parking_lot_core13thread_parker3imp12ThreadParker4init17h2505f5365e7d275aE, symObjAddr: 0x7B8, symBinAddr: 0x49BC0, symSize: 0x10 }
  - { offset: 0x13742F, size: 0x8, addend: 0x0, symName: __ZN16parking_lot_core9word_lock8WordLock4lock17hc302ac85e975e1fdE, symObjAddr: 0xA78, symBinAddr: 0x49E5C, symSize: 0x70 }
  - { offset: 0x137451, size: 0x8, addend: 0x0, symName: __ZN16parking_lot_core9word_lock8WordLock6unlock17h712a4ae3f9be4023E, symObjAddr: 0xAE8, symBinAddr: 0x49ECC, symSize: 0x70 }
  - { offset: 0x13751E, size: 0x8, addend: 0x0, symName: '__ZN77_$LT$std..sys..pal..unix..time..Timespec$u20$as$u20$core..cmp..PartialOrd$GT$11partial_cmp17h96dfae13bafa33f7E', symObjAddr: 0x46BC, symBinAddr: 0x4C684, symSize: 0xC4 }
  - { offset: 0x137854, size: 0x8, addend: 0x0, symName: '__ZN3std6thread5local17LocalKey$LT$T$GT$8try_with17h85ea24e9fd9c9776E', symObjAddr: 0x1160, symBinAddr: 0x49F3C, symSize: 0xDC }
  - { offset: 0x1379E6, size: 0x8, addend: 0x0, symName: '__ZN3std6thread5local17LocalKey$LT$T$GT$8try_with17h8c275ac89b9ab10cE', symObjAddr: 0x123C, symBinAddr: 0x4A018, symSize: 0xDC }
  - { offset: 0x137C94, size: 0x8, addend: 0x0, symName: __ZN4core3fmt9Arguments9new_const17h484ae53d569d6e5eE, symObjAddr: 0x1968, symBinAddr: 0x4A4AC, symSize: 0x48 }
  - { offset: 0x137D35, size: 0x8, addend: 0x0, symName: '__ZN4core3ptr8non_null16NonNull$LT$T$GT$3new17h1a5cb6498953324fE', symObjAddr: 0x1C48, symBinAddr: 0x4A768, symSize: 0x58 }
  - { offset: 0x137DF4, size: 0x8, addend: 0x0, symName: '__ZN4core3ptr8non_null16NonNull$LT$T$GT$3new17hc17f2089fcd8624aE', symObjAddr: 0x1CA0, symBinAddr: 0x4A7C0, symSize: 0x58 }
  - { offset: 0x137EC3, size: 0x8, addend: 0x0, symName: '__ZN4core3ptr8non_null16NonNull$LT$T$GT$4cast17h68fd2cd275ce7c9dE', symObjAddr: 0x1D50, symBinAddr: 0x4A818, symSize: 0x14 }
  - { offset: 0x137F05, size: 0x8, addend: 0x0, symName: '__ZN4core4cell13Cell$LT$T$GT$3get17h0b2cd5471d455aeaE', symObjAddr: 0x1D78, symBinAddr: 0x4A82C, symSize: 0x20 }
  - { offset: 0x137F9C, size: 0x8, addend: 0x0, symName: '__ZN4core4cell13Cell$LT$T$GT$3set17h736fd2efc56bfa25E', symObjAddr: 0x1DE8, symBinAddr: 0x4A84C, symSize: 0x34 }
  - { offset: 0x1380F9, size: 0x8, addend: 0x0, symName: '__ZN4core4cell13Cell$LT$T$GT$3set17ha40be78a7edde4b5E', symObjAddr: 0x1E1C, symBinAddr: 0x4A880, symSize: 0x34 }
  - { offset: 0x13821F, size: 0x8, addend: 0x0, symName: __ZN4core4sync6atomic11AtomicUsize21compare_exchange_weak17hc9b6c43e916bb8f9E, symObjAddr: 0x1EA0, symBinAddr: 0x4A8D0, symSize: 0x3C }
  - { offset: 0x13827E, size: 0x8, addend: 0x0, symName: __ZN4core4sync6atomic11AtomicUsize4load17h288c6686136166a0E, symObjAddr: 0x1EDC, symBinAddr: 0x4A90C, symSize: 0x30 }
  - { offset: 0x1382B0, size: 0x8, addend: 0x0, symName: __ZN4core4sync6atomic11AtomicUsize5store17hdaf2c7c71d814fb5E, symObjAddr: 0x1F0C, symBinAddr: 0x4A93C, symSize: 0x34 }
  - { offset: 0x13830D, size: 0x8, addend: 0x0, symName: __ZN4core4sync6atomic11AtomicUsize9fetch_sub17he02644d939bdf0a1E, symObjAddr: 0x210C, symBinAddr: 0x4A970, symSize: 0xF0 }
  - { offset: 0x138421, size: 0x8, addend: 0x0, symName: __ZN4core4sync6atomic8AtomicU821compare_exchange_weak17hc3c3a418318ee410E, symObjAddr: 0x342C, symBinAddr: 0x4B94C, symSize: 0x40 }
  - { offset: 0x138480, size: 0x8, addend: 0x0, symName: __ZN4core4sync6atomic8AtomicU84load17h20051dee929800d9E, symObjAddr: 0x346C, symBinAddr: 0x4B98C, symSize: 0x30 }
  - { offset: 0x1384DB, size: 0x8, addend: 0x0, symName: __ZN4core4sync6atomic8AtomicU84swap17h3f5dadabdd03321eE, symObjAddr: 0x349C, symBinAddr: 0x4B9BC, symSize: 0xDC }
  - { offset: 0x138568, size: 0x8, addend: 0x0, symName: __ZN4core4sync6atomic8AtomicU85store17ha6c15b9f74d19607E, symObjAddr: 0x3578, symBinAddr: 0x4BA98, symSize: 0x34 }
  - { offset: 0x1385C5, size: 0x8, addend: 0x0, symName: __ZN4core4sync6atomic8AtomicU89fetch_and17h1dfd0547a67e433aE, symObjAddr: 0x3688, symBinAddr: 0x4BACC, symSize: 0xF0 }
  - { offset: 0x138652, size: 0x8, addend: 0x0, symName: __ZN4core5alloc6layout6Layout15from_size_align17hfd85e4204bc41c2fE, symObjAddr: 0x3778, symBinAddr: 0x4BBBC, symSize: 0x70 }
  - { offset: 0x138682, size: 0x8, addend: 0x0, symName: __ZN4core5alloc6layout6Layout4size17hd0a567e9acb09e80E, symObjAddr: 0x37E8, symBinAddr: 0x4BC2C, symSize: 0x18 }
  - { offset: 0x13872D, size: 0x8, addend: 0x0, symName: '__ZN4core6option15Option$LT$T$GT$18get_or_insert_with17h5a669413694c6d35E', symObjAddr: 0x3A10, symBinAddr: 0x4BE00, symSize: 0x138 }
  - { offset: 0x1387EE, size: 0x8, addend: 0x0, symName: '__ZN4core6option15Option$LT$T$GT$3map17h5d7a8476b8970af7E', symObjAddr: 0x3B98, symBinAddr: 0x4BF38, symSize: 0x6C }
  - { offset: 0x138871, size: 0x8, addend: 0x0, symName: '__ZN4core6option15Option$LT$T$GT$3map17hf4b063e553f96e42E', symObjAddr: 0x3C04, symBinAddr: 0x4BFA4, symSize: 0x50 }
  - { offset: 0x1388DC, size: 0x8, addend: 0x0, symName: '__ZN4core6option15Option$LT$T$GT$5ok_or17h1cb5f8224ae17d15E', symObjAddr: 0x3C9C, symBinAddr: 0x4BFF4, symSize: 0x6C }
  - { offset: 0x13893E, size: 0x8, addend: 0x0, symName: '__ZN4core6option15Option$LT$T$GT$5ok_or17h563ba80e9f1e25afE', symObjAddr: 0x3D08, symBinAddr: 0x4C060, symSize: 0x68 }
  - { offset: 0x1389A0, size: 0x8, addend: 0x0, symName: '__ZN4core6option15Option$LT$T$GT$6expect17h457c51a3dba31ec4E', symObjAddr: 0x3DCC, symBinAddr: 0x4C0C8, symSize: 0x58 }
  - { offset: 0x1389E8, size: 0x8, addend: 0x0, symName: '__ZN4core6option15Option$LT$T$GT$7is_some17h840246eb8426d9cbE', symObjAddr: 0x3E68, symBinAddr: 0x4C120, symSize: 0x50 }
  - { offset: 0x138A2C, size: 0x8, addend: 0x0, symName: '__ZN4core6option15Option$LT$T$GT$8and_then17hafca10b64ade8ef2E', symObjAddr: 0x3EB8, symBinAddr: 0x4C170, symSize: 0x54 }
  - { offset: 0x138A97, size: 0x8, addend: 0x0, symName: '__ZN4core6option15Option$LT$T$GT$8and_then17hf08347ec2c35ae7aE', symObjAddr: 0x3F0C, symBinAddr: 0x4C1C4, symSize: 0x54 }
  - { offset: 0x138BCC, size: 0x8, addend: 0x0, symName: '__ZN70_$LT$alloc..vec..Vec$LT$T$C$A$GT$$u20$as$u20$core..ops..drop..Drop$GT$4drop17hfc6944977313239fE', symObjAddr: 0x4544, symBinAddr: 0x4C5AC, symSize: 0x3C }
  - { offset: 0x138ED0, size: 0x8, addend: 0x0, symName: '__ZN77_$LT$alloc..raw_vec..RawVec$LT$T$C$A$GT$$u20$as$u20$core..ops..drop..Drop$GT$4drop17h3f00c9e915ae1e77E', symObjAddr: 0x4658, symBinAddr: 0x4C654, symSize: 0x30 }
  - { offset: 0x138F58, size: 0x8, addend: 0x0, symName: '__ZN5alloc3vec12Vec$LT$T$GT$14from_raw_parts17hcb61cdb528ffea62E', symObjAddr: 0x40D8, symBinAddr: 0x4C300, symSize: 0x54 }
  - { offset: 0x13905D, size: 0x8, addend: 0x0, symName: '__ZN5alloc7raw_vec19RawVec$LT$T$C$A$GT$17from_raw_parts_in17hf385bdbbc1e2a62aE', symObjAddr: 0x4190, symBinAddr: 0x4C354, symSize: 0x64 }
  - { offset: 0x139386, size: 0x8, addend: 0x0, symName: '__ZN8smallvec17SmallVec$LT$A$GT$10triple_mut17h1cb329cdad4bff04E', symObjAddr: 0x4F54, symBinAddr: 0x4CB58, symSize: 0xA0 }
  - { offset: 0x1393E0, size: 0x8, addend: 0x0, symName: '__ZN8smallvec17SmallVec$LT$A$GT$15inline_capacity17hf830095f722516c9E', symObjAddr: 0x50D4, symBinAddr: 0x4CBF8, symSize: 0x40 }
  - { offset: 0x1393FD, size: 0x8, addend: 0x0, symName: '__ZN8smallvec17SmallVec$LT$A$GT$21reserve_one_unchecked17hffe1158993abd352E', symObjAddr: 0x51E8, symBinAddr: 0x95474, symSize: 0xD4 }
  - { offset: 0x13949F, size: 0x8, addend: 0x0, symName: '__ZN8smallvec17SmallVec$LT$A$GT$3len17h7d8e0b611cfa43c1E', symObjAddr: 0x52BC, symBinAddr: 0x4CC38, symSize: 0x2C }
